EXPORTS 
	?$TSS0@?1??instance@openssl_init_base@detail@ssl@asio@boost@@KA?AV?$shared_ptr@Vdo_init@openssl_init_base@detail@ssl@asio@boost@@@std@@XZ@4HA 	 DATA
	??_R0?AU?$wrapexcept@Ubad_day_of_month@gregorian@boost@@@boost@@@8 	 DATA
	??_R0?AU?$wrapexcept@Ubad_month@gregorian@boost@@@boost@@@8 	 DATA
	??_R0?AU?$wrapexcept@Ubad_year@gregorian@boost@@@boost@@@8 	 DATA
	??_R0?AU?$wrapexcept@Vbad_address_cast@ip@asio@boost@@@boost@@@8 	 DATA
	??_R0?AU?$wrapexcept@Vbad_alloc@std@@@boost@@@8 	 DATA
	??_R0?AU?$wrapexcept@Vbad_executor@execution@asio@boost@@@boost@@@8 	 DATA
	??_R0?AU?$wrapexcept@Vbad_get@boost@@@boost@@@8 	 DATA
	??_R0?AU?$wrapexcept@Vbad_lexical_cast@boost@@@boost@@@8 	 DATA
	??_R0?AU?$wrapexcept@Vinvalid_service_owner@asio@boost@@@boost@@@8 	 DATA
	??_R0?AU?$wrapexcept@Vjson_parser_error@json_parser@property_tree@boost@@@boost@@@8 	 DATA
	??_R0?AU?$wrapexcept@Vout_of_range@std@@@boost@@@8 	 DATA
	??_R0?AU?$wrapexcept@Vptree_bad_data@property_tree@boost@@@boost@@@8 	 DATA
	??_R0?AU?$wrapexcept@Vptree_bad_path@property_tree@boost@@@boost@@@8 	 DATA
	??_R0?AU?$wrapexcept@Vruntime_error@std@@@boost@@@8 	 DATA
	??_R0?AU?$wrapexcept@Vservice_already_exists@asio@boost@@@boost@@@8 	 DATA
	??_R0?AU?$wrapexcept@Vsystem_error@system@boost@@@boost@@@8 	 DATA
	??_R0?AU_Crt_new_delete@std@@@8 	 DATA
	??_R0?AUbad_day_of_month@gregorian@boost@@@8 	 DATA
	??_R0?AUbad_month@gregorian@boost@@@8 	 DATA
	??_R0?AUbad_year@gregorian@boost@@@8 	 DATA
	??_R0?AUnoop_deleter@socket_ops@detail@asio@boost@@@8 	 DATA
	??_R0?AV?$_Func_base@HAEBH@std@@@8 	 DATA
	??_R0?AV?$_Func_base@HAEBV?$basic_ptree@V?$basic_string@DU?$char_traits@D@std@@V?$allocator@D@2@@std@@V12@U?$less@V?$basic_string@DU?$char_traits@D@std@@V?$allocator@D@2@@std@@@2@@property_tree@boost@@@std@@@8 	 DATA
	??_R0?AV?$_Func_base@V?$basic_string@DU?$char_traits@D@std@@V?$allocator@D@2@@std@@AEBV12@@std@@@8 	 DATA
	??_R0?AV?$_Func_base@V?$basic_string@DU?$char_traits@D@std@@V?$allocator@D@2@@std@@AEBV?$basic_ptree@V?$basic_string@DU?$char_traits@D@std@@V?$allocator@D@2@@std@@V12@U?$less@V?$basic_string@DU?$char_traits@D@std@@V?$allocator@D@2@@std@@@2@@property_tree@boost@@@std@@@8 	 DATA
	??_R0?AV?$_Func_base@X$$V@std@@@8 	 DATA
	??_R0?AV?$_Func_impl_no_alloc@V?$buffer_debug_check@V?$_Vector_iterator@V?$_Vector_val@U?$_Simple_types@E@std@@@std@@@std@@@detail@asio@boost@@X$$V@std@@@8 	 DATA
	??_R0?AV?$_Iosb@H@std@@@8 	 DATA
	??_R0?AV?$_Ref_count@V?$vector@V?$basic_resolver_entry@Vtcp@ip@asio@boost@@@ip@asio@boost@@V?$allocator@V?$basic_resolver_entry@Vtcp@ip@asio@boost@@@ip@asio@boost@@@std@@@std@@@std@@@8 	 DATA
	??_R0?AV?$_Ref_count@Vdo_init@openssl_init_base@detail@ssl@asio@boost@@@std@@@8 	 DATA
	??_R0?AV?$_Ref_count_obj2@VAnimation@TgBot@@@std@@@8 	 DATA
	??_R0?AV?$_Ref_count_obj2@VAudio@TgBot@@@std@@@8 	 DATA
	??_R0?AV?$_Ref_count_obj2@VBotCommand@TgBot@@@std@@@8 	 DATA
	??_R0?AV?$_Ref_count_obj2@VBotCommandScope@TgBot@@@std@@@8 	 DATA
	??_R0?AV?$_Ref_count_obj2@VBotCommandScopeAllChatAdministrators@TgBot@@@std@@@8 	 DATA
	??_R0?AV?$_Ref_count_obj2@VBotCommandScopeAllGroupChats@TgBot@@@std@@@8 	 DATA
	??_R0?AV?$_Ref_count_obj2@VBotCommandScopeAllPrivateChats@TgBot@@@std@@@8 	 DATA
	??_R0?AV?$_Ref_count_obj2@VBotCommandScopeChat@TgBot@@@std@@@8 	 DATA
	??_R0?AV?$_Ref_count_obj2@VBotCommandScopeChatAdministrators@TgBot@@@std@@@8 	 DATA
	??_R0?AV?$_Ref_count_obj2@VBotCommandScopeChatMember@TgBot@@@std@@@8 	 DATA
	??_R0?AV?$_Ref_count_obj2@VBotCommandScopeDefault@TgBot@@@std@@@8 	 DATA
	??_R0?AV?$_Ref_count_obj2@VCallbackGame@TgBot@@@std@@@8 	 DATA
	??_R0?AV?$_Ref_count_obj2@VCallbackQuery@TgBot@@@std@@@8 	 DATA
	??_R0?AV?$_Ref_count_obj2@VChat@TgBot@@@std@@@8 	 DATA
	??_R0?AV?$_Ref_count_obj2@VChatAdministratorRights@TgBot@@@std@@@8 	 DATA
	??_R0?AV?$_Ref_count_obj2@VChatInviteLink@TgBot@@@std@@@8 	 DATA
	??_R0?AV?$_Ref_count_obj2@VChatJoinRequest@TgBot@@@std@@@8 	 DATA
	??_R0?AV?$_Ref_count_obj2@VChatLocation@TgBot@@@std@@@8 	 DATA
	??_R0?AV?$_Ref_count_obj2@VChatMember@TgBot@@@std@@@8 	 DATA
	??_R0?AV?$_Ref_count_obj2@VChatMemberAdministrator@TgBot@@@std@@@8 	 DATA
	??_R0?AV?$_Ref_count_obj2@VChatMemberBanned@TgBot@@@std@@@8 	 DATA
	??_R0?AV?$_Ref_count_obj2@VChatMemberLeft@TgBot@@@std@@@8 	 DATA
	??_R0?AV?$_Ref_count_obj2@VChatMemberMember@TgBot@@@std@@@8 	 DATA
	??_R0?AV?$_Ref_count_obj2@VChatMemberOwner@TgBot@@@std@@@8 	 DATA
	??_R0?AV?$_Ref_count_obj2@VChatMemberRestricted@TgBot@@@std@@@8 	 DATA
	??_R0?AV?$_Ref_count_obj2@VChatMemberUpdated@TgBot@@@std@@@8 	 DATA
	??_R0?AV?$_Ref_count_obj2@VChatPermissions@TgBot@@@std@@@8 	 DATA
	??_R0?AV?$_Ref_count_obj2@VChatPhoto@TgBot@@@std@@@8 	 DATA
	??_R0?AV?$_Ref_count_obj2@VChatShared@TgBot@@@std@@@8 	 DATA
	??_R0?AV?$_Ref_count_obj2@VChosenInlineResult@TgBot@@@std@@@8 	 DATA
	??_R0?AV?$_Ref_count_obj2@VContact@TgBot@@@std@@@8 	 DATA
	??_R0?AV?$_Ref_count_obj2@VDice@TgBot@@@std@@@8 	 DATA
	??_R0?AV?$_Ref_count_obj2@VDocument@TgBot@@@std@@@8 	 DATA
	??_R0?AV?$_Ref_count_obj2@VEncryptedCredentials@TgBot@@@std@@@8 	 DATA
	??_R0?AV?$_Ref_count_obj2@VEncryptedPassportElement@TgBot@@@std@@@8 	 DATA
	??_R0?AV?$_Ref_count_obj2@VFile@TgBot@@@std@@@8 	 DATA
	??_R0?AV?$_Ref_count_obj2@VForceReply@TgBot@@@std@@@8 	 DATA
	??_R0?AV?$_Ref_count_obj2@VForumTopic@TgBot@@@std@@@8 	 DATA
	??_R0?AV?$_Ref_count_obj2@VForumTopicClosed@TgBot@@@std@@@8 	 DATA
	??_R0?AV?$_Ref_count_obj2@VForumTopicCreated@TgBot@@@std@@@8 	 DATA
	??_R0?AV?$_Ref_count_obj2@VForumTopicEdited@TgBot@@@std@@@8 	 DATA
	??_R0?AV?$_Ref_count_obj2@VForumTopicReopened@TgBot@@@std@@@8 	 DATA
	??_R0?AV?$_Ref_count_obj2@VGame@TgBot@@@std@@@8 	 DATA
	??_R0?AV?$_Ref_count_obj2@VGameHighScore@TgBot@@@std@@@8 	 DATA
	??_R0?AV?$_Ref_count_obj2@VGeneralForumTopicHidden@TgBot@@@std@@@8 	 DATA
	??_R0?AV?$_Ref_count_obj2@VGeneralForumTopicUnhidden@TgBot@@@std@@@8 	 DATA
	??_R0?AV?$_Ref_count_obj2@VGenericReply@TgBot@@@std@@@8 	 DATA
	??_R0?AV?$_Ref_count_obj2@VInlineKeyboardButton@TgBot@@@std@@@8 	 DATA
	??_R0?AV?$_Ref_count_obj2@VInlineKeyboardMarkup@TgBot@@@std@@@8 	 DATA
	??_R0?AV?$_Ref_count_obj2@VInlineQuery@TgBot@@@std@@@8 	 DATA
	??_R0?AV?$_Ref_count_obj2@VInlineQueryResult@TgBot@@@std@@@8 	 DATA
	??_R0?AV?$_Ref_count_obj2@VInlineQueryResultArticle@TgBot@@@std@@@8 	 DATA
	??_R0?AV?$_Ref_count_obj2@VInlineQueryResultAudio@TgBot@@@std@@@8 	 DATA
	??_R0?AV?$_Ref_count_obj2@VInlineQueryResultCachedAudio@TgBot@@@std@@@8 	 DATA
	??_R0?AV?$_Ref_count_obj2@VInlineQueryResultCachedDocument@TgBot@@@std@@@8 	 DATA
	??_R0?AV?$_Ref_count_obj2@VInlineQueryResultCachedGif@TgBot@@@std@@@8 	 DATA
	??_R0?AV?$_Ref_count_obj2@VInlineQueryResultCachedMpeg4Gif@TgBot@@@std@@@8 	 DATA
	??_R0?AV?$_Ref_count_obj2@VInlineQueryResultCachedPhoto@TgBot@@@std@@@8 	 DATA
	??_R0?AV?$_Ref_count_obj2@VInlineQueryResultCachedSticker@TgBot@@@std@@@8 	 DATA
	??_R0?AV?$_Ref_count_obj2@VInlineQueryResultCachedVideo@TgBot@@@std@@@8 	 DATA
	??_R0?AV?$_Ref_count_obj2@VInlineQueryResultCachedVoice@TgBot@@@std@@@8 	 DATA
	??_R0?AV?$_Ref_count_obj2@VInlineQueryResultContact@TgBot@@@std@@@8 	 DATA
	??_R0?AV?$_Ref_count_obj2@VInlineQueryResultDocument@TgBot@@@std@@@8 	 DATA
	??_R0?AV?$_Ref_count_obj2@VInlineQueryResultGame@TgBot@@@std@@@8 	 DATA
	??_R0?AV?$_Ref_count_obj2@VInlineQueryResultGif@TgBot@@@std@@@8 	 DATA
	??_R0?AV?$_Ref_count_obj2@VInlineQueryResultLocation@TgBot@@@std@@@8 	 DATA
	??_R0?AV?$_Ref_count_obj2@VInlineQueryResultMpeg4Gif@TgBot@@@std@@@8 	 DATA
	??_R0?AV?$_Ref_count_obj2@VInlineQueryResultPhoto@TgBot@@@std@@@8 	 DATA
	??_R0?AV?$_Ref_count_obj2@VInlineQueryResultVenue@TgBot@@@std@@@8 	 DATA
	??_R0?AV?$_Ref_count_obj2@VInlineQueryResultVideo@TgBot@@@std@@@8 	 DATA
	??_R0?AV?$_Ref_count_obj2@VInlineQueryResultVoice@TgBot@@@std@@@8 	 DATA
	??_R0?AV?$_Ref_count_obj2@VInputContactMessageContent@TgBot@@@std@@@8 	 DATA
	??_R0?AV?$_Ref_count_obj2@VInputFile@TgBot@@@std@@@8 	 DATA
	??_R0?AV?$_Ref_count_obj2@VInputInvoiceMessageContent@TgBot@@@std@@@8 	 DATA
	??_R0?AV?$_Ref_count_obj2@VInputLocationMessageContent@TgBot@@@std@@@8 	 DATA
	??_R0?AV?$_Ref_count_obj2@VInputMedia@TgBot@@@std@@@8 	 DATA
	??_R0?AV?$_Ref_count_obj2@VInputMediaAnimation@TgBot@@@std@@@8 	 DATA
	??_R0?AV?$_Ref_count_obj2@VInputMediaAudio@TgBot@@@std@@@8 	 DATA
	??_R0?AV?$_Ref_count_obj2@VInputMediaDocument@TgBot@@@std@@@8 	 DATA
	??_R0?AV?$_Ref_count_obj2@VInputMediaPhoto@TgBot@@@std@@@8 	 DATA
	??_R0?AV?$_Ref_count_obj2@VInputMediaVideo@TgBot@@@std@@@8 	 DATA
	??_R0?AV?$_Ref_count_obj2@VInputMessageContent@TgBot@@@std@@@8 	 DATA
	??_R0?AV?$_Ref_count_obj2@VInputTextMessageContent@TgBot@@@std@@@8 	 DATA
	??_R0?AV?$_Ref_count_obj2@VInputVenueMessageContent@TgBot@@@std@@@8 	 DATA
	??_R0?AV?$_Ref_count_obj2@VInvoice@TgBot@@@std@@@8 	 DATA
	??_R0?AV?$_Ref_count_obj2@VKeyboardButton@TgBot@@@std@@@8 	 DATA
	??_R0?AV?$_Ref_count_obj2@VKeyboardButtonPollType@TgBot@@@std@@@8 	 DATA
	??_R0?AV?$_Ref_count_obj2@VKeyboardButtonRequestChat@TgBot@@@std@@@8 	 DATA
	??_R0?AV?$_Ref_count_obj2@VKeyboardButtonRequestUser@TgBot@@@std@@@8 	 DATA
	??_R0?AV?$_Ref_count_obj2@VLabeledPrice@TgBot@@@std@@@8 	 DATA
	??_R0?AV?$_Ref_count_obj2@VLocation@TgBot@@@std@@@8 	 DATA
	??_R0?AV?$_Ref_count_obj2@VLoginUrl@TgBot@@@std@@@8 	 DATA
	??_R0?AV?$_Ref_count_obj2@VMaskPosition@TgBot@@@std@@@8 	 DATA
	??_R0?AV?$_Ref_count_obj2@VMenuButton@TgBot@@@std@@@8 	 DATA
	??_R0?AV?$_Ref_count_obj2@VMenuButtonCommands@TgBot@@@std@@@8 	 DATA
	??_R0?AV?$_Ref_count_obj2@VMenuButtonDefault@TgBot@@@std@@@8 	 DATA
	??_R0?AV?$_Ref_count_obj2@VMenuButtonWebApp@TgBot@@@std@@@8 	 DATA
	??_R0?AV?$_Ref_count_obj2@VMessage@TgBot@@@std@@@8 	 DATA
	??_R0?AV?$_Ref_count_obj2@VMessageAutoDeleteTimerChanged@TgBot@@@std@@@8 	 DATA
	??_R0?AV?$_Ref_count_obj2@VMessageEntity@TgBot@@@std@@@8 	 DATA
	??_R0?AV?$_Ref_count_obj2@VMessageId@TgBot@@@std@@@8 	 DATA
	??_R0?AV?$_Ref_count_obj2@VOrderInfo@TgBot@@@std@@@8 	 DATA
	??_R0?AV?$_Ref_count_obj2@VPassportData@TgBot@@@std@@@8 	 DATA
	??_R0?AV?$_Ref_count_obj2@VPassportElementError@TgBot@@@std@@@8 	 DATA
	??_R0?AV?$_Ref_count_obj2@VPassportElementErrorDataField@TgBot@@@std@@@8 	 DATA
	??_R0?AV?$_Ref_count_obj2@VPassportElementErrorFile@TgBot@@@std@@@8 	 DATA
	??_R0?AV?$_Ref_count_obj2@VPassportElementErrorFiles@TgBot@@@std@@@8 	 DATA
	??_R0?AV?$_Ref_count_obj2@VPassportElementErrorFrontSide@TgBot@@@std@@@8 	 DATA
	??_R0?AV?$_Ref_count_obj2@VPassportElementErrorReverseSide@TgBot@@@std@@@8 	 DATA
	??_R0?AV?$_Ref_count_obj2@VPassportElementErrorSelfie@TgBot@@@std@@@8 	 DATA
	??_R0?AV?$_Ref_count_obj2@VPassportElementErrorTranslationFile@TgBot@@@std@@@8 	 DATA
	??_R0?AV?$_Ref_count_obj2@VPassportElementErrorTranslationFiles@TgBot@@@std@@@8 	 DATA
	??_R0?AV?$_Ref_count_obj2@VPassportElementErrorUnspecified@TgBot@@@std@@@8 	 DATA
	??_R0?AV?$_Ref_count_obj2@VPassportFile@TgBot@@@std@@@8 	 DATA
	??_R0?AV?$_Ref_count_obj2@VPhotoSize@TgBot@@@std@@@8 	 DATA
	??_R0?AV?$_Ref_count_obj2@VPoll@TgBot@@@std@@@8 	 DATA
	??_R0?AV?$_Ref_count_obj2@VPollAnswer@TgBot@@@std@@@8 	 DATA
	??_R0?AV?$_Ref_count_obj2@VPollOption@TgBot@@@std@@@8 	 DATA
	??_R0?AV?$_Ref_count_obj2@VPreCheckoutQuery@TgBot@@@std@@@8 	 DATA
	??_R0?AV?$_Ref_count_obj2@VProximityAlertTriggered@TgBot@@@std@@@8 	 DATA
	??_R0?AV?$_Ref_count_obj2@VReplyKeyboardMarkup@TgBot@@@std@@@8 	 DATA
	??_R0?AV?$_Ref_count_obj2@VReplyKeyboardRemove@TgBot@@@std@@@8 	 DATA
	??_R0?AV?$_Ref_count_obj2@VResponseParameters@TgBot@@@std@@@8 	 DATA
	??_R0?AV?$_Ref_count_obj2@VSentWebAppMessage@TgBot@@@std@@@8 	 DATA
	??_R0?AV?$_Ref_count_obj2@VShippingOption@TgBot@@@std@@@8 	 DATA
	??_R0?AV?$_Ref_count_obj2@VShippingQuery@TgBot@@@std@@@8 	 DATA
	??_R0?AV?$_Ref_count_obj2@VSticker@TgBot@@@std@@@8 	 DATA
	??_R0?AV?$_Ref_count_obj2@VStickerSet@TgBot@@@std@@@8 	 DATA
	??_R0?AV?$_Ref_count_obj2@VSuccessfulPayment@TgBot@@@std@@@8 	 DATA
	??_R0?AV?$_Ref_count_obj2@VUpdate@TgBot@@@std@@@8 	 DATA
	??_R0?AV?$_Ref_count_obj2@VUser@TgBot@@@std@@@8 	 DATA
	??_R0?AV?$_Ref_count_obj2@VUserProfilePhotos@TgBot@@@std@@@8 	 DATA
	??_R0?AV?$_Ref_count_obj2@VUserShared@TgBot@@@std@@@8 	 DATA
	??_R0?AV?$_Ref_count_obj2@VVenue@TgBot@@@std@@@8 	 DATA
	??_R0?AV?$_Ref_count_obj2@VVideo@TgBot@@@std@@@8 	 DATA
	??_R0?AV?$_Ref_count_obj2@VVideoChatEnded@TgBot@@@std@@@8 	 DATA
	??_R0?AV?$_Ref_count_obj2@VVideoChatParticipantsInvited@TgBot@@@std@@@8 	 DATA
	??_R0?AV?$_Ref_count_obj2@VVideoChatScheduled@TgBot@@@std@@@8 	 DATA
	??_R0?AV?$_Ref_count_obj2@VVideoChatStarted@TgBot@@@std@@@8 	 DATA
	??_R0?AV?$_Ref_count_obj2@VVideoNote@TgBot@@@std@@@8 	 DATA
	??_R0?AV?$_Ref_count_obj2@VVoice@TgBot@@@std@@@8 	 DATA
	??_R0?AV?$_Ref_count_obj2@VWebAppData@TgBot@@@std@@@8 	 DATA
	??_R0?AV?$_Ref_count_obj2@VWebAppInfo@TgBot@@@std@@@8 	 DATA
	??_R0?AV?$_Ref_count_obj2@VWebhookInfo@TgBot@@@std@@@8 	 DATA
	??_R0?AV?$_Ref_count_obj2@VWriteAccessAllowed@TgBot@@@std@@@8 	 DATA
	??_R0?AV?$_Ref_count_resource@PEAXUnoop_deleter@socket_ops@detail@asio@boost@@@std@@@8 	 DATA
	??_R0?AV?$basic_executor_type@V?$allocator@X@std@@$03@io_context@asio@boost@@@8 	 DATA
	??_R0?AV?$basic_executor_type@V?$allocator@X@std@@$0A@@io_context@asio@boost@@@8 	 DATA
	??_R0?AV?$basic_filebuf@DU?$char_traits@D@std@@@std@@@8 	 DATA
	??_R0?AV?$basic_ifstream@DU?$char_traits@D@std@@@std@@@8 	 DATA
	??_R0?AV?$basic_ios@DU?$char_traits@D@std@@@std@@@8 	 DATA
	??_R0?AV?$basic_iostream@DU?$char_traits@D@std@@@std@@@8 	 DATA
	??_R0?AV?$basic_istream@DU?$char_traits@D@std@@@std@@@8 	 DATA
	??_R0?AV?$basic_istringstream@DU?$char_traits@D@std@@V?$allocator@D@2@@std@@@8 	 DATA
	??_R0?AV?$basic_ofstream@DU?$char_traits@D@std@@@std@@@8 	 DATA
	??_R0?AV?$basic_ostream@DU?$char_traits@D@std@@@std@@@8 	 DATA
	??_R0?AV?$basic_ostringstream@DU?$char_traits@D@std@@V?$allocator@D@2@@std@@@8 	 DATA
	??_R0?AV?$basic_pointerbuf@DV?$basic_stringbuf@DU?$char_traits@D@std@@V?$allocator@D@2@@std@@@detail@boost@@@8 	 DATA
	??_R0?AV?$basic_streambuf@DU?$char_traits@D@std@@@std@@@8 	 DATA
	??_R0?AV?$basic_string@DU?$char_traits@D@std@@V?$allocator@D@2@@std@@@8 	 DATA
	??_R0?AV?$basic_stringbuf@DU?$char_traits@D@std@@V?$allocator@D@2@@std@@@8 	 DATA
	??_R0?AV?$basic_stringstream@DU?$char_traits@D@std@@V?$allocator@D@2@@std@@@8 	 DATA
	??_R0?AV?$basic_unlockedbuf@V?$basic_stringbuf@DU?$char_traits@D@std@@V?$allocator@D@2@@std@@D@lcast@detail@boost@@@8 	 DATA
	??_R0?AV?$buffer_debug_check@V?$_Vector_iterator@V?$_Vector_val@U?$_Simple_types@E@std@@@std@@@std@@@detail@asio@boost@@@8 	 DATA
	??_R0?AV?$deadline_timer_service@U?$time_traits@Vptime@posix_time@boost@@@asio@boost@@@detail@asio@boost@@@8 	 DATA
	??_R0?AV?$execution_context_service_base@V?$deadline_timer_service@U?$time_traits@Vptime@posix_time@boost@@@asio@boost@@@detail@asio@boost@@@detail@asio@boost@@@8 	 DATA
	??_R0?AV?$execution_context_service_base@V?$resolver_service@Vtcp@ip@asio@boost@@@detail@asio@boost@@@detail@asio@boost@@@8 	 DATA
	??_R0?AV?$execution_context_service_base@V?$win_iocp_socket_service@Vtcp@ip@asio@boost@@@detail@asio@boost@@@detail@asio@boost@@@8 	 DATA
	??_R0?AV?$execution_context_service_base@Vwin_iocp_io_context@detail@asio@boost@@@detail@asio@boost@@@8 	 DATA
	??_R0?AV?$func@Uthread_function@win_iocp_io_context@detail@asio@boost@@@win_thread@detail@asio@boost@@@8 	 DATA
	??_R0?AV?$func@Utimer_thread_function@win_iocp_io_context@detail@asio@boost@@@win_thread@detail@asio@boost@@@8 	 DATA
	??_R0?AV?$holder@V?$basic_string@DU?$char_traits@D@std@@V?$allocator@D@2@@std@@@any@boost@@@8 	 DATA
	??_R0?AV?$holder@V?$string_path@V?$basic_string@DU?$char_traits@D@std@@V?$allocator@D@2@@std@@U?$id_translator@V?$basic_string@DU?$char_traits@D@std@@V?$allocator@D@2@@std@@@property_tree@boost@@@property_tree@boost@@@any@boost@@@8 	 DATA
	??_R0?AV?$numpunct@D@std@@@8 	 DATA
	??_R0?AV?$resolver_service@Vtcp@ip@asio@boost@@@detail@asio@boost@@@8 	 DATA
	??_R0?AV?$string_path@V?$basic_string@DU?$char_traits@D@std@@V?$allocator@D@2@@std@@U?$id_translator@V?$basic_string@DU?$char_traits@D@std@@V?$allocator@D@2@@std@@@property_tree@boost@@@property_tree@boost@@@8 	 DATA
	??_R0?AV?$timer_queue@U?$time_traits@Vptime@posix_time@boost@@@asio@boost@@@detail@asio@boost@@@8 	 DATA
	??_R0?AV?$timer_queue@Uforwarding_posix_time_traits@detail@asio@boost@@@detail@asio@boost@@@8 	 DATA
	??_R0?AV?$typeid_wrapper@V?$deadline_timer_service@U?$time_traits@Vptime@posix_time@boost@@@asio@boost@@@detail@asio@boost@@@detail@asio@boost@@@8 	 DATA
	??_R0?AV?$typeid_wrapper@V?$resolver_service@Vtcp@ip@asio@boost@@@detail@asio@boost@@@detail@asio@boost@@@8 	 DATA
	??_R0?AV?$typeid_wrapper@V?$win_iocp_socket_service@Vtcp@ip@asio@boost@@@detail@asio@boost@@@detail@asio@boost@@@8 	 DATA
	??_R0?AV?$typeid_wrapper@Vwin_iocp_io_context@detail@asio@boost@@@detail@asio@boost@@@8 	 DATA
	??_R0?AV?$variant@_JV?$basic_string@DU?$char_traits@D@std@@V?$allocator@D@2@@std@@@boost@@@8 	 DATA
	??_R0?AV?$verify_callback@Vrfc2818_verification@ssl@asio@boost@@@detail@ssl@asio@boost@@@8 	 DATA
	??_R0?AV?$win_iocp_socket_service@Vtcp@ip@asio@boost@@@detail@asio@boost@@@8 	 DATA
	??_R0?AVBoostHttpOnlySslClient@TgBot@@@8 	 DATA
	??_R0?AVBotCommand@TgBot@@@8 	 DATA
	??_R0?AVBotCommandScope@TgBot@@@8 	 DATA
	??_R0?AVBotCommandScopeAllChatAdministrators@TgBot@@@8 	 DATA
	??_R0?AVBotCommandScopeAllGroupChats@TgBot@@@8 	 DATA
	??_R0?AVBotCommandScopeAllPrivateChats@TgBot@@@8 	 DATA
	??_R0?AVBotCommandScopeChat@TgBot@@@8 	 DATA
	??_R0?AVBotCommandScopeChatAdministrators@TgBot@@@8 	 DATA
	??_R0?AVBotCommandScopeChatMember@TgBot@@@8 	 DATA
	??_R0?AVBotCommandScopeDefault@TgBot@@@8 	 DATA
	??_R0?AVChatMember@TgBot@@@8 	 DATA
	??_R0?AVChatMemberAdministrator@TgBot@@@8 	 DATA
	??_R0?AVChatMemberBanned@TgBot@@@8 	 DATA
	??_R0?AVChatMemberLeft@TgBot@@@8 	 DATA
	??_R0?AVChatMemberMember@TgBot@@@8 	 DATA
	??_R0?AVChatMemberOwner@TgBot@@@8 	 DATA
	??_R0?AVChatMemberRestricted@TgBot@@@8 	 DATA
	??_R0?AVCurlHttpClient@TgBot@@@8 	 DATA
	??_R0?AVForceReply@TgBot@@@8 	 DATA
	??_R0?AVGenericReply@TgBot@@@8 	 DATA
	??_R0?AVHttpClient@TgBot@@@8 	 DATA
	??_R0?AVInlineKeyboardMarkup@TgBot@@@8 	 DATA
	??_R0?AVInlineQueryResult@TgBot@@@8 	 DATA
	??_R0?AVInlineQueryResultArticle@TgBot@@@8 	 DATA
	??_R0?AVInlineQueryResultAudio@TgBot@@@8 	 DATA
	??_R0?AVInlineQueryResultCachedAudio@TgBot@@@8 	 DATA
	??_R0?AVInlineQueryResultCachedDocument@TgBot@@@8 	 DATA
	??_R0?AVInlineQueryResultCachedGif@TgBot@@@8 	 DATA
	??_R0?AVInlineQueryResultCachedMpeg4Gif@TgBot@@@8 	 DATA
	??_R0?AVInlineQueryResultCachedPhoto@TgBot@@@8 	 DATA
	??_R0?AVInlineQueryResultCachedSticker@TgBot@@@8 	 DATA
	??_R0?AVInlineQueryResultCachedVideo@TgBot@@@8 	 DATA
	??_R0?AVInlineQueryResultCachedVoice@TgBot@@@8 	 DATA
	??_R0?AVInlineQueryResultContact@TgBot@@@8 	 DATA
	??_R0?AVInlineQueryResultDocument@TgBot@@@8 	 DATA
	??_R0?AVInlineQueryResultGame@TgBot@@@8 	 DATA
	??_R0?AVInlineQueryResultGif@TgBot@@@8 	 DATA
	??_R0?AVInlineQueryResultLocation@TgBot@@@8 	 DATA
	??_R0?AVInlineQueryResultMpeg4Gif@TgBot@@@8 	 DATA
	??_R0?AVInlineQueryResultPhoto@TgBot@@@8 	 DATA
	??_R0?AVInlineQueryResultVenue@TgBot@@@8 	 DATA
	??_R0?AVInlineQueryResultVideo@TgBot@@@8 	 DATA
	??_R0?AVInlineQueryResultVoice@TgBot@@@8 	 DATA
	??_R0?AVInputContactMessageContent@TgBot@@@8 	 DATA
	??_R0?AVInputInvoiceMessageContent@TgBot@@@8 	 DATA
	??_R0?AVInputLocationMessageContent@TgBot@@@8 	 DATA
	??_R0?AVInputMedia@TgBot@@@8 	 DATA
	??_R0?AVInputMediaAnimation@TgBot@@@8 	 DATA
	??_R0?AVInputMediaAudio@TgBot@@@8 	 DATA
	??_R0?AVInputMediaDocument@TgBot@@@8 	 DATA
	??_R0?AVInputMediaPhoto@TgBot@@@8 	 DATA
	??_R0?AVInputMediaVideo@TgBot@@@8 	 DATA
	??_R0?AVInputMessageContent@TgBot@@@8 	 DATA
	??_R0?AVInputTextMessageContent@TgBot@@@8 	 DATA
	??_R0?AVInputVenueMessageContent@TgBot@@@8 	 DATA
	??_R0?AVMenuButton@TgBot@@@8 	 DATA
	??_R0?AVMenuButtonCommands@TgBot@@@8 	 DATA
	??_R0?AVMenuButtonDefault@TgBot@@@8 	 DATA
	??_R0?AVMenuButtonWebApp@TgBot@@@8 	 DATA
	??_R0?AVPassportElementError@TgBot@@@8 	 DATA
	??_R0?AVPassportElementErrorDataField@TgBot@@@8 	 DATA
	??_R0?AVPassportElementErrorFile@TgBot@@@8 	 DATA
	??_R0?AVPassportElementErrorFiles@TgBot@@@8 	 DATA
	??_R0?AVPassportElementErrorFrontSide@TgBot@@@8 	 DATA
	??_R0?AVPassportElementErrorReverseSide@TgBot@@@8 	 DATA
	??_R0?AVPassportElementErrorSelfie@TgBot@@@8 	 DATA
	??_R0?AVPassportElementErrorTranslationFile@TgBot@@@8 	 DATA
	??_R0?AVPassportElementErrorTranslationFiles@TgBot@@@8 	 DATA
	??_R0?AVPassportElementErrorUnspecified@TgBot@@@8 	 DATA
	??_R0?AVReplyKeyboardMarkup@TgBot@@@8 	 DATA
	??_R0?AVReplyKeyboardRemove@TgBot@@@8 	 DATA
	??_R0?AVTgException@TgBot@@@8 	 DATA
	??_R0?AV_Facet_base@std@@@8 	 DATA
	??_R0?AV_Generic_error_category@std@@@8 	 DATA
	??_R0?AV_Ref_count_base@std@@@8 	 DATA
	??_R0?AV_System_error@std@@@8 	 DATA
	??_R0?AV_System_error_category@std@@@8 	 DATA
	??_R0?AVbad_address_cast@ip@asio@boost@@@8 	 DATA
	??_R0?AVbad_alloc@std@@@8 	 DATA
	??_R0?AVbad_array_new_length@std@@@8 	 DATA
	??_R0?AVbad_cast@std@@@8 	 DATA
	??_R0?AVbad_executor@execution@asio@boost@@@8 	 DATA
	??_R0?AVbad_get@boost@@@8 	 DATA
	??_R0?AVbad_lexical_cast@boost@@@8 	 DATA
	??_R0?AVclone_base@exception_detail@boost@@@8 	 DATA
	??_R0?AVerror_category@std@@@8 	 DATA
	??_R0?AVerror_category@system@boost@@@8 	 DATA
	??_R0?AVexception@boost@@@8 	 DATA
	??_R0?AVexception@std@@@8 	 DATA
	??_R0?AVfacet@locale@std@@@8 	 DATA
	??_R0?AVfailure@ios_base@std@@@8 	 DATA
	??_R0?AVfile_parser_error@property_tree@boost@@@8 	 DATA
	??_R0?AVfunc_base@win_thread@detail@asio@boost@@@8 	 DATA
	??_R0?AVinterop_error_category@detail@system@boost@@@8 	 DATA
	??_R0?AVinvalid_service_owner@asio@boost@@@8 	 DATA
	??_R0?AVios_base@std@@@8 	 DATA
	??_R0?AVjson_parser_error@json_parser@property_tree@boost@@@8 	 DATA
	??_R0?AVlogic_error@std@@@8 	 DATA
	??_R0?AVmisc_category@detail@error@asio@boost@@@8 	 DATA
	??_R0?AVmultiple_exceptions@asio@boost@@@8 	 DATA
	??_R0?AVnoncopyable@detail@asio@boost@@@8 	 DATA
	??_R0?AVout_of_range@std@@@8 	 DATA
	??_R0?AVplaceholder@any@boost@@@8 	 DATA
	??_R0?AVplaceholder@detail@anys@boost@@@8 	 DATA
	??_R0?AVptree_bad_data@property_tree@boost@@@8 	 DATA
	??_R0?AVptree_bad_path@property_tree@boost@@@8 	 DATA
	??_R0?AVptree_error@property_tree@boost@@@8 	 DATA
	??_R0?AVresolver_service_base@detail@asio@boost@@@8 	 DATA
	??_R0?AVruntime_error@std@@@8 	 DATA
	??_R0?AVservice@execution_context@asio@boost@@@8 	 DATA
	??_R0?AVservice_already_exists@asio@boost@@@8 	 DATA
	??_R0?AVssl_category@detail@error@asio@boost@@@8 	 DATA
	??_R0?AVstream_category@detail@error@ssl@asio@boost@@@8 	 DATA
	??_R0?AVsystem_error@std@@@8 	 DATA
	??_R0?AVsystem_error@system@boost@@@8 	 DATA
	??_R0?AVsystem_error_category@detail@system@boost@@@8 	 DATA
	??_R0?AVthread_context@detail@asio@boost@@@8 	 DATA
	??_R0?AVtimer_queue_base@detail@asio@boost@@@8 	 DATA
	??_R0?AVverify_callback_base@detail@ssl@asio@boost@@@8 	 DATA
	??_R0?AVwin_iocp_io_context@detail@asio@boost@@@8 	 DATA
	??_R0?AVwin_iocp_socket_service_base@detail@asio@boost@@@8 	 DATA
	??_R0H@8 	 DATA
	??_R0M@8 	 DATA
	??_R0_J@8 	 DATA
	??_R0_N@8 	 DATA
	?SOURCE@PassportElementErrorDataField@TgBot@@2V?$basic_string@DU?$char_traits@D@std@@V?$allocator@D@2@@std@@B 	 DATA
	?SOURCE@PassportElementErrorFile@TgBot@@2V?$basic_string@DU?$char_traits@D@std@@V?$allocator@D@2@@std@@B 	 DATA
	?SOURCE@PassportElementErrorFiles@TgBot@@2V?$basic_string@DU?$char_traits@D@std@@V?$allocator@D@2@@std@@B 	 DATA
	?SOURCE@PassportElementErrorFrontSide@TgBot@@2V?$basic_string@DU?$char_traits@D@std@@V?$allocator@D@2@@std@@B 	 DATA
	?SOURCE@PassportElementErrorReverseSide@TgBot@@2V?$basic_string@DU?$char_traits@D@std@@V?$allocator@D@2@@std@@B 	 DATA
	?SOURCE@PassportElementErrorSelfie@TgBot@@2V?$basic_string@DU?$char_traits@D@std@@V?$allocator@D@2@@std@@B 	 DATA
	?SOURCE@PassportElementErrorTranslationFile@TgBot@@2V?$basic_string@DU?$char_traits@D@std@@V?$allocator@D@2@@std@@B 	 DATA
	?SOURCE@PassportElementErrorTranslationFiles@TgBot@@2V?$basic_string@DU?$char_traits@D@std@@V?$allocator@D@2@@std@@B 	 DATA
	?SOURCE@PassportElementErrorUnspecified@TgBot@@2V?$basic_string@DU?$char_traits@D@std@@V?$allocator@D@2@@std@@B 	 DATA
	?STATUS@ChatMemberAdministrator@TgBot@@2V?$basic_string@DU?$char_traits@D@std@@V?$allocator@D@2@@std@@B 	 DATA
	?STATUS@ChatMemberBanned@TgBot@@2V?$basic_string@DU?$char_traits@D@std@@V?$allocator@D@2@@std@@B 	 DATA
	?STATUS@ChatMemberLeft@TgBot@@2V?$basic_string@DU?$char_traits@D@std@@V?$allocator@D@2@@std@@B 	 DATA
	?STATUS@ChatMemberMember@TgBot@@2V?$basic_string@DU?$char_traits@D@std@@V?$allocator@D@2@@std@@B 	 DATA
	?STATUS@ChatMemberOwner@TgBot@@2V?$basic_string@DU?$char_traits@D@std@@V?$allocator@D@2@@std@@B 	 DATA
	?STATUS@ChatMemberRestricted@TgBot@@2V?$basic_string@DU?$char_traits@D@std@@V?$allocator@D@2@@std@@B 	 DATA
	?TYPE@BotCommandScopeAllChatAdministrators@TgBot@@2V?$basic_string@DU?$char_traits@D@std@@V?$allocator@D@2@@std@@B 	 DATA
	?TYPE@BotCommandScopeAllGroupChats@TgBot@@2V?$basic_string@DU?$char_traits@D@std@@V?$allocator@D@2@@std@@B 	 DATA
	?TYPE@BotCommandScopeAllPrivateChats@TgBot@@2V?$basic_string@DU?$char_traits@D@std@@V?$allocator@D@2@@std@@B 	 DATA
	?TYPE@BotCommandScopeChat@TgBot@@2V?$basic_string@DU?$char_traits@D@std@@V?$allocator@D@2@@std@@B 	 DATA
	?TYPE@BotCommandScopeChatAdministrators@TgBot@@2V?$basic_string@DU?$char_traits@D@std@@V?$allocator@D@2@@std@@B 	 DATA
	?TYPE@BotCommandScopeChatMember@TgBot@@2V?$basic_string@DU?$char_traits@D@std@@V?$allocator@D@2@@std@@B 	 DATA
	?TYPE@BotCommandScopeDefault@TgBot@@2V?$basic_string@DU?$char_traits@D@std@@V?$allocator@D@2@@std@@B 	 DATA
	?TYPE@InlineQueryResultArticle@TgBot@@2V?$basic_string@DU?$char_traits@D@std@@V?$allocator@D@2@@std@@B 	 DATA
	?TYPE@InlineQueryResultAudio@TgBot@@2V?$basic_string@DU?$char_traits@D@std@@V?$allocator@D@2@@std@@B 	 DATA
	?TYPE@InlineQueryResultCachedAudio@TgBot@@2V?$basic_string@DU?$char_traits@D@std@@V?$allocator@D@2@@std@@B 	 DATA
	?TYPE@InlineQueryResultCachedDocument@TgBot@@2V?$basic_string@DU?$char_traits@D@std@@V?$allocator@D@2@@std@@B 	 DATA
	?TYPE@InlineQueryResultCachedGif@TgBot@@2V?$basic_string@DU?$char_traits@D@std@@V?$allocator@D@2@@std@@B 	 DATA
	?TYPE@InlineQueryResultCachedMpeg4Gif@TgBot@@2V?$basic_string@DU?$char_traits@D@std@@V?$allocator@D@2@@std@@B 	 DATA
	?TYPE@InlineQueryResultCachedPhoto@TgBot@@2V?$basic_string@DU?$char_traits@D@std@@V?$allocator@D@2@@std@@B 	 DATA
	?TYPE@InlineQueryResultCachedSticker@TgBot@@2V?$basic_string@DU?$char_traits@D@std@@V?$allocator@D@2@@std@@B 	 DATA
	?TYPE@InlineQueryResultCachedVideo@TgBot@@2V?$basic_string@DU?$char_traits@D@std@@V?$allocator@D@2@@std@@B 	 DATA
	?TYPE@InlineQueryResultCachedVoice@TgBot@@2V?$basic_string@DU?$char_traits@D@std@@V?$allocator@D@2@@std@@B 	 DATA
	?TYPE@InlineQueryResultContact@TgBot@@2V?$basic_string@DU?$char_traits@D@std@@V?$allocator@D@2@@std@@B 	 DATA
	?TYPE@InlineQueryResultDocument@TgBot@@2V?$basic_string@DU?$char_traits@D@std@@V?$allocator@D@2@@std@@B 	 DATA
	?TYPE@InlineQueryResultGame@TgBot@@2V?$basic_string@DU?$char_traits@D@std@@V?$allocator@D@2@@std@@B 	 DATA
	?TYPE@InlineQueryResultGif@TgBot@@2V?$basic_string@DU?$char_traits@D@std@@V?$allocator@D@2@@std@@B 	 DATA
	?TYPE@InlineQueryResultLocation@TgBot@@2V?$basic_string@DU?$char_traits@D@std@@V?$allocator@D@2@@std@@B 	 DATA
	?TYPE@InlineQueryResultMpeg4Gif@TgBot@@2V?$basic_string@DU?$char_traits@D@std@@V?$allocator@D@2@@std@@B 	 DATA
	?TYPE@InlineQueryResultPhoto@TgBot@@2V?$basic_string@DU?$char_traits@D@std@@V?$allocator@D@2@@std@@B 	 DATA
	?TYPE@InlineQueryResultVenue@TgBot@@2V?$basic_string@DU?$char_traits@D@std@@V?$allocator@D@2@@std@@B 	 DATA
	?TYPE@InlineQueryResultVideo@TgBot@@2V?$basic_string@DU?$char_traits@D@std@@V?$allocator@D@2@@std@@B 	 DATA
	?TYPE@InlineQueryResultVoice@TgBot@@2V?$basic_string@DU?$char_traits@D@std@@V?$allocator@D@2@@std@@B 	 DATA
	?TYPE@InputContactMessageContent@TgBot@@2V?$basic_string@DU?$char_traits@D@std@@V?$allocator@D@2@@std@@B 	 DATA
	?TYPE@InputInvoiceMessageContent@TgBot@@2V?$basic_string@DU?$char_traits@D@std@@V?$allocator@D@2@@std@@B 	 DATA
	?TYPE@InputLocationMessageContent@TgBot@@2V?$basic_string@DU?$char_traits@D@std@@V?$allocator@D@2@@std@@B 	 DATA
	?TYPE@InputMediaAnimation@TgBot@@2V?$basic_string@DU?$char_traits@D@std@@V?$allocator@D@2@@std@@B 	 DATA
	?TYPE@InputMediaAudio@TgBot@@2V?$basic_string@DU?$char_traits@D@std@@V?$allocator@D@2@@std@@B 	 DATA
	?TYPE@InputMediaDocument@TgBot@@2V?$basic_string@DU?$char_traits@D@std@@V?$allocator@D@2@@std@@B 	 DATA
	?TYPE@InputMediaPhoto@TgBot@@2V?$basic_string@DU?$char_traits@D@std@@V?$allocator@D@2@@std@@B 	 DATA
	?TYPE@InputMediaVideo@TgBot@@2V?$basic_string@DU?$char_traits@D@std@@V?$allocator@D@2@@std@@B 	 DATA
	?TYPE@InputTextMessageContent@TgBot@@2V?$basic_string@DU?$char_traits@D@std@@V?$allocator@D@2@@std@@B 	 DATA
	?TYPE@InputVenueMessageContent@TgBot@@2V?$basic_string@DU?$char_traits@D@std@@V?$allocator@D@2@@std@@B 	 DATA
	?TYPE@MenuButtonCommands@TgBot@@2V?$basic_string@DU?$char_traits@D@std@@V?$allocator@D@2@@std@@B 	 DATA
	?TYPE@MenuButtonDefault@TgBot@@2V?$basic_string@DU?$char_traits@D@std@@V?$allocator@D@2@@std@@B 	 DATA
	?TYPE@MenuButtonWebApp@TgBot@@2V?$basic_string@DU?$char_traits@D@std@@V?$allocator@D@2@@std@@B 	 DATA
	?_OptionsStorage@?1??__local_stdio_printf_options@@9@4_KA 	 DATA
	?_Psave@?$_Facetptr@V?$codecvt@DDU_Mbstatet@@@std@@@std@@2PEBVfacet@locale@2@EB 	 DATA
	?_Psave@?$_Facetptr@V?$ctype@D@std@@@std@@2PEBVfacet@locale@2@EB 	 DATA
	?_Psave@?$_Facetptr@V?$numpunct@D@std@@@std@@2PEBVfacet@locale@2@EB 	 DATA
	?_Static@?1???$_Immortalize_memcpy_image@V_Generic_error_category@std@@@std@@YAAEBV_Generic_error_category@1@XZ@4U?$_Constexpr_immortalize_impl@V_Generic_error_category@std@@@1@A 	 DATA
	?_Static@?1???$_Immortalize_memcpy_image@V_System_error_category@std@@@std@@YAAEBV_System_error_category@1@XZ@4U?$_Constexpr_immortalize_impl@V_System_error_category@std@@@1@A 	 DATA
	?_Stinit@?1??_Init@?$basic_filebuf@DU?$char_traits@D@std@@@std@@IEAAXPEAU_iobuf@@W4_Initfl@23@@Z@4U_Mbstatet@@A 	 DATA
	?data_@?$winsock_init@$01$01@detail@asio@boost@@0Udata@winsock_init_base@234@A 	 DATA
	?id@?$execution_context_service_base@V?$deadline_timer_service@U?$time_traits@Vptime@posix_time@boost@@@asio@boost@@@detail@asio@boost@@@detail@asio@boost@@2V?$service_id@V?$deadline_timer_service@U?$time_traits@Vptime@posix_time@boost@@@asio@boost@@@detail@asio@boost@@@234@A 	 DATA
	?id@?$execution_context_service_base@V?$resolver_service@Vtcp@ip@asio@boost@@@detail@asio@boost@@@detail@asio@boost@@2V?$service_id@V?$resolver_service@Vtcp@ip@asio@boost@@@detail@asio@boost@@@234@A 	 DATA
	?id@?$execution_context_service_base@V?$win_iocp_socket_service@Vtcp@ip@asio@boost@@@detail@asio@boost@@@detail@asio@boost@@2V?$service_id@V?$win_iocp_socket_service@Vtcp@ip@asio@boost@@@detail@asio@boost@@@234@A 	 DATA
	?id@?$execution_context_service_base@Vnull_reactor@detail@asio@boost@@@detail@asio@boost@@2V?$service_id@Vnull_reactor@detail@asio@boost@@@234@A 	 DATA
	?id@?$execution_context_service_base@Vscheduler@detail@asio@boost@@@detail@asio@boost@@2V?$service_id@Vscheduler@detail@asio@boost@@@234@A 	 DATA
	?id@?$execution_context_service_base@Vselect_reactor@detail@asio@boost@@@detail@asio@boost@@2V?$service_id@Vselect_reactor@detail@asio@boost@@@234@A 	 DATA
	?id@?$execution_context_service_base@Vwin_iocp_io_context@detail@asio@boost@@@detail@asio@boost@@2V?$service_id@Vwin_iocp_io_context@detail@asio@boost@@@234@A 	 DATA
	?id@?$service_base@Vstrand_service@detail@asio@boost@@@detail@asio@boost@@2V?$service_id@Vstrand_service@detail@asio@boost@@@234@A 	 DATA
	?init@?1??instance@openssl_init_base@detail@ssl@asio@boost@@KA?AV?$shared_ptr@Vdo_init@openssl_init_base@detail@ssl@asio@boost@@@std@@XZ@4V78@A 	 DATA
	?instance@?$interop_cat_holder@X@detail@system@boost@@2Vinterop_error_category@234@B 	 DATA
	?instance@?$system_cat_holder@X@detail@system@boost@@2Vsystem_error_category@234@B 	 DATA
	?instance@?1??get_misc_category@error@asio@boost@@YAAEBVerror_category@system@4@XZ@4Vmisc_category@detail@234@A 	 DATA
	?instance@?1??get_ssl_category@error@asio@boost@@YAAEBVerror_category@system@4@XZ@4Vssl_category@detail@234@A 	 DATA
	?instance@?1??get_stream_category@error@ssl@asio@boost@@YAAEBVerror_category@system@5@XZ@4Vstream_category@detail@2345@A 	 DATA
	?instance_@?$openssl_init@$00@detail@ssl@asio@boost@@0V12345@A 	 DATA
	?pdata@?1???B?$integral_constant@_N$00@boost@@QEBAAEBU?$bool_@$00@mpl@2@XZ@4PEBXEB 	 DATA
	?pdata@?1???B?$integral_constant@_N$0A@@boost@@QEBAAEBU?$bool_@$0A@@mpl@2@XZ@4PEBXEB 	 DATA
	?state@?1??get_signal_state@detail@asio@boost@@YAPEAUsignal_state@234@XZ@4U5234@A 	 DATA
	?terminate_threads_@?$win_thread_base@Vwin_thread@detail@asio@boost@@@detail@asio@boost@@0JA 	 DATA
	?top_@?$call_stack@Vstrand_impl@strand_executor_service@detail@asio@boost@@E@detail@asio@boost@@0V?$tss_ptr@Vcontext@?$call_stack@Vstrand_impl@strand_executor_service@detail@asio@boost@@E@detail@asio@boost@@@234@A 	 DATA
	?top_@?$call_stack@Vstrand_impl@strand_service@detail@asio@boost@@E@detail@asio@boost@@0V?$tss_ptr@Vcontext@?$call_stack@Vstrand_impl@strand_service@detail@asio@boost@@E@detail@asio@boost@@@234@A 	 DATA
	?top_@?$call_stack@Vthread_context@detail@asio@boost@@Vthread_info_base@234@@detail@asio@boost@@0V?$tss_ptr@Vcontext@?$call_stack@Vthread_context@detail@asio@boost@@Vthread_info_base@234@@detail@asio@boost@@@234@A 	 DATA
	?value_@?$keyword_tss_ptr@Vcontext@?$call_stack@Vthread_context@detail@asio@boost@@Vthread_info_base@234@@detail@asio@boost@@@detail@asio@boost@@0PEAVcontext@?$call_stack@Vthread_context@detail@asio@boost@@Vthread_info_base@234@@234@EA 	 DATA
	_Avx2WmemEnabledWeakValue 	 DATA
	??$?0$$QEAV?$basic_string@DU?$char_traits@D@std@@V?$allocator@D@2@@std@@$$Z$$V@?$pair@$$CBV?$basic_string@DU?$char_traits@D@std@@V?$allocator@D@2@@std@@V12@@std@@QEAA@Upiecewise_construct_t@1@V?$tuple@$$QEAV?$basic_string@DU?$char_traits@D@std@@V?$allocator@D@2@@std@@@1@V?$tuple@$$V@1@@Z
	??$?0$$V@?$_Compressed_pair@V?$allocator@D@std@@V?$_String_val@U?$_Simple_types@D@std@@@2@$00@std@@QEAA@U_Zero_then_variadic_args_t@1@@Z
	??$?0$$V@?$_Compressed_pair@V?$allocator@H@std@@V?$_Vector_val@U?$_Simple_types@H@std@@@2@$00@std@@QEAA@U_Zero_then_variadic_args_t@1@@Z
	??$?0$$V@?$_Compressed_pair@V?$allocator@Uheap_entry@?$timer_queue@Uforwarding_posix_time_traits@detail@asio@boost@@@detail@asio@boost@@@std@@V?$_Vector_val@U?$_Simple_types@Uheap_entry@?$timer_queue@Uforwarding_posix_time_traits@detail@asio@boost@@@detail@asio@boost@@@std@@@2@$00@std@@QEAA@U_Zero_then_variadic_args_t@1@@Z
	??$?0$$V@?$_Compressed_pair@V?$allocator@Ulayer@?$standard_callbacks@V?$basic_ptree@V?$basic_string@DU?$char_traits@D@std@@V?$allocator@D@2@@std@@V12@U?$less@V?$basic_string@DU?$char_traits@D@std@@V?$allocator@D@2@@std@@@2@@property_tree@boost@@@detail@json_parser@property_tree@boost@@@std@@V?$_Vector_val@U?$_Simple_types@Ulayer@?$standard_callbacks@V?$basic_ptree@V?$basic_string@DU?$char_traits@D@std@@V?$allocator@D@2@@std@@V12@U?$less@V?$basic_string@DU?$char_traits@D@std@@V?$allocator@D@2@@std@@@2@@property_tree@boost@@@detail@json_parser@property_tree@boost@@@std@@@2@$00@std@@QEAA@U_Zero_then_variadic_args_t@1@@Z
	??$?0$$V@?$_Compressed_pair@V?$allocator@V?$basic_resolver_entry@Vtcp@ip@asio@boost@@@ip@asio@boost@@@std@@V?$_Vector_val@U?$_Simple_types@V?$basic_resolver_entry@Vtcp@ip@asio@boost@@@ip@asio@boost@@@std@@@2@$00@std@@QEAA@U_Zero_then_variadic_args_t@1@@Z
	??$?0$$V@?$_Compressed_pair@V?$allocator@V?$basic_string@DU?$char_traits@D@std@@V?$allocator@D@2@@std@@@std@@V?$_Vector_val@U?$_Simple_types@V?$basic_string@DU?$char_traits@D@std@@V?$allocator@D@2@@std@@@std@@@2@$00@std@@QEAA@U_Zero_then_variadic_args_t@1@@Z
	??$?0$$V@?$_Compressed_pair@V?$allocator@V?$function@$$A6AXV?$shared_ptr@VCallbackQuery@TgBot@@@std@@@Z@std@@@std@@V?$_Vector_val@U?$_Simple_types@V?$function@$$A6AXV?$shared_ptr@VCallbackQuery@TgBot@@@std@@@Z@std@@@std@@@2@$00@std@@QEAA@U_Zero_then_variadic_args_t@1@@Z
	??$?0$$V@?$_Compressed_pair@V?$allocator@V?$function@$$A6AXV?$shared_ptr@VChatJoinRequest@TgBot@@@std@@@Z@std@@@std@@V?$_Vector_val@U?$_Simple_types@V?$function@$$A6AXV?$shared_ptr@VChatJoinRequest@TgBot@@@std@@@Z@std@@@std@@@2@$00@std@@QEAA@U_Zero_then_variadic_args_t@1@@Z
	??$?0$$V@?$_Compressed_pair@V?$allocator@V?$function@$$A6AXV?$shared_ptr@VChatMemberUpdated@TgBot@@@std@@@Z@std@@@std@@V?$_Vector_val@U?$_Simple_types@V?$function@$$A6AXV?$shared_ptr@VChatMemberUpdated@TgBot@@@std@@@Z@std@@@std@@@2@$00@std@@QEAA@U_Zero_then_variadic_args_t@1@@Z
	??$?0$$V@?$_Compressed_pair@V?$allocator@V?$function@$$A6AXV?$shared_ptr@VChosenInlineResult@TgBot@@@std@@@Z@std@@@std@@V?$_Vector_val@U?$_Simple_types@V?$function@$$A6AXV?$shared_ptr@VChosenInlineResult@TgBot@@@std@@@Z@std@@@std@@@2@$00@std@@QEAA@U_Zero_then_variadic_args_t@1@@Z
	??$?0$$V@?$_Compressed_pair@V?$allocator@V?$function@$$A6AXV?$shared_ptr@VInlineQuery@TgBot@@@std@@@Z@std@@@std@@V?$_Vector_val@U?$_Simple_types@V?$function@$$A6AXV?$shared_ptr@VInlineQuery@TgBot@@@std@@@Z@std@@@std@@@2@$00@std@@QEAA@U_Zero_then_variadic_args_t@1@@Z
	??$?0$$V@?$_Compressed_pair@V?$allocator@V?$function@$$A6AXV?$shared_ptr@VMessage@TgBot@@@std@@@Z@std@@@std@@V?$_Vector_val@U?$_Simple_types@V?$function@$$A6AXV?$shared_ptr@VMessage@TgBot@@@std@@@Z@std@@@std@@@2@$00@std@@QEAA@U_Zero_then_variadic_args_t@1@@Z
	??$?0$$V@?$_Compressed_pair@V?$allocator@V?$function@$$A6AXV?$shared_ptr@VPoll@TgBot@@@std@@@Z@std@@@std@@V?$_Vector_val@U?$_Simple_types@V?$function@$$A6AXV?$shared_ptr@VPoll@TgBot@@@std@@@Z@std@@@std@@@2@$00@std@@QEAA@U_Zero_then_variadic_args_t@1@@Z
	??$?0$$V@?$_Compressed_pair@V?$allocator@V?$function@$$A6AXV?$shared_ptr@VPollAnswer@TgBot@@@std@@@Z@std@@@std@@V?$_Vector_val@U?$_Simple_types@V?$function@$$A6AXV?$shared_ptr@VPollAnswer@TgBot@@@std@@@Z@std@@@std@@@2@$00@std@@QEAA@U_Zero_then_variadic_args_t@1@@Z
	??$?0$$V@?$_Compressed_pair@V?$allocator@V?$function@$$A6AXV?$shared_ptr@VPreCheckoutQuery@TgBot@@@std@@@Z@std@@@std@@V?$_Vector_val@U?$_Simple_types@V?$function@$$A6AXV?$shared_ptr@VPreCheckoutQuery@TgBot@@@std@@@Z@std@@@std@@@2@$00@std@@QEAA@U_Zero_then_variadic_args_t@1@@Z
	??$?0$$V@?$_Compressed_pair@V?$allocator@V?$function@$$A6AXV?$shared_ptr@VShippingQuery@TgBot@@@std@@@Z@std@@@std@@V?$_Vector_val@U?$_Simple_types@V?$function@$$A6AXV?$shared_ptr@VShippingQuery@TgBot@@@std@@@Z@std@@@std@@@2@$00@std@@QEAA@U_Zero_then_variadic_args_t@1@@Z
	??$?0$$V@?$_Compressed_pair@V?$allocator@V?$shared_ptr@VBotCommand@TgBot@@@std@@@std@@V?$_Vector_val@U?$_Simple_types@V?$shared_ptr@VBotCommand@TgBot@@@std@@@std@@@2@$00@std@@QEAA@U_Zero_then_variadic_args_t@1@@Z
	??$?0$$V@?$_Compressed_pair@V?$allocator@V?$shared_ptr@VChatMember@TgBot@@@std@@@std@@V?$_Vector_val@U?$_Simple_types@V?$shared_ptr@VChatMember@TgBot@@@std@@@std@@@2@$00@std@@QEAA@U_Zero_then_variadic_args_t@1@@Z
	??$?0$$V@?$_Compressed_pair@V?$allocator@V?$shared_ptr@VEncryptedPassportElement@TgBot@@@std@@@std@@V?$_Vector_val@U?$_Simple_types@V?$shared_ptr@VEncryptedPassportElement@TgBot@@@std@@@std@@@2@$00@std@@QEAA@U_Zero_then_variadic_args_t@1@@Z
	??$?0$$V@?$_Compressed_pair@V?$allocator@V?$shared_ptr@VGameHighScore@TgBot@@@std@@@std@@V?$_Vector_val@U?$_Simple_types@V?$shared_ptr@VGameHighScore@TgBot@@@std@@@std@@@2@$00@std@@QEAA@U_Zero_then_variadic_args_t@1@@Z
	??$?0$$V@?$_Compressed_pair@V?$allocator@V?$shared_ptr@VInlineKeyboardButton@TgBot@@@std@@@std@@V?$_Vector_val@U?$_Simple_types@V?$shared_ptr@VInlineKeyboardButton@TgBot@@@std@@@std@@@2@$00@std@@QEAA@U_Zero_then_variadic_args_t@1@@Z
	??$?0$$V@?$_Compressed_pair@V?$allocator@V?$shared_ptr@VKeyboardButton@TgBot@@@std@@@std@@V?$_Vector_val@U?$_Simple_types@V?$shared_ptr@VKeyboardButton@TgBot@@@std@@@std@@@2@$00@std@@QEAA@U_Zero_then_variadic_args_t@1@@Z
	??$?0$$V@?$_Compressed_pair@V?$allocator@V?$shared_ptr@VLabeledPrice@TgBot@@@std@@@std@@V?$_Vector_val@U?$_Simple_types@V?$shared_ptr@VLabeledPrice@TgBot@@@std@@@std@@@2@$00@std@@QEAA@U_Zero_then_variadic_args_t@1@@Z
	??$?0$$V@?$_Compressed_pair@V?$allocator@V?$shared_ptr@VMessage@TgBot@@@std@@@std@@V?$_Vector_val@U?$_Simple_types@V?$shared_ptr@VMessage@TgBot@@@std@@@std@@@2@$00@std@@QEAA@U_Zero_then_variadic_args_t@1@@Z
	??$?0$$V@?$_Compressed_pair@V?$allocator@V?$shared_ptr@VMessageEntity@TgBot@@@std@@@std@@V?$_Vector_val@U?$_Simple_types@V?$shared_ptr@VMessageEntity@TgBot@@@std@@@std@@@2@$00@std@@QEAA@U_Zero_then_variadic_args_t@1@@Z
	??$?0$$V@?$_Compressed_pair@V?$allocator@V?$shared_ptr@VPassportFile@TgBot@@@std@@@std@@V?$_Vector_val@U?$_Simple_types@V?$shared_ptr@VPassportFile@TgBot@@@std@@@std@@@2@$00@std@@QEAA@U_Zero_then_variadic_args_t@1@@Z
	??$?0$$V@?$_Compressed_pair@V?$allocator@V?$shared_ptr@VPhotoSize@TgBot@@@std@@@std@@V?$_Vector_val@U?$_Simple_types@V?$shared_ptr@VPhotoSize@TgBot@@@std@@@std@@@2@$00@std@@QEAA@U_Zero_then_variadic_args_t@1@@Z
	??$?0$$V@?$_Compressed_pair@V?$allocator@V?$shared_ptr@VPollOption@TgBot@@@std@@@std@@V?$_Vector_val@U?$_Simple_types@V?$shared_ptr@VPollOption@TgBot@@@std@@@std@@@2@$00@std@@QEAA@U_Zero_then_variadic_args_t@1@@Z
	??$?0$$V@?$_Compressed_pair@V?$allocator@V?$shared_ptr@VSticker@TgBot@@@std@@@std@@V?$_Vector_val@U?$_Simple_types@V?$shared_ptr@VSticker@TgBot@@@std@@@std@@@2@$00@std@@QEAA@U_Zero_then_variadic_args_t@1@@Z
	??$?0$$V@?$_Compressed_pair@V?$allocator@V?$shared_ptr@VUpdate@TgBot@@@std@@@std@@V?$_Vector_val@U?$_Simple_types@V?$shared_ptr@VUpdate@TgBot@@@std@@@std@@@2@$00@std@@QEAA@U_Zero_then_variadic_args_t@1@@Z
	??$?0$$V@?$_Compressed_pair@V?$allocator@V?$shared_ptr@VUser@TgBot@@@std@@@std@@V?$_Vector_val@U?$_Simple_types@V?$shared_ptr@VUser@TgBot@@@std@@@std@@@2@$00@std@@QEAA@U_Zero_then_variadic_args_t@1@@Z
	??$?0$$V@?$_Compressed_pair@V?$allocator@V?$vector@V?$shared_ptr@VInlineKeyboardButton@TgBot@@@std@@V?$allocator@V?$shared_ptr@VInlineKeyboardButton@TgBot@@@std@@@2@@std@@@std@@V?$_Vector_val@U?$_Simple_types@V?$vector@V?$shared_ptr@VInlineKeyboardButton@TgBot@@@std@@V?$allocator@V?$shared_ptr@VInlineKeyboardButton@TgBot@@@std@@@2@@std@@@std@@@2@$00@std@@QEAA@U_Zero_then_variadic_args_t@1@@Z
	??$?0$$V@?$_Compressed_pair@V?$allocator@V?$vector@V?$shared_ptr@VKeyboardButton@TgBot@@@std@@V?$allocator@V?$shared_ptr@VKeyboardButton@TgBot@@@std@@@2@@std@@@std@@V?$_Vector_val@U?$_Simple_types@V?$vector@V?$shared_ptr@VKeyboardButton@TgBot@@@std@@V?$allocator@V?$shared_ptr@VKeyboardButton@TgBot@@@std@@@2@@std@@@std@@@2@$00@std@@QEAA@U_Zero_then_variadic_args_t@1@@Z
	??$?0$$V@?$_Compressed_pair@V?$allocator@V?$vector@V?$shared_ptr@VPhotoSize@TgBot@@@std@@V?$allocator@V?$shared_ptr@VPhotoSize@TgBot@@@std@@@2@@std@@@std@@V?$_Vector_val@U?$_Simple_types@V?$vector@V?$shared_ptr@VPhotoSize@TgBot@@@std@@V?$allocator@V?$shared_ptr@VPhotoSize@TgBot@@@std@@@2@@std@@@std@@@2@$00@std@@QEAA@U_Zero_then_variadic_args_t@1@@Z
	??$?0$$V@?$_Compressed_pair@V?$allocator@VHttpReqArg@TgBot@@@std@@V?$_Vector_val@U?$_Simple_types@VHttpReqArg@TgBot@@@std@@@2@$00@std@@QEAA@U_Zero_then_variadic_args_t@1@@Z
	??$?0$$V@?$_Compressed_pair@V?$allocator@_W@std@@V?$_String_val@U?$_Simple_types@_W@std@@@2@$00@std@@QEAA@U_Zero_then_variadic_args_t@1@@Z
	??$?0$$V@?$_Ref_count_obj2@VAnimation@TgBot@@@std@@QEAA@XZ
	??$?0$$V@?$_Ref_count_obj2@VAudio@TgBot@@@std@@QEAA@XZ
	??$?0$$V@?$_Ref_count_obj2@VBotCommand@TgBot@@@std@@QEAA@XZ
	??$?0$$V@?$_Ref_count_obj2@VBotCommandScope@TgBot@@@std@@QEAA@XZ
	??$?0$$V@?$_Ref_count_obj2@VBotCommandScopeAllChatAdministrators@TgBot@@@std@@QEAA@XZ
	??$?0$$V@?$_Ref_count_obj2@VBotCommandScopeAllGroupChats@TgBot@@@std@@QEAA@XZ
	??$?0$$V@?$_Ref_count_obj2@VBotCommandScopeAllPrivateChats@TgBot@@@std@@QEAA@XZ
	??$?0$$V@?$_Ref_count_obj2@VBotCommandScopeChat@TgBot@@@std@@QEAA@XZ
	??$?0$$V@?$_Ref_count_obj2@VBotCommandScopeChatAdministrators@TgBot@@@std@@QEAA@XZ
	??$?0$$V@?$_Ref_count_obj2@VBotCommandScopeChatMember@TgBot@@@std@@QEAA@XZ
	??$?0$$V@?$_Ref_count_obj2@VBotCommandScopeDefault@TgBot@@@std@@QEAA@XZ
	??$?0$$V@?$_Ref_count_obj2@VCallbackGame@TgBot@@@std@@QEAA@XZ
	??$?0$$V@?$_Ref_count_obj2@VCallbackQuery@TgBot@@@std@@QEAA@XZ
	??$?0$$V@?$_Ref_count_obj2@VChat@TgBot@@@std@@QEAA@XZ
	??$?0$$V@?$_Ref_count_obj2@VChatAdministratorRights@TgBot@@@std@@QEAA@XZ
	??$?0$$V@?$_Ref_count_obj2@VChatInviteLink@TgBot@@@std@@QEAA@XZ
	??$?0$$V@?$_Ref_count_obj2@VChatJoinRequest@TgBot@@@std@@QEAA@XZ
	??$?0$$V@?$_Ref_count_obj2@VChatLocation@TgBot@@@std@@QEAA@XZ
	??$?0$$V@?$_Ref_count_obj2@VChatMember@TgBot@@@std@@QEAA@XZ
	??$?0$$V@?$_Ref_count_obj2@VChatMemberAdministrator@TgBot@@@std@@QEAA@XZ
	??$?0$$V@?$_Ref_count_obj2@VChatMemberBanned@TgBot@@@std@@QEAA@XZ
	??$?0$$V@?$_Ref_count_obj2@VChatMemberLeft@TgBot@@@std@@QEAA@XZ
	??$?0$$V@?$_Ref_count_obj2@VChatMemberMember@TgBot@@@std@@QEAA@XZ
	??$?0$$V@?$_Ref_count_obj2@VChatMemberOwner@TgBot@@@std@@QEAA@XZ
	??$?0$$V@?$_Ref_count_obj2@VChatMemberRestricted@TgBot@@@std@@QEAA@XZ
	??$?0$$V@?$_Ref_count_obj2@VChatMemberUpdated@TgBot@@@std@@QEAA@XZ
	??$?0$$V@?$_Ref_count_obj2@VChatPermissions@TgBot@@@std@@QEAA@XZ
	??$?0$$V@?$_Ref_count_obj2@VChatPhoto@TgBot@@@std@@QEAA@XZ
	??$?0$$V@?$_Ref_count_obj2@VChatShared@TgBot@@@std@@QEAA@XZ
	??$?0$$V@?$_Ref_count_obj2@VChosenInlineResult@TgBot@@@std@@QEAA@XZ
	??$?0$$V@?$_Ref_count_obj2@VContact@TgBot@@@std@@QEAA@XZ
	??$?0$$V@?$_Ref_count_obj2@VDice@TgBot@@@std@@QEAA@XZ
	??$?0$$V@?$_Ref_count_obj2@VDocument@TgBot@@@std@@QEAA@XZ
	??$?0$$V@?$_Ref_count_obj2@VEncryptedCredentials@TgBot@@@std@@QEAA@XZ
	??$?0$$V@?$_Ref_count_obj2@VEncryptedPassportElement@TgBot@@@std@@QEAA@XZ
	??$?0$$V@?$_Ref_count_obj2@VFile@TgBot@@@std@@QEAA@XZ
	??$?0$$V@?$_Ref_count_obj2@VForceReply@TgBot@@@std@@QEAA@XZ
	??$?0$$V@?$_Ref_count_obj2@VForumTopic@TgBot@@@std@@QEAA@XZ
	??$?0$$V@?$_Ref_count_obj2@VForumTopicClosed@TgBot@@@std@@QEAA@XZ
	??$?0$$V@?$_Ref_count_obj2@VForumTopicCreated@TgBot@@@std@@QEAA@XZ
	??$?0$$V@?$_Ref_count_obj2@VForumTopicEdited@TgBot@@@std@@QEAA@XZ
	??$?0$$V@?$_Ref_count_obj2@VForumTopicReopened@TgBot@@@std@@QEAA@XZ
	??$?0$$V@?$_Ref_count_obj2@VGame@TgBot@@@std@@QEAA@XZ
	??$?0$$V@?$_Ref_count_obj2@VGameHighScore@TgBot@@@std@@QEAA@XZ
	??$?0$$V@?$_Ref_count_obj2@VGeneralForumTopicHidden@TgBot@@@std@@QEAA@XZ
	??$?0$$V@?$_Ref_count_obj2@VGeneralForumTopicUnhidden@TgBot@@@std@@QEAA@XZ
	??$?0$$V@?$_Ref_count_obj2@VGenericReply@TgBot@@@std@@QEAA@XZ
	??$?0$$V@?$_Ref_count_obj2@VInlineKeyboardButton@TgBot@@@std@@QEAA@XZ
	??$?0$$V@?$_Ref_count_obj2@VInlineKeyboardMarkup@TgBot@@@std@@QEAA@XZ
	??$?0$$V@?$_Ref_count_obj2@VInlineQuery@TgBot@@@std@@QEAA@XZ
	??$?0$$V@?$_Ref_count_obj2@VInlineQueryResult@TgBot@@@std@@QEAA@XZ
	??$?0$$V@?$_Ref_count_obj2@VInlineQueryResultArticle@TgBot@@@std@@QEAA@XZ
	??$?0$$V@?$_Ref_count_obj2@VInlineQueryResultAudio@TgBot@@@std@@QEAA@XZ
	??$?0$$V@?$_Ref_count_obj2@VInlineQueryResultCachedAudio@TgBot@@@std@@QEAA@XZ
	??$?0$$V@?$_Ref_count_obj2@VInlineQueryResultCachedDocument@TgBot@@@std@@QEAA@XZ
	??$?0$$V@?$_Ref_count_obj2@VInlineQueryResultCachedGif@TgBot@@@std@@QEAA@XZ
	??$?0$$V@?$_Ref_count_obj2@VInlineQueryResultCachedMpeg4Gif@TgBot@@@std@@QEAA@XZ
	??$?0$$V@?$_Ref_count_obj2@VInlineQueryResultCachedPhoto@TgBot@@@std@@QEAA@XZ
	??$?0$$V@?$_Ref_count_obj2@VInlineQueryResultCachedSticker@TgBot@@@std@@QEAA@XZ
	??$?0$$V@?$_Ref_count_obj2@VInlineQueryResultCachedVideo@TgBot@@@std@@QEAA@XZ
	??$?0$$V@?$_Ref_count_obj2@VInlineQueryResultCachedVoice@TgBot@@@std@@QEAA@XZ
	??$?0$$V@?$_Ref_count_obj2@VInlineQueryResultContact@TgBot@@@std@@QEAA@XZ
	??$?0$$V@?$_Ref_count_obj2@VInlineQueryResultDocument@TgBot@@@std@@QEAA@XZ
	??$?0$$V@?$_Ref_count_obj2@VInlineQueryResultGame@TgBot@@@std@@QEAA@XZ
	??$?0$$V@?$_Ref_count_obj2@VInlineQueryResultGif@TgBot@@@std@@QEAA@XZ
	??$?0$$V@?$_Ref_count_obj2@VInlineQueryResultLocation@TgBot@@@std@@QEAA@XZ
	??$?0$$V@?$_Ref_count_obj2@VInlineQueryResultMpeg4Gif@TgBot@@@std@@QEAA@XZ
	??$?0$$V@?$_Ref_count_obj2@VInlineQueryResultPhoto@TgBot@@@std@@QEAA@XZ
	??$?0$$V@?$_Ref_count_obj2@VInlineQueryResultVenue@TgBot@@@std@@QEAA@XZ
	??$?0$$V@?$_Ref_count_obj2@VInlineQueryResultVideo@TgBot@@@std@@QEAA@XZ
	??$?0$$V@?$_Ref_count_obj2@VInlineQueryResultVoice@TgBot@@@std@@QEAA@XZ
	??$?0$$V@?$_Ref_count_obj2@VInputContactMessageContent@TgBot@@@std@@QEAA@XZ
	??$?0$$V@?$_Ref_count_obj2@VInputFile@TgBot@@@std@@QEAA@XZ
	??$?0$$V@?$_Ref_count_obj2@VInputInvoiceMessageContent@TgBot@@@std@@QEAA@XZ
	??$?0$$V@?$_Ref_count_obj2@VInputLocationMessageContent@TgBot@@@std@@QEAA@XZ
	??$?0$$V@?$_Ref_count_obj2@VInputMedia@TgBot@@@std@@QEAA@XZ
	??$?0$$V@?$_Ref_count_obj2@VInputMediaAnimation@TgBot@@@std@@QEAA@XZ
	??$?0$$V@?$_Ref_count_obj2@VInputMediaAudio@TgBot@@@std@@QEAA@XZ
	??$?0$$V@?$_Ref_count_obj2@VInputMediaDocument@TgBot@@@std@@QEAA@XZ
	??$?0$$V@?$_Ref_count_obj2@VInputMediaPhoto@TgBot@@@std@@QEAA@XZ
	??$?0$$V@?$_Ref_count_obj2@VInputMediaVideo@TgBot@@@std@@QEAA@XZ
	??$?0$$V@?$_Ref_count_obj2@VInputMessageContent@TgBot@@@std@@QEAA@XZ
	??$?0$$V@?$_Ref_count_obj2@VInputTextMessageContent@TgBot@@@std@@QEAA@XZ
	??$?0$$V@?$_Ref_count_obj2@VInputVenueMessageContent@TgBot@@@std@@QEAA@XZ
	??$?0$$V@?$_Ref_count_obj2@VInvoice@TgBot@@@std@@QEAA@XZ
	??$?0$$V@?$_Ref_count_obj2@VKeyboardButton@TgBot@@@std@@QEAA@XZ
	??$?0$$V@?$_Ref_count_obj2@VKeyboardButtonPollType@TgBot@@@std@@QEAA@XZ
	??$?0$$V@?$_Ref_count_obj2@VKeyboardButtonRequestChat@TgBot@@@std@@QEAA@XZ
	??$?0$$V@?$_Ref_count_obj2@VKeyboardButtonRequestUser@TgBot@@@std@@QEAA@XZ
	??$?0$$V@?$_Ref_count_obj2@VLabeledPrice@TgBot@@@std@@QEAA@XZ
	??$?0$$V@?$_Ref_count_obj2@VLocation@TgBot@@@std@@QEAA@XZ
	??$?0$$V@?$_Ref_count_obj2@VLoginUrl@TgBot@@@std@@QEAA@XZ
	??$?0$$V@?$_Ref_count_obj2@VMaskPosition@TgBot@@@std@@QEAA@XZ
	??$?0$$V@?$_Ref_count_obj2@VMenuButton@TgBot@@@std@@QEAA@XZ
	??$?0$$V@?$_Ref_count_obj2@VMenuButtonCommands@TgBot@@@std@@QEAA@XZ
	??$?0$$V@?$_Ref_count_obj2@VMenuButtonDefault@TgBot@@@std@@QEAA@XZ
	??$?0$$V@?$_Ref_count_obj2@VMenuButtonWebApp@TgBot@@@std@@QEAA@XZ
	??$?0$$V@?$_Ref_count_obj2@VMessage@TgBot@@@std@@QEAA@XZ
	??$?0$$V@?$_Ref_count_obj2@VMessageAutoDeleteTimerChanged@TgBot@@@std@@QEAA@XZ
	??$?0$$V@?$_Ref_count_obj2@VMessageEntity@TgBot@@@std@@QEAA@XZ
	??$?0$$V@?$_Ref_count_obj2@VMessageId@TgBot@@@std@@QEAA@XZ
	??$?0$$V@?$_Ref_count_obj2@VOrderInfo@TgBot@@@std@@QEAA@XZ
	??$?0$$V@?$_Ref_count_obj2@VPassportData@TgBot@@@std@@QEAA@XZ
	??$?0$$V@?$_Ref_count_obj2@VPassportElementError@TgBot@@@std@@QEAA@XZ
	??$?0$$V@?$_Ref_count_obj2@VPassportElementErrorDataField@TgBot@@@std@@QEAA@XZ
	??$?0$$V@?$_Ref_count_obj2@VPassportElementErrorFile@TgBot@@@std@@QEAA@XZ
	??$?0$$V@?$_Ref_count_obj2@VPassportElementErrorFiles@TgBot@@@std@@QEAA@XZ
	??$?0$$V@?$_Ref_count_obj2@VPassportElementErrorFrontSide@TgBot@@@std@@QEAA@XZ
	??$?0$$V@?$_Ref_count_obj2@VPassportElementErrorReverseSide@TgBot@@@std@@QEAA@XZ
	??$?0$$V@?$_Ref_count_obj2@VPassportElementErrorSelfie@TgBot@@@std@@QEAA@XZ
	??$?0$$V@?$_Ref_count_obj2@VPassportElementErrorTranslationFile@TgBot@@@std@@QEAA@XZ
	??$?0$$V@?$_Ref_count_obj2@VPassportElementErrorTranslationFiles@TgBot@@@std@@QEAA@XZ
	??$?0$$V@?$_Ref_count_obj2@VPassportElementErrorUnspecified@TgBot@@@std@@QEAA@XZ
	??$?0$$V@?$_Ref_count_obj2@VPassportFile@TgBot@@@std@@QEAA@XZ
	??$?0$$V@?$_Ref_count_obj2@VPhotoSize@TgBot@@@std@@QEAA@XZ
	??$?0$$V@?$_Ref_count_obj2@VPoll@TgBot@@@std@@QEAA@XZ
	??$?0$$V@?$_Ref_count_obj2@VPollAnswer@TgBot@@@std@@QEAA@XZ
	??$?0$$V@?$_Ref_count_obj2@VPollOption@TgBot@@@std@@QEAA@XZ
	??$?0$$V@?$_Ref_count_obj2@VPreCheckoutQuery@TgBot@@@std@@QEAA@XZ
	??$?0$$V@?$_Ref_count_obj2@VProximityAlertTriggered@TgBot@@@std@@QEAA@XZ
	??$?0$$V@?$_Ref_count_obj2@VReplyKeyboardMarkup@TgBot@@@std@@QEAA@XZ
	??$?0$$V@?$_Ref_count_obj2@VReplyKeyboardRemove@TgBot@@@std@@QEAA@XZ
	??$?0$$V@?$_Ref_count_obj2@VResponseParameters@TgBot@@@std@@QEAA@XZ
	??$?0$$V@?$_Ref_count_obj2@VSentWebAppMessage@TgBot@@@std@@QEAA@XZ
	??$?0$$V@?$_Ref_count_obj2@VShippingOption@TgBot@@@std@@QEAA@XZ
	??$?0$$V@?$_Ref_count_obj2@VShippingQuery@TgBot@@@std@@QEAA@XZ
	??$?0$$V@?$_Ref_count_obj2@VSticker@TgBot@@@std@@QEAA@XZ
	??$?0$$V@?$_Ref_count_obj2@VStickerSet@TgBot@@@std@@QEAA@XZ
	??$?0$$V@?$_Ref_count_obj2@VSuccessfulPayment@TgBot@@@std@@QEAA@XZ
	??$?0$$V@?$_Ref_count_obj2@VUpdate@TgBot@@@std@@QEAA@XZ
	??$?0$$V@?$_Ref_count_obj2@VUser@TgBot@@@std@@QEAA@XZ
	??$?0$$V@?$_Ref_count_obj2@VUserProfilePhotos@TgBot@@@std@@QEAA@XZ
	??$?0$$V@?$_Ref_count_obj2@VUserShared@TgBot@@@std@@QEAA@XZ
	??$?0$$V@?$_Ref_count_obj2@VVenue@TgBot@@@std@@QEAA@XZ
	??$?0$$V@?$_Ref_count_obj2@VVideo@TgBot@@@std@@QEAA@XZ
	??$?0$$V@?$_Ref_count_obj2@VVideoChatEnded@TgBot@@@std@@QEAA@XZ
	??$?0$$V@?$_Ref_count_obj2@VVideoChatParticipantsInvited@TgBot@@@std@@QEAA@XZ
	??$?0$$V@?$_Ref_count_obj2@VVideoChatScheduled@TgBot@@@std@@QEAA@XZ
	??$?0$$V@?$_Ref_count_obj2@VVideoChatStarted@TgBot@@@std@@QEAA@XZ
	??$?0$$V@?$_Ref_count_obj2@VVideoNote@TgBot@@@std@@QEAA@XZ
	??$?0$$V@?$_Ref_count_obj2@VVoice@TgBot@@@std@@QEAA@XZ
	??$?0$$V@?$_Ref_count_obj2@VWebAppData@TgBot@@@std@@QEAA@XZ
	??$?0$$V@?$_Ref_count_obj2@VWebAppInfo@TgBot@@@std@@QEAA@XZ
	??$?0$$V@?$_Ref_count_obj2@VWebhookInfo@TgBot@@@std@@QEAA@XZ
	??$?0$$V@?$_Ref_count_obj2@VWriteAccessAllowed@TgBot@@@std@@QEAA@XZ
	??$?0AEAD$0A@@?$tuple@AEAD@std@@QEAA@AEAD@Z
	??$?0AEAD@?$_Tuple_val@AEAD@std@@QEAA@AEAD@Z
	??$?0AEAE$0A@@?$tuple@AEAE@std@@QEAA@AEAE@Z
	??$?0AEAE@?$_Tuple_val@AEAE@std@@QEAA@AEAE@Z
	??$?0AEAPEAU?$_List_node@U?$pair@$$CBV?$basic_string@DU?$char_traits@D@std@@V?$allocator@D@2@@std@@V12@@std@@PEAX@std@@_N$0A@@?$pair@PEAU?$_List_node@U?$pair@$$CBV?$basic_string@DU?$char_traits@D@std@@V?$allocator@D@2@@std@@V12@@std@@PEAX@std@@_N@std@@QEAA@AEAPEAU?$_List_node@U?$pair@$$CBV?$basic_string@DU?$char_traits@D@std@@V?$allocator@D@2@@std@@V12@@std@@PEAX@1@$$QEA_N@Z
	??$?0AEAPEAU?$_List_node@U?$pair@$$CBV?$basic_string@DU?$char_traits@D@std@@V?$allocator@D@2@@std@@V?$function@$$A6AXV?$shared_ptr@VMessage@TgBot@@@std@@@Z@2@@std@@PEAX@std@@_N$0A@@?$pair@PEAU?$_List_node@U?$pair@$$CBV?$basic_string@DU?$char_traits@D@std@@V?$allocator@D@2@@std@@V?$function@$$A6AXV?$shared_ptr@VMessage@TgBot@@@std@@@Z@2@@std@@PEAX@std@@_N@std@@QEAA@AEAPEAU?$_List_node@U?$pair@$$CBV?$basic_string@DU?$char_traits@D@std@@V?$allocator@D@2@@std@@V?$function@$$A6AXV?$shared_ptr@VMessage@TgBot@@@std@@@Z@2@@std@@PEAX@1@$$QEA_N@Z
	??$?0AEAPEAU?$copy_map_entry@U?$sequenced_index_node@U?$ordered_index_node@Unull_augment_policy@detail@multi_index@boost@@U?$index_node_base@U?$pair@$$CBV?$basic_string@DU?$char_traits@D@std@@V?$allocator@D@2@@std@@V?$basic_ptree@V?$basic_string@DU?$char_traits@D@std@@V?$allocator@D@2@@std@@V12@U?$less@V?$basic_string@DU?$char_traits@D@std@@V?$allocator@D@2@@std@@@2@@property_tree@boost@@@std@@V?$allocator@U?$pair@$$CBV?$basic_string@DU?$char_traits@D@std@@V?$allocator@D@2@@std@@V?$basic_ptree@V?$basic_string@DU?$char_traits@D@std@@V?$allocator@D@2@@std@@V12@U?$less@V?$basic_string@DU?$char_traits@D@std@@V?$allocator@D@2@@std@@@2@@property_tree@boost@@@std@@@2@@234@@detail@multi_index@boost@@@detail@multi_index@boost@@@detail@multi_index@boost@@AEAPEAU0123@$0A@@?$pair@PEAU?$copy_map_entry@U?$sequenced_index_node@U?$ordered_index_node@Unull_augment_policy@detail@multi_index@boost@@U?$index_node_base@U?$pair@$$CBV?$basic_string@DU?$char_traits@D@std@@V?$allocator@D@2@@std@@V?$basic_ptree@V?$basic_string@DU?$char_traits@D@std@@V?$allocator@D@2@@std@@V12@U?$less@V?$basic_string@DU?$char_traits@D@std@@V?$allocator@D@2@@std@@@2@@property_tree@boost@@@std@@V?$allocator@U?$pair@$$CBV?$basic_string@DU?$char_traits@D@std@@V?$allocator@D@2@@std@@V?$basic_ptree@V?$basic_string@DU?$char_traits@D@std@@V?$allocator@D@2@@std@@V12@U?$less@V?$basic_string@DU?$char_traits@D@std@@V?$allocator@D@2@@std@@@2@@property_tree@boost@@@std@@@2@@234@@detail@multi_index@boost@@@detail@multi_index@boost@@@detail@multi_index@boost@@PEAU1234@@std@@QEAA@AEAPEAU?$copy_map_entry@U?$sequenced_index_node@U?$ordered_index_node@Unull_augment_policy@detail@multi_index@boost@@U?$index_node_base@U?$pair@$$CBV?$basic_string@DU?$char_traits@D@std@@V?$allocator@D@2@@std@@V?$basic_ptree@V?$basic_string@DU?$char_traits@D@std@@V?$allocator@D@2@@std@@V12@U?$less@V?$basic_string@DU?$char_traits@D@std@@V?$allocator@D@2@@std@@@2@@property_tree@boost@@@std@@V?$allocator@U?$pair@$$CBV?$basic_string@DU?$char_traits@D@std@@V?$allocator@D@2@@std@@V?$basic_ptree@V?$basic_string@DU?$char_traits@D@std@@V?$allocator@D@2@@std@@V12@U?$less@V?$basic_string@DU?$char_traits@D@std@@V?$allocator@D@2@@std@@@2@@property_tree@boost@@@std@@@2@@234@@detail@multi_index@boost@@@detail@multi_index@boost@@@detail@multi_index@boost@@0@Z
	??$?0AEAPEAU?$sequenced_index_node@U?$ordered_index_node@Unull_augment_policy@detail@multi_index@boost@@U?$index_node_base@U?$pair@$$CBV?$basic_string@DU?$char_traits@D@std@@V?$allocator@D@2@@std@@V?$basic_ptree@V?$basic_string@DU?$char_traits@D@std@@V?$allocator@D@2@@std@@V12@U?$less@V?$basic_string@DU?$char_traits@D@std@@V?$allocator@D@2@@std@@@2@@property_tree@boost@@@std@@V?$allocator@U?$pair@$$CBV?$basic_string@DU?$char_traits@D@std@@V?$allocator@D@2@@std@@V?$basic_ptree@V?$basic_string@DU?$char_traits@D@std@@V?$allocator@D@2@@std@@V12@U?$less@V?$basic_string@DU?$char_traits@D@std@@V?$allocator@D@2@@std@@@2@@property_tree@boost@@@std@@@2@@234@@detail@multi_index@boost@@@detail@multi_index@boost@@_N$0A@@?$pair@PEAU?$sequenced_index_node@U?$ordered_index_node@Unull_augment_policy@detail@multi_index@boost@@U?$index_node_base@U?$pair@$$CBV?$basic_string@DU?$char_traits@D@std@@V?$allocator@D@2@@std@@V?$basic_ptree@V?$basic_string@DU?$char_traits@D@std@@V?$allocator@D@2@@std@@V12@U?$less@V?$basic_string@DU?$char_traits@D@std@@V?$allocator@D@2@@std@@@2@@property_tree@boost@@@std@@V?$allocator@U?$pair@$$CBV?$basic_string@DU?$char_traits@D@std@@V?$allocator@D@2@@std@@V?$basic_ptree@V?$basic_string@DU?$char_traits@D@std@@V?$allocator@D@2@@std@@V12@U?$less@V?$basic_string@DU?$char_traits@D@std@@V?$allocator@D@2@@std@@@2@@property_tree@boost@@@std@@@2@@234@@detail@multi_index@boost@@@detail@multi_index@boost@@_N@std@@QEAA@AEAPEAU?$sequenced_index_node@U?$ordered_index_node@Unull_augment_policy@detail@multi_index@boost@@U?$index_node_base@U?$pair@$$CBV?$basic_string@DU?$char_traits@D@std@@V?$allocator@D@2@@std@@V?$basic_ptree@V?$basic_string@DU?$char_traits@D@std@@V?$allocator@D@2@@std@@V12@U?$less@V?$basic_string@DU?$char_traits@D@std@@V?$allocator@D@2@@std@@@2@@property_tree@boost@@@std@@V?$allocator@U?$pair@$$CBV?$basic_string@DU?$char_traits@D@std@@V?$allocator@D@2@@std@@V?$basic_ptree@V?$basic_string@DU?$char_traits@D@std@@V?$allocator@D@2@@std@@V12@U?$less@V?$basic_string@DU?$char_traits@D@std@@V?$allocator@D@2@@std@@@2@@property_tree@boost@@@std@@@2@@234@@detail@multi_index@boost@@@detail@multi_index@boost@@$$QEA_N@Z
	??$?0AEAPEAVEventBroadcaster@TgBot@@@?$_Compressed_pair@U?$default_delete@VEventBroadcaster@TgBot@@@std@@PEAVEventBroadcaster@TgBot@@$00@std@@QEAA@U_Zero_then_variadic_args_t@1@AEAPEAVEventBroadcaster@TgBot@@@Z
	??$?0AEAPEAV_Facet_base@std@@@?$_Compressed_pair@U?$default_delete@V_Facet_base@std@@@std@@PEAV_Facet_base@2@$00@std@@QEAA@U_Zero_then_variadic_args_t@1@AEAPEAV_Facet_base@1@@Z
	??$?0AEAU?$arg@$00@boost@@@?$_Tuple_val@U?$arg@$00@boost@@@std@@QEAA@AEAU?$arg@$00@boost@@@Z
	??$?0AEAV?$allocator@D@std@@$$V@?$_Compressed_pair@V?$allocator@D@std@@V?$_String_val@U?$_Simple_types@D@std@@@2@$00@std@@QEAA@U_One_then_variadic_args_t@1@AEAV?$allocator@D@1@@Z
	??$?0AEAV?$basic_string@DU?$char_traits@D@std@@V?$allocator@D@2@@std@@V?$basic_ptree@V?$basic_string@DU?$char_traits@D@std@@V?$allocator@D@2@@std@@V12@U?$less@V?$basic_string@DU?$char_traits@D@std@@V?$allocator@D@2@@std@@@2@@property_tree@boost@@$0A@@?$pair@V?$basic_string@DU?$char_traits@D@std@@V?$allocator@D@2@@std@@V?$basic_ptree@V?$basic_string@DU?$char_traits@D@std@@V?$allocator@D@2@@std@@V12@U?$less@V?$basic_string@DU?$char_traits@D@std@@V?$allocator@D@2@@std@@@2@@property_tree@boost@@@std@@QEAA@AEAV?$basic_string@DU?$char_traits@D@std@@V?$allocator@D@2@@1@$$QEAV?$basic_ptree@V?$basic_string@DU?$char_traits@D@std@@V?$allocator@D@2@@std@@V12@U?$less@V?$basic_string@DU?$char_traits@D@std@@V?$allocator@D@2@@std@@@2@@property_tree@boost@@@Z
	??$?0AEAV?$reference_wrapper@V?$standard_callbacks@V?$basic_ptree@V?$basic_string@DU?$char_traits@D@std@@V?$allocator@D@2@@std@@V12@U?$less@V?$basic_string@DU?$char_traits@D@std@@V?$allocator@D@2@@std@@@2@@property_tree@boost@@@detail@json_parser@property_tree@boost@@@boost@@@?$_Tuple_val@V?$reference_wrapper@V?$standard_callbacks@V?$basic_ptree@V?$basic_string@DU?$char_traits@D@std@@V?$allocator@D@2@@std@@V12@U?$less@V?$basic_string@DU?$char_traits@D@std@@V?$allocator@D@2@@std@@@2@@property_tree@boost@@@detail@json_parser@property_tree@boost@@@boost@@@std@@QEAA@AEAV?$reference_wrapper@V?$standard_callbacks@V?$basic_ptree@V?$basic_string@DU?$char_traits@D@std@@V?$allocator@D@2@@std@@V12@U?$less@V?$basic_string@DU?$char_traits@D@std@@V?$allocator@D@2@@std@@@2@@property_tree@boost@@@detail@json_parser@property_tree@boost@@@boost@@@Z
	??$?0AEAV?$reference_wrapper@V?$standard_callbacks@V?$basic_ptree@V?$basic_string@DU?$char_traits@D@std@@V?$allocator@D@2@@std@@V12@U?$less@V?$basic_string@DU?$char_traits@D@std@@V?$allocator@D@2@@std@@@2@@property_tree@boost@@@detail@json_parser@property_tree@boost@@@boost@@AEAU?$arg@$00@1@$0A@@?$tuple@V?$reference_wrapper@V?$standard_callbacks@V?$basic_ptree@V?$basic_string@DU?$char_traits@D@std@@V?$allocator@D@2@@std@@V12@U?$less@V?$basic_string@DU?$char_traits@D@std@@V?$allocator@D@2@@std@@@2@@property_tree@boost@@@detail@json_parser@property_tree@boost@@@boost@@U?$arg@$00@2@@std@@QEAA@AEAV?$reference_wrapper@V?$standard_callbacks@V?$basic_ptree@V?$basic_string@DU?$char_traits@D@std@@V?$allocator@D@2@@std@@V12@U?$less@V?$basic_string@DU?$char_traits@D@std@@V?$allocator@D@2@@std@@@2@@property_tree@boost@@@detail@json_parser@property_tree@boost@@@boost@@AEAU?$arg@$00@3@@Z
	??$?0AEAV?$value@PEAV?$parser@V?$standard_callbacks@V?$basic_ptree@V?$basic_string@DU?$char_traits@D@std@@V?$allocator@D@2@@std@@V12@U?$less@V?$basic_string@DU?$char_traits@D@std@@V?$allocator@D@2@@std@@@2@@property_tree@boost@@@detail@json_parser@property_tree@boost@@U?$encoding@D@2345@V?$istreambuf_iterator@DU?$char_traits@D@std@@@std@@V78@@detail@json_parser@property_tree@boost@@@_bi@boost@@@?$_Tuple_val@V?$value@PEAV?$parser@V?$standard_callbacks@V?$basic_ptree@V?$basic_string@DU?$char_traits@D@std@@V?$allocator@D@2@@std@@V12@U?$less@V?$basic_string@DU?$char_traits@D@std@@V?$allocator@D@2@@std@@@2@@property_tree@boost@@@detail@json_parser@property_tree@boost@@U?$encoding@D@2345@V?$istreambuf_iterator@DU?$char_traits@D@std@@@std@@V78@@detail@json_parser@property_tree@boost@@@_bi@boost@@@std@@QEAA@AEAV?$value@PEAV?$parser@V?$standard_callbacks@V?$basic_ptree@V?$basic_string@DU?$char_traits@D@std@@V?$allocator@D@2@@std@@V12@U?$less@V?$basic_string@DU?$char_traits@D@std@@V?$allocator@D@2@@std@@@2@@property_tree@boost@@@detail@json_parser@property_tree@boost@@U?$encoding@D@2345@V?$istreambuf_iterator@DU?$char_traits@D@std@@@std@@V78@@detail@json_parser@property_tree@boost@@@_bi@boost@@@Z
	??$?0AEAV?$value@PEAV?$parser@V?$standard_callbacks@V?$basic_ptree@V?$basic_string@DU?$char_traits@D@std@@V?$allocator@D@2@@std@@V12@U?$less@V?$basic_string@DU?$char_traits@D@std@@V?$allocator@D@2@@std@@@2@@property_tree@boost@@@detail@json_parser@property_tree@boost@@U?$encoding@D@2345@V?$istreambuf_iterator@DU?$char_traits@D@std@@@std@@V78@@detail@json_parser@property_tree@boost@@@_bi@boost@@AEAV?$value@PEBD@12@$0A@@?$tuple@V?$value@PEAV?$parser@V?$standard_callbacks@V?$basic_ptree@V?$basic_string@DU?$char_traits@D@std@@V?$allocator@D@2@@std@@V12@U?$less@V?$basic_string@DU?$char_traits@D@std@@V?$allocator@D@2@@std@@@2@@property_tree@boost@@@detail@json_parser@property_tree@boost@@U?$encoding@D@2345@V?$istreambuf_iterator@DU?$char_traits@D@std@@@std@@V78@@detail@json_parser@property_tree@boost@@@_bi@boost@@V?$value@PEBD@23@@std@@QEAA@AEAV?$value@PEAV?$parser@V?$standard_callbacks@V?$basic_ptree@V?$basic_string@DU?$char_traits@D@std@@V?$allocator@D@2@@std@@V12@U?$less@V?$basic_string@DU?$char_traits@D@std@@V?$allocator@D@2@@std@@@2@@property_tree@boost@@@detail@json_parser@property_tree@boost@@U?$encoding@D@2345@V?$istreambuf_iterator@DU?$char_traits@D@std@@@std@@V78@@detail@json_parser@property_tree@boost@@@_bi@boost@@AEAV?$value@PEBD@34@@Z
	??$?0AEAV?$value@PEBD@_bi@boost@@@?$_Tuple_val@V?$value@PEBD@_bi@boost@@@std@@QEAA@AEAV?$value@PEBD@_bi@boost@@@Z
	??$?0AEAVexecutor_function_view@detail@asio@boost@@@?$executor_op@Vexecutor_function_view@detail@asio@boost@@V?$allocator@X@std@@Vwin_iocp_operation@234@@detail@asio@boost@@QEAA@AEAVexecutor_function_view@123@AEBV?$allocator@X@std@@@Z
	??$?0AEAVio_context@asio@boost@@@?$stream@V?$basic_stream_socket@Vtcp@ip@asio@boost@@Vany_io_executor@34@@asio@boost@@@ssl@asio@boost@@QEAA@AEAVio_context@23@AEAVcontext@123@@Z
	??$?0AEBU?$pair@$$CBV?$basic_string@DU?$char_traits@D@std@@V?$allocator@D@2@@std@@V?$function@$$A6AXV?$shared_ptr@VMessage@TgBot@@@std@@@Z@2@@std@@@?$_List_node_emplace_op2@V?$allocator@U?$_List_node@U?$pair@$$CBV?$basic_string@DU?$char_traits@D@std@@V?$allocator@D@2@@std@@V?$function@$$A6AXV?$shared_ptr@VMessage@TgBot@@@std@@@Z@2@@std@@PEAX@std@@@std@@@std@@QEAA@AEAV?$allocator@U?$_List_node@U?$pair@$$CBV?$basic_string@DU?$char_traits@D@std@@V?$allocator@D@2@@std@@V?$function@$$A6AXV?$shared_ptr@VMessage@TgBot@@@std@@@Z@2@@std@@PEAX@std@@@1@AEBU?$pair@$$CBV?$basic_string@DU?$char_traits@D@std@@V?$allocator@D@2@@std@@V?$function@$$A6AXV?$shared_ptr@VMessage@TgBot@@@std@@@Z@2@@1@@Z
	??$?0AEBUpiecewise_construct_t@std@@V?$tuple@$$QEAV?$basic_string@DU?$char_traits@D@std@@V?$allocator@D@2@@std@@@1@V?$tuple@$$V@1@@?$_List_node_emplace_op2@V?$allocator@U?$_List_node@U?$pair@$$CBV?$basic_string@DU?$char_traits@D@std@@V?$allocator@D@2@@std@@V12@@std@@PEAX@std@@@std@@@std@@QEAA@AEAV?$allocator@U?$_List_node@U?$pair@$$CBV?$basic_string@DU?$char_traits@D@std@@V?$allocator@D@2@@std@@V12@@std@@PEAX@std@@@1@AEBUpiecewise_construct_t@1@$$QEAV?$tuple@$$QEAV?$basic_string@DU?$char_traits@D@std@@V?$allocator@D@2@@std@@@1@$$QEAV?$tuple@$$V@1@@Z
	??$?0AEBUpiecewise_construct_t@std@@V?$tuple@AEBV?$basic_string@DU?$char_traits@D@std@@V?$allocator@D@2@@std@@@1@V?$tuple@$$V@1@@?$_List_node_emplace_op2@V?$allocator@U?$_List_node@U?$pair@$$CBV?$basic_string@DU?$char_traits@D@std@@V?$allocator@D@2@@std@@V?$function@$$A6AXV?$shared_ptr@VMessage@TgBot@@@std@@@Z@2@@std@@PEAX@std@@@std@@@std@@QEAA@AEAV?$allocator@U?$_List_node@U?$pair@$$CBV?$basic_string@DU?$char_traits@D@std@@V?$allocator@D@2@@std@@V?$function@$$A6AXV?$shared_ptr@VMessage@TgBot@@@std@@@Z@2@@std@@PEAX@std@@@1@AEBUpiecewise_construct_t@1@$$QEAV?$tuple@AEBV?$basic_string@DU?$char_traits@D@std@@V?$allocator@D@2@@std@@@1@$$QEAV?$tuple@$$V@1@@Z
	??$?0AEBV?$allocator@D@std@@$$V@?$_Compressed_pair@V?$allocator@D@std@@V?$_String_val@U?$_Simple_types@D@std@@@2@$00@std@@QEAA@U_One_then_variadic_args_t@1@AEBV?$allocator@D@1@@Z
	??$?0AEBV?$allocator@E@std@@$$V@?$_Compressed_pair@V?$allocator@E@std@@V?$_Vector_val@U?$_Simple_types@E@std@@@2@$00@std@@QEAA@U_One_then_variadic_args_t@1@AEBV?$allocator@E@1@@Z
	??$?0AEBV?$allocator@U?$_List_node@U?$pair@$$CBV?$basic_string@DU?$char_traits@D@std@@V?$allocator@D@2@@std@@V?$function@$$A6AXV?$shared_ptr@VMessage@TgBot@@@std@@@Z@2@@std@@PEAX@std@@@std@@$$V@?$_Compressed_pair@V?$allocator@V?$_List_unchecked_iterator@V?$_List_val@U?$_List_simple_types@U?$pair@$$CBV?$basic_string@DU?$char_traits@D@std@@V?$allocator@D@2@@std@@V?$function@$$A6AXV?$shared_ptr@VMessage@TgBot@@@std@@@Z@2@@std@@@std@@@std@@@std@@@std@@V?$_Vector_val@U?$_Simple_types@V?$_List_unchecked_iterator@V?$_List_val@U?$_List_simple_types@U?$pair@$$CBV?$basic_string@DU?$char_traits@D@std@@V?$allocator@D@2@@std@@V?$function@$$A6AXV?$shared_ptr@VMessage@TgBot@@@std@@@Z@2@@std@@@std@@@std@@@std@@@std@@@2@$00@std@@QEAA@U_One_then_variadic_args_t@1@AEBV?$allocator@U?$_List_node@U?$pair@$$CBV?$basic_string@DU?$char_traits@D@std@@V?$allocator@D@2@@std@@V?$function@$$A6AXV?$shared_ptr@VMessage@TgBot@@@std@@@Z@2@@std@@PEAX@std@@@1@@Z
	??$?0AEBV?$allocator@U?$_List_node@U?$pair@$$CBV?$basic_string@DU?$char_traits@D@std@@V?$allocator@D@2@@std@@V?$function@$$A6AXV?$shared_ptr@VMessage@TgBot@@@std@@@Z@2@@std@@PEAX@std@@@std@@$0A@@?$_Hash_vec@V?$allocator@V?$_List_unchecked_iterator@V?$_List_val@U?$_List_simple_types@U?$pair@$$CBV?$basic_string@DU?$char_traits@D@std@@V?$allocator@D@2@@std@@V?$function@$$A6AXV?$shared_ptr@VMessage@TgBot@@@std@@@Z@2@@std@@@std@@@std@@@std@@@std@@@std@@QEAA@AEBV?$allocator@U?$_List_node@U?$pair@$$CBV?$basic_string@DU?$char_traits@D@std@@V?$allocator@D@2@@std@@V?$function@$$A6AXV?$shared_ptr@VMessage@TgBot@@@std@@@Z@2@@std@@PEAX@std@@@1@@Z
	??$?0AEBV?$allocator@U?$pair@$$CBV?$basic_string@DU?$char_traits@D@std@@V?$allocator@D@2@@std@@V12@@std@@@std@@$$V@?$_Compressed_pair@V?$allocator@U?$_List_node@U?$pair@$$CBV?$basic_string@DU?$char_traits@D@std@@V?$allocator@D@2@@std@@V12@@std@@PEAX@std@@@std@@V?$_List_val@U?$_List_simple_types@U?$pair@$$CBV?$basic_string@DU?$char_traits@D@std@@V?$allocator@D@2@@std@@V12@@std@@@std@@@2@$00@std@@QEAA@U_One_then_variadic_args_t@1@AEBV?$allocator@U?$pair@$$CBV?$basic_string@DU?$char_traits@D@std@@V?$allocator@D@2@@std@@V12@@std@@@1@@Z
	??$?0AEBV?$allocator@U?$pair@$$CBV?$basic_string@DU?$char_traits@D@std@@V?$allocator@D@2@@std@@V12@@std@@@std@@$$V@?$_Compressed_pair@V?$allocator@V?$_List_unchecked_iterator@V?$_List_val@U?$_List_simple_types@U?$pair@$$CBV?$basic_string@DU?$char_traits@D@std@@V?$allocator@D@2@@std@@V12@@std@@@std@@@std@@@std@@@std@@V?$_Vector_val@U?$_Simple_types@V?$_List_unchecked_iterator@V?$_List_val@U?$_List_simple_types@U?$pair@$$CBV?$basic_string@DU?$char_traits@D@std@@V?$allocator@D@2@@std@@V12@@std@@@std@@@std@@@std@@@std@@@2@$00@std@@QEAA@U_One_then_variadic_args_t@1@AEBV?$allocator@U?$pair@$$CBV?$basic_string@DU?$char_traits@D@std@@V?$allocator@D@2@@std@@V12@@std@@@1@@Z
	??$?0AEBV?$allocator@U?$pair@$$CBV?$basic_string@DU?$char_traits@D@std@@V?$allocator@D@2@@std@@V12@@std@@@std@@$0A@@?$_Hash_vec@V?$allocator@V?$_List_unchecked_iterator@V?$_List_val@U?$_List_simple_types@U?$pair@$$CBV?$basic_string@DU?$char_traits@D@std@@V?$allocator@D@2@@std@@V12@@std@@@std@@@std@@@std@@@std@@@std@@QEAA@AEBV?$allocator@U?$pair@$$CBV?$basic_string@DU?$char_traits@D@std@@V?$allocator@D@2@@std@@V12@@std@@@1@@Z
	??$?0AEBV?$allocator@U?$pair@$$CBV?$basic_string@DU?$char_traits@D@std@@V?$allocator@D@2@@std@@V?$function@$$A6AXV?$shared_ptr@VMessage@TgBot@@@std@@@Z@2@@std@@@std@@$$V@?$_Compressed_pair@V?$allocator@U?$_List_node@U?$pair@$$CBV?$basic_string@DU?$char_traits@D@std@@V?$allocator@D@2@@std@@V?$function@$$A6AXV?$shared_ptr@VMessage@TgBot@@@std@@@Z@2@@std@@PEAX@std@@@std@@V?$_List_val@U?$_List_simple_types@U?$pair@$$CBV?$basic_string@DU?$char_traits@D@std@@V?$allocator@D@2@@std@@V?$function@$$A6AXV?$shared_ptr@VMessage@TgBot@@@std@@@Z@2@@std@@@std@@@2@$00@std@@QEAA@U_One_then_variadic_args_t@1@AEBV?$allocator@U?$pair@$$CBV?$basic_string@DU?$char_traits@D@std@@V?$allocator@D@2@@std@@V?$function@$$A6AXV?$shared_ptr@VMessage@TgBot@@@std@@@Z@2@@std@@@1@@Z
	??$?0AEBV?$allocator@U?$pair@$$CBV?$basic_string@DU?$char_traits@D@std@@V?$allocator@D@2@@std@@V?$function@$$A6AXV?$shared_ptr@VMessage@TgBot@@@std@@@Z@2@@std@@@std@@$$V@?$_Compressed_pair@V?$allocator@V?$_List_unchecked_iterator@V?$_List_val@U?$_List_simple_types@U?$pair@$$CBV?$basic_string@DU?$char_traits@D@std@@V?$allocator@D@2@@std@@V?$function@$$A6AXV?$shared_ptr@VMessage@TgBot@@@std@@@Z@2@@std@@@std@@@std@@@std@@@std@@V?$_Vector_val@U?$_Simple_types@V?$_List_unchecked_iterator@V?$_List_val@U?$_List_simple_types@U?$pair@$$CBV?$basic_string@DU?$char_traits@D@std@@V?$allocator@D@2@@std@@V?$function@$$A6AXV?$shared_ptr@VMessage@TgBot@@@std@@@Z@2@@std@@@std@@@std@@@std@@@std@@@2@$00@std@@QEAA@U_One_then_variadic_args_t@1@AEBV?$allocator@U?$pair@$$CBV?$basic_string@DU?$char_traits@D@std@@V?$allocator@D@2@@std@@V?$function@$$A6AXV?$shared_ptr@VMessage@TgBot@@@std@@@Z@2@@std@@@1@@Z
	??$?0AEBV?$allocator@U?$pair@$$CBV?$basic_string@DU?$char_traits@D@std@@V?$allocator@D@2@@std@@V?$function@$$A6AXV?$shared_ptr@VMessage@TgBot@@@std@@@Z@2@@std@@@std@@$0A@@?$_Hash_vec@V?$allocator@V?$_List_unchecked_iterator@V?$_List_val@U?$_List_simple_types@U?$pair@$$CBV?$basic_string@DU?$char_traits@D@std@@V?$allocator@D@2@@std@@V?$function@$$A6AXV?$shared_ptr@VMessage@TgBot@@@std@@@Z@2@@std@@@std@@@std@@@std@@@std@@@std@@QEAA@AEBV?$allocator@U?$pair@$$CBV?$basic_string@DU?$char_traits@D@std@@V?$allocator@D@2@@std@@V?$function@$$A6AXV?$shared_ptr@VMessage@TgBot@@@std@@@Z@2@@std@@@1@@Z
	??$?0AEBV?$allocator@_W@std@@$$V@?$_Compressed_pair@V?$allocator@_W@std@@V?$_String_val@U?$_Simple_types@_W@std@@@2@$00@std@@QEAA@U_One_then_variadic_args_t@1@AEBV?$allocator@_W@1@@Z
	??$?0AEBV?$basic_string@DU?$char_traits@D@std@@V?$allocator@D@2@@std@@$$Z$$V@?$pair@$$CBV?$basic_string@DU?$char_traits@D@std@@V?$allocator@D@2@@std@@V?$function@$$A6AXV?$shared_ptr@VMessage@TgBot@@@std@@@Z@2@@std@@QEAA@Upiecewise_construct_t@1@V?$tuple@AEBV?$basic_string@DU?$char_traits@D@std@@V?$allocator@D@2@@std@@@1@V?$tuple@$$V@1@@Z
	??$?0AEBV?$basic_string@DU?$char_traits@D@std@@V?$allocator@D@2@@std@@$0A@@?$tuple@AEBV?$basic_string@DU?$char_traits@D@std@@V?$allocator@D@2@@std@@@std@@QEAA@AEBV?$basic_string@DU?$char_traits@D@std@@V?$allocator@D@2@@1@@Z
	??$?0AEBV?$basic_string@DU?$char_traits@D@std@@V?$allocator@D@2@@std@@@?$_Tuple_val@AEBV?$basic_string@DU?$char_traits@D@std@@V?$allocator@D@2@@std@@@std@@QEAA@AEBV?$basic_string@DU?$char_traits@D@std@@V?$allocator@D@2@@1@@Z
	??$?0AEBV?$buffer_debug_check@V?$_Vector_iterator@V?$_Vector_val@U?$_Simple_types@E@std@@@std@@@std@@@detail@asio@boost@@$0A@@?$_Func_impl_no_alloc@V?$buffer_debug_check@V?$_Vector_iterator@V?$_Vector_val@U?$_Simple_types@E@std@@@std@@@std@@@detail@asio@boost@@X$$V@std@@QEAA@AEBV?$buffer_debug_check@V?$_Vector_iterator@V?$_Vector_val@U?$_Simple_types@E@std@@@std@@@std@@@detail@asio@boost@@@Z
	??$?0D@?$allocator@U_Container_proxy@std@@@std@@QEAA@AEBV?$allocator@D@1@@Z
	??$?0E@?$allocator@U_Container_proxy@std@@@std@@QEAA@AEBV?$allocator@E@1@@Z
	??$?0H$0A@@?$duration@_JU?$ratio@$00$00@std@@@chrono@std@@QEAA@AEBH@Z
	??$?0H@?$allocator@U_Container_proxy@std@@@std@@QEAA@AEBV?$allocator@H@1@@Z
	??$?0H@HttpReqArg@TgBot@@QEAA@V?$basic_string@DU?$char_traits@D@std@@V?$allocator@D@2@@std@@AEBH_N00@Z
	??$?0I$0A@@_Base128@std@@QEAA@I@Z
	??$?0M@?$_Compressed_pair@U?$equal_to@V?$basic_string@DU?$char_traits@D@std@@V?$allocator@D@2@@std@@@std@@M$00@std@@QEAA@U_Zero_then_variadic_args_t@1@$$QEAM@Z
	??$?0M@HttpReqArg@TgBot@@QEAA@V?$basic_string@DU?$char_traits@D@std@@V?$allocator@D@2@@std@@AEBM_N00@Z
	??$?0PEAD$0A@@?$basic_string@DU?$char_traits@D@std@@V?$allocator@D@2@@std@@QEAA@PEAD0AEBV?$allocator@D@1@@Z
	??$?0PEAU?$_List_node@U?$pair@$$CBV?$basic_string@DU?$char_traits@D@std@@V?$allocator@D@2@@std@@V12@@std@@PEAX@std@@_N$0A@@?$pair@PEAU?$_List_node@U?$pair@$$CBV?$basic_string@DU?$char_traits@D@std@@V?$allocator@D@2@@std@@V12@@std@@PEAX@std@@_N@std@@QEAA@$$QEAPEAU?$_List_node@U?$pair@$$CBV?$basic_string@DU?$char_traits@D@std@@V?$allocator@D@2@@std@@V12@@std@@PEAX@1@$$QEA_N@Z
	??$?0PEAU?$_List_node@U?$pair@$$CBV?$basic_string@DU?$char_traits@D@std@@V?$allocator@D@2@@std@@V?$function@$$A6AXV?$shared_ptr@VMessage@TgBot@@@std@@@Z@2@@std@@PEAX@std@@_N$0A@@?$pair@PEAU?$_List_node@U?$pair@$$CBV?$basic_string@DU?$char_traits@D@std@@V?$allocator@D@2@@std@@V?$function@$$A6AXV?$shared_ptr@VMessage@TgBot@@@std@@@Z@2@@std@@PEAX@std@@_N@std@@QEAA@$$QEAPEAU?$_List_node@U?$pair@$$CBV?$basic_string@DU?$char_traits@D@std@@V?$allocator@D@2@@std@@V?$function@$$A6AXV?$shared_ptr@VMessage@TgBot@@@std@@@Z@2@@std@@PEAX@1@$$QEA_N@Z
	??$?0U?$_List_node@U?$pair@$$CBV?$basic_string@DU?$char_traits@D@std@@V?$allocator@D@2@@std@@V12@@std@@PEAX@std@@@?$allocator@U_Container_proxy@std@@@std@@QEAA@AEBV?$allocator@U?$_List_node@U?$pair@$$CBV?$basic_string@DU?$char_traits@D@std@@V?$allocator@D@2@@std@@V12@@std@@PEAX@std@@@1@@Z
	??$?0U?$_List_node@U?$pair@$$CBV?$basic_string@DU?$char_traits@D@std@@V?$allocator@D@2@@std@@V?$function@$$A6AXV?$shared_ptr@VMessage@TgBot@@@std@@@Z@2@@std@@PEAX@std@@@?$allocator@U?$pair@$$CBV?$basic_string@DU?$char_traits@D@std@@V?$allocator@D@2@@std@@V?$function@$$A6AXV?$shared_ptr@VMessage@TgBot@@@std@@@Z@2@@std@@@std@@QEAA@AEBV?$allocator@U?$_List_node@U?$pair@$$CBV?$basic_string@DU?$char_traits@D@std@@V?$allocator@D@2@@std@@V?$function@$$A6AXV?$shared_ptr@VMessage@TgBot@@@std@@@Z@2@@std@@PEAX@std@@@1@@Z
	??$?0U?$_List_node@U?$pair@$$CBV?$basic_string@DU?$char_traits@D@std@@V?$allocator@D@2@@std@@V?$function@$$A6AXV?$shared_ptr@VMessage@TgBot@@@std@@@Z@2@@std@@PEAX@std@@@?$allocator@U_Container_proxy@std@@@std@@QEAA@AEBV?$allocator@U?$_List_node@U?$pair@$$CBV?$basic_string@DU?$char_traits@D@std@@V?$allocator@D@2@@std@@V?$function@$$A6AXV?$shared_ptr@VMessage@TgBot@@@std@@@Z@2@@std@@PEAX@std@@@1@@Z
	??$?0U?$_List_node@U?$pair@$$CBV?$basic_string@DU?$char_traits@D@std@@V?$allocator@D@2@@std@@V?$function@$$A6AXV?$shared_ptr@VMessage@TgBot@@@std@@@Z@2@@std@@PEAX@std@@@?$allocator@V?$_List_unchecked_iterator@V?$_List_val@U?$_List_simple_types@U?$pair@$$CBV?$basic_string@DU?$char_traits@D@std@@V?$allocator@D@2@@std@@V?$function@$$A6AXV?$shared_ptr@VMessage@TgBot@@@std@@@Z@2@@std@@@std@@@std@@@std@@@std@@QEAA@AEBV?$allocator@U?$_List_node@U?$pair@$$CBV?$basic_string@DU?$char_traits@D@std@@V?$allocator@D@2@@std@@V?$function@$$A6AXV?$shared_ptr@VMessage@TgBot@@@std@@@Z@2@@std@@PEAX@std@@@1@@Z
	??$?0U?$default_delete@VEventBroadcaster@TgBot@@@std@@$0A@@?$unique_ptr@VEventBroadcaster@TgBot@@U?$default_delete@VEventBroadcaster@TgBot@@@std@@@std@@QEAA@$$QEAV01@@Z
	??$?0U?$default_delete@VEventBroadcaster@TgBot@@@std@@$0A@@?$unique_ptr@VEventBroadcaster@TgBot@@U?$default_delete@VEventBroadcaster@TgBot@@@std@@@std@@QEAA@PEAVEventBroadcaster@TgBot@@@Z
	??$?0U?$default_delete@VEventBroadcaster@TgBot@@@std@@PEAVEventBroadcaster@TgBot@@@?$_Compressed_pair@U?$default_delete@VEventBroadcaster@TgBot@@@std@@PEAVEventBroadcaster@TgBot@@$00@std@@QEAA@U_One_then_variadic_args_t@1@$$QEAU?$default_delete@VEventBroadcaster@TgBot@@@1@$$QEAPEAVEventBroadcaster@TgBot@@@Z
	??$?0U?$default_delete@V_Facet_base@std@@@std@@$0A@@?$unique_ptr@V_Facet_base@std@@U?$default_delete@V_Facet_base@std@@@2@@std@@QEAA@PEAV_Facet_base@1@@Z
	??$?0U?$pair@$$CBV?$basic_string@DU?$char_traits@D@std@@V?$allocator@D@2@@std@@V12@@std@@@?$allocator@U?$_List_node@U?$pair@$$CBV?$basic_string@DU?$char_traits@D@std@@V?$allocator@D@2@@std@@V12@@std@@PEAX@std@@@std@@QEAA@AEBV?$allocator@U?$pair@$$CBV?$basic_string@DU?$char_traits@D@std@@V?$allocator@D@2@@std@@V12@@std@@@1@@Z
	??$?0U?$pair@$$CBV?$basic_string@DU?$char_traits@D@std@@V?$allocator@D@2@@std@@V12@@std@@@?$allocator@V?$_List_unchecked_iterator@V?$_List_val@U?$_List_simple_types@U?$pair@$$CBV?$basic_string@DU?$char_traits@D@std@@V?$allocator@D@2@@std@@V12@@std@@@std@@@std@@@std@@@std@@QEAA@AEBV?$allocator@U?$pair@$$CBV?$basic_string@DU?$char_traits@D@std@@V?$allocator@D@2@@std@@V12@@std@@@1@@Z
	??$?0U?$pair@$$CBV?$basic_string@DU?$char_traits@D@std@@V?$allocator@D@2@@std@@V?$basic_ptree@V?$basic_string@DU?$char_traits@D@std@@V?$allocator@D@2@@std@@V12@U?$less@V?$basic_string@DU?$char_traits@D@std@@V?$allocator@D@2@@std@@@2@@property_tree@boost@@@std@@@?$allocator@U?$copy_map_entry@U?$sequenced_index_node@U?$ordered_index_node@Unull_augment_policy@detail@multi_index@boost@@U?$index_node_base@U?$pair@$$CBV?$basic_string@DU?$char_traits@D@std@@V?$allocator@D@2@@std@@V?$basic_ptree@V?$basic_string@DU?$char_traits@D@std@@V?$allocator@D@2@@std@@V12@U?$less@V?$basic_string@DU?$char_traits@D@std@@V?$allocator@D@2@@std@@@2@@property_tree@boost@@@std@@V?$allocator@U?$pair@$$CBV?$basic_string@DU?$char_traits@D@std@@V?$allocator@D@2@@std@@V?$basic_ptree@V?$basic_string@DU?$char_traits@D@std@@V?$allocator@D@2@@std@@V12@U?$less@V?$basic_string@DU?$char_traits@D@std@@V?$allocator@D@2@@std@@@2@@property_tree@boost@@@std@@@2@@234@@detail@multi_index@boost@@@detail@multi_index@boost@@@detail@multi_index@boost@@@std@@QEAA@AEBV?$allocator@U?$pair@$$CBV?$basic_string@DU?$char_traits@D@std@@V?$allocator@D@2@@std@@V?$basic_ptree@V?$basic_string@DU?$char_traits@D@std@@V?$allocator@D@2@@std@@V12@U?$less@V?$basic_string@DU?$char_traits@D@std@@V?$allocator@D@2@@std@@@2@@property_tree@boost@@@std@@@1@@Z
	??$?0U?$pair@$$CBV?$basic_string@DU?$char_traits@D@std@@V?$allocator@D@2@@std@@V?$basic_ptree@V?$basic_string@DU?$char_traits@D@std@@V?$allocator@D@2@@std@@V12@U?$less@V?$basic_string@DU?$char_traits@D@std@@V?$allocator@D@2@@std@@@2@@property_tree@boost@@@std@@@?$allocator@U?$sequenced_index_node@U?$ordered_index_node@Unull_augment_policy@detail@multi_index@boost@@U?$index_node_base@U?$pair@$$CBV?$basic_string@DU?$char_traits@D@std@@V?$allocator@D@2@@std@@V?$basic_ptree@V?$basic_string@DU?$char_traits@D@std@@V?$allocator@D@2@@std@@V12@U?$less@V?$basic_string@DU?$char_traits@D@std@@V?$allocator@D@2@@std@@@2@@property_tree@boost@@@std@@V?$allocator@U?$pair@$$CBV?$basic_string@DU?$char_traits@D@std@@V?$allocator@D@2@@std@@V?$basic_ptree@V?$basic_string@DU?$char_traits@D@std@@V?$allocator@D@2@@std@@V12@U?$less@V?$basic_string@DU?$char_traits@D@std@@V?$allocator@D@2@@std@@@2@@property_tree@boost@@@std@@@2@@234@@detail@multi_index@boost@@@detail@multi_index@boost@@@std@@QEAA@AEBV?$allocator@U?$pair@$$CBV?$basic_string@DU?$char_traits@D@std@@V?$allocator@D@2@@std@@V?$basic_ptree@V?$basic_string@DU?$char_traits@D@std@@V?$allocator@D@2@@std@@V12@U?$less@V?$basic_string@DU?$char_traits@D@std@@V?$allocator@D@2@@std@@@2@@property_tree@boost@@@std@@@1@@Z
	??$?0U?$pair@$$CBV?$basic_string@DU?$char_traits@D@std@@V?$allocator@D@2@@std@@V?$function@$$A6AXV?$shared_ptr@VMessage@TgBot@@@std@@@Z@2@@std@@@?$allocator@U?$_List_node@U?$pair@$$CBV?$basic_string@DU?$char_traits@D@std@@V?$allocator@D@2@@std@@V?$function@$$A6AXV?$shared_ptr@VMessage@TgBot@@@std@@@Z@2@@std@@PEAX@std@@@std@@QEAA@AEBV?$allocator@U?$pair@$$CBV?$basic_string@DU?$char_traits@D@std@@V?$allocator@D@2@@std@@V?$function@$$A6AXV?$shared_ptr@VMessage@TgBot@@@std@@@Z@2@@std@@@1@@Z
	??$?0U?$pair@$$CBV?$basic_string@DU?$char_traits@D@std@@V?$allocator@D@2@@std@@V?$function@$$A6AXV?$shared_ptr@VMessage@TgBot@@@std@@@Z@2@@std@@@?$allocator@V?$_List_unchecked_iterator@V?$_List_val@U?$_List_simple_types@U?$pair@$$CBV?$basic_string@DU?$char_traits@D@std@@V?$allocator@D@2@@std@@V?$function@$$A6AXV?$shared_ptr@VMessage@TgBot@@@std@@@Z@2@@std@@@std@@@std@@@std@@@std@@QEAA@AEBV?$allocator@U?$pair@$$CBV?$basic_string@DU?$char_traits@D@std@@V?$allocator@D@2@@std@@V?$function@$$A6AXV?$shared_ptr@VMessage@TgBot@@@std@@@Z@2@@std@@@1@@Z
	??$?0U?$sequenced_index_node@U?$ordered_index_node@Unull_augment_policy@detail@multi_index@boost@@U?$index_node_base@U?$pair@$$CBV?$basic_string@DU?$char_traits@D@std@@V?$allocator@D@2@@std@@V?$basic_ptree@V?$basic_string@DU?$char_traits@D@std@@V?$allocator@D@2@@std@@V12@U?$less@V?$basic_string@DU?$char_traits@D@std@@V?$allocator@D@2@@std@@@2@@property_tree@boost@@@std@@V?$allocator@U?$pair@$$CBV?$basic_string@DU?$char_traits@D@std@@V?$allocator@D@2@@std@@V?$basic_ptree@V?$basic_string@DU?$char_traits@D@std@@V?$allocator@D@2@@std@@V12@U?$less@V?$basic_string@DU?$char_traits@D@std@@V?$allocator@D@2@@std@@@2@@property_tree@boost@@@std@@@2@@234@@detail@multi_index@boost@@@detail@multi_index@boost@@@?$allocator@U?$pair@$$CBV?$basic_string@DU?$char_traits@D@std@@V?$allocator@D@2@@std@@V?$basic_ptree@V?$basic_string@DU?$char_traits@D@std@@V?$allocator@D@2@@std@@V12@U?$less@V?$basic_string@DU?$char_traits@D@std@@V?$allocator@D@2@@std@@@2@@property_tree@boost@@@std@@@std@@QEAA@AEBV?$allocator@U?$sequenced_index_node@U?$ordered_index_node@Unull_augment_policy@detail@multi_index@boost@@U?$index_node_base@U?$pair@$$CBV?$basic_string@DU?$char_traits@D@std@@V?$allocator@D@2@@std@@V?$basic_ptree@V?$basic_string@DU?$char_traits@D@std@@V?$allocator@D@2@@std@@V12@U?$less@V?$basic_string@DU?$char_traits@D@std@@V?$allocator@D@2@@std@@@2@@property_tree@boost@@@std@@V?$allocator@U?$pair@$$CBV?$basic_string@DU?$char_traits@D@std@@V?$allocator@D@2@@std@@V?$basic_ptree@V?$basic_string@DU?$char_traits@D@std@@V?$allocator@D@2@@std@@V12@U?$less@V?$basic_string@DU?$char_traits@D@std@@V?$allocator@D@2@@std@@@2@@property_tree@boost@@@std@@@2@@234@@detail@multi_index@boost@@@detail@multi_index@boost@@@1@@Z
	??$?0U_Exact_args_t@std@@$0A@@?$tuple@$$V@std@@QEAA@U_Exact_args_t@1@@Z
	??$?0U_Exact_args_t@std@@AEAD$$V$0A@@?$tuple@AEAD@std@@QEAA@U_Exact_args_t@1@AEAD@Z
	??$?0U_Exact_args_t@std@@AEAE$$V$0A@@?$tuple@AEAE@std@@QEAA@U_Exact_args_t@1@AEAE@Z
	??$?0U_Exact_args_t@std@@AEAU?$arg@$00@boost@@$$V$0A@@?$tuple@U?$arg@$00@boost@@@std@@QEAA@U_Exact_args_t@1@AEAU?$arg@$00@boost@@@Z
	??$?0U_Exact_args_t@std@@AEAV?$reference_wrapper@V?$standard_callbacks@V?$basic_ptree@V?$basic_string@DU?$char_traits@D@std@@V?$allocator@D@2@@std@@V12@U?$less@V?$basic_string@DU?$char_traits@D@std@@V?$allocator@D@2@@std@@@2@@property_tree@boost@@@detail@json_parser@property_tree@boost@@@boost@@AEAU?$arg@$00@3@$0A@@?$tuple@V?$reference_wrapper@V?$standard_callbacks@V?$basic_ptree@V?$basic_string@DU?$char_traits@D@std@@V?$allocator@D@2@@std@@V12@U?$less@V?$basic_string@DU?$char_traits@D@std@@V?$allocator@D@2@@std@@@2@@property_tree@boost@@@detail@json_parser@property_tree@boost@@@boost@@U?$arg@$00@2@@std@@QEAA@U_Exact_args_t@1@AEAV?$reference_wrapper@V?$standard_callbacks@V?$basic_ptree@V?$basic_string@DU?$char_traits@D@std@@V?$allocator@D@2@@std@@V12@U?$less@V?$basic_string@DU?$char_traits@D@std@@V?$allocator@D@2@@std@@@2@@property_tree@boost@@@detail@json_parser@property_tree@boost@@@boost@@AEAU?$arg@$00@4@@Z
	??$?0U_Exact_args_t@std@@AEAV?$value@PEAV?$parser@V?$standard_callbacks@V?$basic_ptree@V?$basic_string@DU?$char_traits@D@std@@V?$allocator@D@2@@std@@V12@U?$less@V?$basic_string@DU?$char_traits@D@std@@V?$allocator@D@2@@std@@@2@@property_tree@boost@@@detail@json_parser@property_tree@boost@@U?$encoding@D@2345@V?$istreambuf_iterator@DU?$char_traits@D@std@@@std@@V78@@detail@json_parser@property_tree@boost@@@_bi@boost@@AEAV?$value@PEBD@34@$0A@@?$tuple@V?$value@PEAV?$parser@V?$standard_callbacks@V?$basic_ptree@V?$basic_string@DU?$char_traits@D@std@@V?$allocator@D@2@@std@@V12@U?$less@V?$basic_string@DU?$char_traits@D@std@@V?$allocator@D@2@@std@@@2@@property_tree@boost@@@detail@json_parser@property_tree@boost@@U?$encoding@D@2345@V?$istreambuf_iterator@DU?$char_traits@D@std@@@std@@V78@@detail@json_parser@property_tree@boost@@@_bi@boost@@V?$value@PEBD@23@@std@@QEAA@U_Exact_args_t@1@AEAV?$value@PEAV?$parser@V?$standard_callbacks@V?$basic_ptree@V?$basic_string@DU?$char_traits@D@std@@V?$allocator@D@2@@std@@V12@U?$less@V?$basic_string@DU?$char_traits@D@std@@V?$allocator@D@2@@std@@@2@@property_tree@boost@@@detail@json_parser@property_tree@boost@@U?$encoding@D@2345@V?$istreambuf_iterator@DU?$char_traits@D@std@@@std@@V78@@detail@json_parser@property_tree@boost@@@_bi@boost@@AEAV?$value@PEBD@45@@Z
	??$?0U_Exact_args_t@std@@AEAV?$value@PEBD@_bi@boost@@$$V$0A@@?$tuple@V?$value@PEBD@_bi@boost@@@std@@QEAA@U_Exact_args_t@1@AEAV?$value@PEBD@_bi@boost@@@Z
	??$?0U_Exact_args_t@std@@AEBV?$basic_string@DU?$char_traits@D@std@@V?$allocator@D@2@@1@$$V$0A@@?$tuple@AEBV?$basic_string@DU?$char_traits@D@std@@V?$allocator@D@2@@std@@@std@@QEAA@U_Exact_args_t@1@AEBV?$basic_string@DU?$char_traits@D@std@@V?$allocator@D@2@@1@@Z
	??$?0U_Exact_args_t@std@@V?$basic_string@DU?$char_traits@D@std@@V?$allocator@D@2@@1@$$V$0A@@?$tuple@$$QEAV?$basic_string@DU?$char_traits@D@std@@V?$allocator@D@2@@std@@@std@@QEAA@U_Exact_args_t@1@$$QEAV?$basic_string@DU?$char_traits@D@std@@V?$allocator@D@2@@1@@Z
	??$?0U_Move_allocator_tag@std@@V?$allocator@U?$_List_node@U?$pair@$$CBV?$basic_string@DU?$char_traits@D@std@@V?$allocator@D@2@@std@@V12@@std@@PEAX@std@@@1@$0A@@?$list@U?$pair@$$CBV?$basic_string@DU?$char_traits@D@std@@V?$allocator@D@2@@std@@V12@@std@@V?$allocator@U?$pair@$$CBV?$basic_string@DU?$char_traits@D@std@@V?$allocator@D@2@@std@@V12@@std@@@2@@std@@AEAA@U_Move_allocator_tag@1@AEAV?$allocator@U?$_List_node@U?$pair@$$CBV?$basic_string@DU?$char_traits@D@std@@V?$allocator@D@2@@std@@V12@@std@@PEAX@std@@@1@@Z
	??$?0U_Move_allocator_tag@std@@V?$allocator@U?$_List_node@U?$pair@$$CBV?$basic_string@DU?$char_traits@D@std@@V?$allocator@D@2@@std@@V?$function@$$A6AXV?$shared_ptr@VMessage@TgBot@@@std@@@Z@2@@std@@PEAX@std@@@1@$0A@@?$list@U?$pair@$$CBV?$basic_string@DU?$char_traits@D@std@@V?$allocator@D@2@@std@@V?$function@$$A6AXV?$shared_ptr@VMessage@TgBot@@@std@@@Z@2@@std@@V?$allocator@U?$pair@$$CBV?$basic_string@DU?$char_traits@D@std@@V?$allocator@D@2@@std@@V?$function@$$A6AXV?$shared_ptr@VMessage@TgBot@@@std@@@Z@2@@std@@@2@@std@@AEAA@U_Move_allocator_tag@1@AEAV?$allocator@U?$_List_node@U?$pair@$$CBV?$basic_string@DU?$char_traits@D@std@@V?$allocator@D@2@@std@@V?$function@$$A6AXV?$shared_ptr@VMessage@TgBot@@@std@@@Z@2@@std@@PEAX@std@@@1@@Z
	??$?0U_Zero_then_variadic_args_t@std@@M@?$_Compressed_pair@U?$hash@V?$basic_string@DU?$char_traits@D@std@@V?$allocator@D@2@@std@@@std@@V?$_Compressed_pair@U?$equal_to@V?$basic_string@DU?$char_traits@D@std@@V?$allocator@D@2@@std@@@std@@M$00@2@$00@std@@QEAA@U_Zero_then_variadic_args_t@1@$$QEAU21@$$QEAM@Z
	??$?0Uheap_entry@?$timer_queue@Uforwarding_posix_time_traits@detail@asio@boost@@@detail@asio@boost@@@?$allocator@U_Container_proxy@std@@@std@@QEAA@AEBV?$allocator@Uheap_entry@?$timer_queue@Uforwarding_posix_time_traits@detail@asio@boost@@@detail@asio@boost@@@1@@Z
	??$?0Ulayer@?$standard_callbacks@V?$basic_ptree@V?$basic_string@DU?$char_traits@D@std@@V?$allocator@D@2@@std@@V12@U?$less@V?$basic_string@DU?$char_traits@D@std@@V?$allocator@D@2@@std@@@2@@property_tree@boost@@@detail@json_parser@property_tree@boost@@@?$allocator@U_Container_proxy@std@@@std@@QEAA@AEBV?$allocator@Ulayer@?$standard_callbacks@V?$basic_ptree@V?$basic_string@DU?$char_traits@D@std@@V?$allocator@D@2@@std@@V12@U?$less@V?$basic_string@DU?$char_traits@D@std@@V?$allocator@D@2@@std@@@2@@property_tree@boost@@@detail@json_parser@property_tree@boost@@@1@@Z
	??$?0Unoop_deleter@socket_ops@detail@asio@boost@@AEAPEAX@?$_Compressed_pair@Unoop_deleter@socket_ops@detail@asio@boost@@PEAX$00@std@@QEAA@U_One_then_variadic_args_t@1@$$QEAUnoop_deleter@socket_ops@detail@asio@boost@@AEAPEAX@Z
	??$?0Uthread_function@win_iocp_io_context@detail@asio@boost@@@win_thread@detail@asio@boost@@QEAA@Uthread_function@win_iocp_io_context@123@I@Z
	??$?0Utimer_thread_function@win_iocp_io_context@detail@asio@boost@@@win_thread@detail@asio@boost@@QEAA@Utimer_thread_function@win_iocp_io_context@123@I@Z
	??$?0V?$_List_iterator@V?$_List_val@U?$_List_simple_types@U?$pair@$$CBV?$basic_string@DU?$char_traits@D@std@@V?$allocator@D@2@@std@@V?$function@$$A6AXV?$shared_ptr@VMessage@TgBot@@@std@@@Z@2@@std@@@std@@@std@@@std@@_N$0A@@?$pair@V?$_List_iterator@V?$_List_val@U?$_List_simple_types@U?$pair@$$CBV?$basic_string@DU?$char_traits@D@std@@V?$allocator@D@2@@std@@V?$function@$$A6AXV?$shared_ptr@VMessage@TgBot@@@std@@@Z@2@@std@@@std@@@std@@@std@@_N@std@@QEAA@$$QEAV?$_List_iterator@V?$_List_val@U?$_List_simple_types@U?$pair@$$CBV?$basic_string@DU?$char_traits@D@std@@V?$allocator@D@2@@std@@V?$function@$$A6AXV?$shared_ptr@VMessage@TgBot@@@std@@@Z@2@@std@@@std@@@std@@@1@$$QEA_N@Z
	??$?0V?$_List_unchecked_iterator@V?$_List_val@U?$_List_simple_types@U?$pair@$$CBV?$basic_string@DU?$char_traits@D@std@@V?$allocator@D@2@@std@@V12@@std@@@std@@@std@@@std@@@?$allocator@U_Container_proxy@std@@@std@@QEAA@AEBV?$allocator@V?$_List_unchecked_iterator@V?$_List_val@U?$_List_simple_types@U?$pair@$$CBV?$basic_string@DU?$char_traits@D@std@@V?$allocator@D@2@@std@@V12@@std@@@std@@@std@@@std@@@1@@Z
	??$?0V?$_List_unchecked_iterator@V?$_List_val@U?$_List_simple_types@U?$pair@$$CBV?$basic_string@DU?$char_traits@D@std@@V?$allocator@D@2@@std@@V?$function@$$A6AXV?$shared_ptr@VMessage@TgBot@@@std@@@Z@2@@std@@@std@@@std@@@std@@@?$allocator@U_Container_proxy@std@@@std@@QEAA@AEBV?$allocator@V?$_List_unchecked_iterator@V?$_List_val@U?$_List_simple_types@U?$pair@$$CBV?$basic_string@DU?$char_traits@D@std@@V?$allocator@D@2@@std@@V?$function@$$A6AXV?$shared_ptr@VMessage@TgBot@@@std@@@Z@2@@std@@@std@@@std@@@std@@@1@@Z
	??$?0V?$_String_const_iterator@V?$_String_val@U?$_Simple_types@D@std@@@std@@@std@@$0A@@?$basic_string@DU?$char_traits@D@std@@V?$allocator@D@2@@std@@QEAA@V?$_String_const_iterator@V?$_String_val@U?$_Simple_types@D@std@@@std@@@1@0AEBV?$allocator@D@1@@Z
	??$?0V?$_String_iterator@V?$_String_val@U?$_Simple_types@D@std@@@std@@@std@@$0A@@?$basic_string@DU?$char_traits@D@std@@V?$allocator@D@2@@std@@QEAA@V?$_String_iterator@V?$_String_val@U?$_Simple_types@D@std@@@std@@@1@0AEBV?$allocator@D@1@@Z
	??$?0V?$allocator@D@std@@$$V@?$_Compressed_pair@V?$allocator@D@std@@V?$_String_val@U?$_Simple_types@D@std@@@2@$00@std@@QEAA@U_One_then_variadic_args_t@1@$$QEAV?$allocator@D@1@@Z
	??$?0V?$allocator@H@std@@PEAHPEAHPEAH@?$_Compressed_pair@V?$allocator@H@std@@V?$_Vector_val@U?$_Simple_types@H@std@@@2@$00@std@@QEAA@U_One_then_variadic_args_t@1@$$QEAV?$allocator@H@1@$$QEAPEAH22@Z
	??$?0V?$allocator@U?$_List_node@U?$pair@$$CBV?$basic_string@DU?$char_traits@D@std@@V?$allocator@D@2@@std@@V12@@std@@PEAX@std@@@std@@$$V@?$_Compressed_pair@V?$allocator@U?$_List_node@U?$pair@$$CBV?$basic_string@DU?$char_traits@D@std@@V?$allocator@D@2@@std@@V12@@std@@PEAX@std@@@std@@V?$_List_val@U?$_List_simple_types@U?$pair@$$CBV?$basic_string@DU?$char_traits@D@std@@V?$allocator@D@2@@std@@V12@@std@@@std@@@2@$00@std@@QEAA@U_One_then_variadic_args_t@1@$$QEAV?$allocator@U?$_List_node@U?$pair@$$CBV?$basic_string@DU?$char_traits@D@std@@V?$allocator@D@2@@std@@V12@@std@@PEAX@std@@@1@@Z
	??$?0V?$allocator@U?$_List_node@U?$pair@$$CBV?$basic_string@DU?$char_traits@D@std@@V?$allocator@D@2@@std@@V?$function@$$A6AXV?$shared_ptr@VMessage@TgBot@@@std@@@Z@2@@std@@PEAX@std@@@std@@$$V@?$_Compressed_pair@V?$allocator@U?$_List_node@U?$pair@$$CBV?$basic_string@DU?$char_traits@D@std@@V?$allocator@D@2@@std@@V?$function@$$A6AXV?$shared_ptr@VMessage@TgBot@@@std@@@Z@2@@std@@PEAX@std@@@std@@V?$_List_val@U?$_List_simple_types@U?$pair@$$CBV?$basic_string@DU?$char_traits@D@std@@V?$allocator@D@2@@std@@V?$function@$$A6AXV?$shared_ptr@VMessage@TgBot@@@std@@@Z@2@@std@@@std@@@2@$00@std@@QEAA@U_One_then_variadic_args_t@1@$$QEAV?$allocator@U?$_List_node@U?$pair@$$CBV?$basic_string@DU?$char_traits@D@std@@V?$allocator@D@2@@std@@V?$function@$$A6AXV?$shared_ptr@VMessage@TgBot@@@std@@@Z@2@@std@@PEAX@std@@@1@@Z
	??$?0V?$allocator@U?$_List_node@U?$pair@$$CBV?$basic_string@DU?$char_traits@D@std@@V?$allocator@D@2@@std@@V?$function@$$A6AXV?$shared_ptr@VMessage@TgBot@@@std@@@Z@2@@std@@PEAX@std@@@std@@@?$_Hash@V?$_Umap_traits@V?$basic_string@DU?$char_traits@D@std@@V?$allocator@D@2@@std@@V?$function@$$A6AXV?$shared_ptr@VMessage@TgBot@@@std@@@Z@2@V?$_Uhash_compare@V?$basic_string@DU?$char_traits@D@std@@V?$allocator@D@2@@std@@U?$hash@V?$basic_string@DU?$char_traits@D@std@@V?$allocator@D@2@@std@@@2@U?$equal_to@V?$basic_string@DU?$char_traits@D@std@@V?$allocator@D@2@@std@@@2@@2@V?$allocator@U?$pair@$$CBV?$basic_string@DU?$char_traits@D@std@@V?$allocator@D@2@@std@@V?$function@$$A6AXV?$shared_ptr@VMessage@TgBot@@@std@@@Z@2@@std@@@2@$0A@@std@@@std@@IEAA@AEBV01@AEBV?$allocator@U?$_List_node@U?$pair@$$CBV?$basic_string@DU?$char_traits@D@std@@V?$allocator@D@2@@std@@V?$function@$$A6AXV?$shared_ptr@VMessage@TgBot@@@std@@@Z@2@@std@@PEAX@std@@@1@@Z
	??$?0V?$allocator@U?$pair@$$CBV?$basic_string@DU?$char_traits@D@std@@V?$allocator@D@2@@std@@V?$basic_ptree@V?$basic_string@DU?$char_traits@D@std@@V?$allocator@D@2@@std@@V12@U?$less@V?$basic_string@DU?$char_traits@D@std@@V?$allocator@D@2@@std@@@2@@property_tree@boost@@@std@@@std@@X@?$base_from_member@V?$allocator@U?$sequenced_index_node@U?$ordered_index_node@Unull_augment_policy@detail@multi_index@boost@@U?$index_node_base@U?$pair@$$CBV?$basic_string@DU?$char_traits@D@std@@V?$allocator@D@2@@std@@V?$basic_ptree@V?$basic_string@DU?$char_traits@D@std@@V?$allocator@D@2@@std@@V12@U?$less@V?$basic_string@DU?$char_traits@D@std@@V?$allocator@D@2@@std@@@2@@property_tree@boost@@@std@@V?$allocator@U?$pair@$$CBV?$basic_string@DU?$char_traits@D@std@@V?$allocator@D@2@@std@@V?$basic_ptree@V?$basic_string@DU?$char_traits@D@std@@V?$allocator@D@2@@std@@V12@U?$less@V?$basic_string@DU?$char_traits@D@std@@V?$allocator@D@2@@std@@@2@@property_tree@boost@@@std@@@2@@234@@detail@multi_index@boost@@@detail@multi_index@boost@@@std@@$0A@@boost@@IEAA@$$QEAV?$allocator@U?$pair@$$CBV?$basic_string@DU?$char_traits@D@std@@V?$allocator@D@2@@std@@V?$basic_ptree@V?$basic_string@DU?$char_traits@D@std@@V?$allocator@D@2@@std@@V12@U?$less@V?$basic_string@DU?$char_traits@D@std@@V?$allocator@D@2@@std@@@2@@property_tree@boost@@@std@@@std@@@Z
	??$?0V?$allocator@U?$sequenced_index_node@U?$ordered_index_node@Unull_augment_policy@detail@multi_index@boost@@U?$index_node_base@U?$pair@$$CBV?$basic_string@DU?$char_traits@D@std@@V?$allocator@D@2@@std@@V?$basic_ptree@V?$basic_string@DU?$char_traits@D@std@@V?$allocator@D@2@@std@@V12@U?$less@V?$basic_string@DU?$char_traits@D@std@@V?$allocator@D@2@@std@@@2@@property_tree@boost@@@std@@V?$allocator@U?$pair@$$CBV?$basic_string@DU?$char_traits@D@std@@V?$allocator@D@2@@std@@V?$basic_ptree@V?$basic_string@DU?$char_traits@D@std@@V?$allocator@D@2@@std@@V12@U?$less@V?$basic_string@DU?$char_traits@D@std@@V?$allocator@D@2@@std@@@2@@property_tree@boost@@@std@@@2@@234@@detail@multi_index@boost@@@detail@multi_index@boost@@@std@@X@?$base_from_member@V?$allocator@U?$sequenced_index_node@U?$ordered_index_node@Unull_augment_policy@detail@multi_index@boost@@U?$index_node_base@U?$pair@$$CBV?$basic_string@DU?$char_traits@D@std@@V?$allocator@D@2@@std@@V?$basic_ptree@V?$basic_string@DU?$char_traits@D@std@@V?$allocator@D@2@@std@@V12@U?$less@V?$basic_string@DU?$char_traits@D@std@@V?$allocator@D@2@@std@@@2@@property_tree@boost@@@std@@V?$allocator@U?$pair@$$CBV?$basic_string@DU?$char_traits@D@std@@V?$allocator@D@2@@std@@V?$basic_ptree@V?$basic_string@DU?$char_traits@D@std@@V?$allocator@D@2@@std@@V12@U?$less@V?$basic_string@DU?$char_traits@D@std@@V?$allocator@D@2@@std@@@2@@property_tree@boost@@@std@@@2@@234@@detail@multi_index@boost@@@detail@multi_index@boost@@@std@@$0A@@boost@@IEAA@$$QEAV?$allocator@U?$sequenced_index_node@U?$ordered_index_node@Unull_augment_policy@detail@multi_index@boost@@U?$index_node_base@U?$pair@$$CBV?$basic_string@DU?$char_traits@D@std@@V?$allocator@D@2@@std@@V?$basic_ptree@V?$basic_string@DU?$char_traits@D@std@@V?$allocator@D@2@@std@@V12@U?$less@V?$basic_string@DU?$char_traits@D@std@@V?$allocator@D@2@@std@@@2@@property_tree@boost@@@std@@V?$allocator@U?$pair@$$CBV?$basic_string@DU?$char_traits@D@std@@V?$allocator@D@2@@std@@V?$basic_ptree@V?$basic_string@DU?$char_traits@D@std@@V?$allocator@D@2@@std@@V12@U?$less@V?$basic_string@DU?$char_traits@D@std@@V?$allocator@D@2@@std@@@2@@property_tree@boost@@@std@@@2@@234@@detail@multi_index@boost@@@detail@multi_index@boost@@@std@@@Z
	??$?0V?$allocator@V?$_List_unchecked_iterator@V?$_List_val@U?$_List_simple_types@U?$pair@$$CBV?$basic_string@DU?$char_traits@D@std@@V?$allocator@D@2@@std@@V12@@std@@@std@@@std@@@std@@@std@@$$V@?$_Compressed_pair@V?$allocator@V?$_List_unchecked_iterator@V?$_List_val@U?$_List_simple_types@U?$pair@$$CBV?$basic_string@DU?$char_traits@D@std@@V?$allocator@D@2@@std@@V12@@std@@@std@@@std@@@std@@@std@@V?$_Vector_val@U?$_Simple_types@V?$_List_unchecked_iterator@V?$_List_val@U?$_List_simple_types@U?$pair@$$CBV?$basic_string@DU?$char_traits@D@std@@V?$allocator@D@2@@std@@V12@@std@@@std@@@std@@@std@@@std@@@2@$00@std@@QEAA@U_One_then_variadic_args_t@1@$$QEAV?$allocator@V?$_List_unchecked_iterator@V?$_List_val@U?$_List_simple_types@U?$pair@$$CBV?$basic_string@DU?$char_traits@D@std@@V?$allocator@D@2@@std@@V12@@std@@@std@@@std@@@std@@@1@@Z
	??$?0V?$allocator@V?$_List_unchecked_iterator@V?$_List_val@U?$_List_simple_types@U?$pair@$$CBV?$basic_string@DU?$char_traits@D@std@@V?$allocator@D@2@@std@@V12@@std@@@std@@@std@@@std@@@std@@$0A@@?$_Hash_vec@V?$allocator@V?$_List_unchecked_iterator@V?$_List_val@U?$_List_simple_types@U?$pair@$$CBV?$basic_string@DU?$char_traits@D@std@@V?$allocator@D@2@@std@@V12@@std@@@std@@@std@@@std@@@std@@@std@@QEAA@$$QEAV?$allocator@V?$_List_unchecked_iterator@V?$_List_val@U?$_List_simple_types@U?$pair@$$CBV?$basic_string@DU?$char_traits@D@std@@V?$allocator@D@2@@std@@V12@@std@@@std@@@std@@@std@@@1@@Z
	??$?0V?$allocator@V?$_List_unchecked_iterator@V?$_List_val@U?$_List_simple_types@U?$pair@$$CBV?$basic_string@DU?$char_traits@D@std@@V?$allocator@D@2@@std@@V?$function@$$A6AXV?$shared_ptr@VMessage@TgBot@@@std@@@Z@2@@std@@@std@@@std@@@std@@@std@@$$V@?$_Compressed_pair@V?$allocator@V?$_List_unchecked_iterator@V?$_List_val@U?$_List_simple_types@U?$pair@$$CBV?$basic_string@DU?$char_traits@D@std@@V?$allocator@D@2@@std@@V?$function@$$A6AXV?$shared_ptr@VMessage@TgBot@@@std@@@Z@2@@std@@@std@@@std@@@std@@@std@@V?$_Vector_val@U?$_Simple_types@V?$_List_unchecked_iterator@V?$_List_val@U?$_List_simple_types@U?$pair@$$CBV?$basic_string@DU?$char_traits@D@std@@V?$allocator@D@2@@std@@V?$function@$$A6AXV?$shared_ptr@VMessage@TgBot@@@std@@@Z@2@@std@@@std@@@std@@@std@@@std@@@2@$00@std@@QEAA@U_One_then_variadic_args_t@1@$$QEAV?$allocator@V?$_List_unchecked_iterator@V?$_List_val@U?$_List_simple_types@U?$pair@$$CBV?$basic_string@DU?$char_traits@D@std@@V?$allocator@D@2@@std@@V?$function@$$A6AXV?$shared_ptr@VMessage@TgBot@@@std@@@Z@2@@std@@@std@@@std@@@std@@@1@@Z
	??$?0V?$allocator@V?$_List_unchecked_iterator@V?$_List_val@U?$_List_simple_types@U?$pair@$$CBV?$basic_string@DU?$char_traits@D@std@@V?$allocator@D@2@@std@@V?$function@$$A6AXV?$shared_ptr@VMessage@TgBot@@@std@@@Z@2@@std@@@std@@@std@@@std@@@std@@$0A@@?$_Hash_vec@V?$allocator@V?$_List_unchecked_iterator@V?$_List_val@U?$_List_simple_types@U?$pair@$$CBV?$basic_string@DU?$char_traits@D@std@@V?$allocator@D@2@@std@@V?$function@$$A6AXV?$shared_ptr@VMessage@TgBot@@@std@@@Z@2@@std@@@std@@@std@@@std@@@std@@@std@@QEAA@$$QEAV?$allocator@V?$_List_unchecked_iterator@V?$_List_val@U?$_List_simple_types@U?$pair@$$CBV?$basic_string@DU?$char_traits@D@std@@V?$allocator@D@2@@std@@V?$function@$$A6AXV?$shared_ptr@VMessage@TgBot@@@std@@@Z@2@@std@@@std@@@std@@@std@@@1@@Z
	??$?0V?$allocator@V?$basic_string@DU?$char_traits@D@std@@V?$allocator@D@2@@std@@@std@@PEAV?$basic_string@DU?$char_traits@D@std@@V?$allocator@D@2@@1@PEAV21@PEAV21@@?$_Compressed_pair@V?$allocator@V?$basic_string@DU?$char_traits@D@std@@V?$allocator@D@2@@std@@@std@@V?$_Vector_val@U?$_Simple_types@V?$basic_string@DU?$char_traits@D@std@@V?$allocator@D@2@@std@@@std@@@2@$00@std@@QEAA@U_One_then_variadic_args_t@1@$$QEAV?$allocator@V?$basic_string@DU?$char_traits@D@std@@V?$allocator@D@2@@std@@@1@$$QEAPEAV?$basic_string@DU?$char_traits@D@std@@V?$allocator@D@2@@1@22@Z
	??$?0V?$allocator@V?$function@$$A6AXV?$shared_ptr@VCallbackQuery@TgBot@@@std@@@Z@std@@@std@@$$V@?$_Compressed_pair@V?$allocator@V?$function@$$A6AXV?$shared_ptr@VCallbackQuery@TgBot@@@std@@@Z@std@@@std@@V?$_Vector_val@U?$_Simple_types@V?$function@$$A6AXV?$shared_ptr@VCallbackQuery@TgBot@@@std@@@Z@std@@@std@@@2@$00@std@@QEAA@U_One_then_variadic_args_t@1@$$QEAV?$allocator@V?$function@$$A6AXV?$shared_ptr@VCallbackQuery@TgBot@@@std@@@Z@std@@@1@@Z
	??$?0V?$allocator@V?$function@$$A6AXV?$shared_ptr@VCallbackQuery@TgBot@@@std@@@Z@std@@@std@@PEAV?$function@$$A6AXV?$shared_ptr@VCallbackQuery@TgBot@@@std@@@Z@1@PEAV21@PEAV21@@?$_Compressed_pair@V?$allocator@V?$function@$$A6AXV?$shared_ptr@VCallbackQuery@TgBot@@@std@@@Z@std@@@std@@V?$_Vector_val@U?$_Simple_types@V?$function@$$A6AXV?$shared_ptr@VCallbackQuery@TgBot@@@std@@@Z@std@@@std@@@2@$00@std@@QEAA@U_One_then_variadic_args_t@1@$$QEAV?$allocator@V?$function@$$A6AXV?$shared_ptr@VCallbackQuery@TgBot@@@std@@@Z@std@@@1@$$QEAPEAV?$function@$$A6AXV?$shared_ptr@VCallbackQuery@TgBot@@@std@@@Z@1@22@Z
	??$?0V?$allocator@V?$function@$$A6AXV?$shared_ptr@VChatJoinRequest@TgBot@@@std@@@Z@std@@@std@@$$V@?$_Compressed_pair@V?$allocator@V?$function@$$A6AXV?$shared_ptr@VChatJoinRequest@TgBot@@@std@@@Z@std@@@std@@V?$_Vector_val@U?$_Simple_types@V?$function@$$A6AXV?$shared_ptr@VChatJoinRequest@TgBot@@@std@@@Z@std@@@std@@@2@$00@std@@QEAA@U_One_then_variadic_args_t@1@$$QEAV?$allocator@V?$function@$$A6AXV?$shared_ptr@VChatJoinRequest@TgBot@@@std@@@Z@std@@@1@@Z
	??$?0V?$allocator@V?$function@$$A6AXV?$shared_ptr@VChatJoinRequest@TgBot@@@std@@@Z@std@@@std@@PEAV?$function@$$A6AXV?$shared_ptr@VChatJoinRequest@TgBot@@@std@@@Z@1@PEAV21@PEAV21@@?$_Compressed_pair@V?$allocator@V?$function@$$A6AXV?$shared_ptr@VChatJoinRequest@TgBot@@@std@@@Z@std@@@std@@V?$_Vector_val@U?$_Simple_types@V?$function@$$A6AXV?$shared_ptr@VChatJoinRequest@TgBot@@@std@@@Z@std@@@std@@@2@$00@std@@QEAA@U_One_then_variadic_args_t@1@$$QEAV?$allocator@V?$function@$$A6AXV?$shared_ptr@VChatJoinRequest@TgBot@@@std@@@Z@std@@@1@$$QEAPEAV?$function@$$A6AXV?$shared_ptr@VChatJoinRequest@TgBot@@@std@@@Z@1@22@Z
	??$?0V?$allocator@V?$function@$$A6AXV?$shared_ptr@VChatMemberUpdated@TgBot@@@std@@@Z@std@@@std@@$$V@?$_Compressed_pair@V?$allocator@V?$function@$$A6AXV?$shared_ptr@VChatMemberUpdated@TgBot@@@std@@@Z@std@@@std@@V?$_Vector_val@U?$_Simple_types@V?$function@$$A6AXV?$shared_ptr@VChatMemberUpdated@TgBot@@@std@@@Z@std@@@std@@@2@$00@std@@QEAA@U_One_then_variadic_args_t@1@$$QEAV?$allocator@V?$function@$$A6AXV?$shared_ptr@VChatMemberUpdated@TgBot@@@std@@@Z@std@@@1@@Z
	??$?0V?$allocator@V?$function@$$A6AXV?$shared_ptr@VChatMemberUpdated@TgBot@@@std@@@Z@std@@@std@@PEAV?$function@$$A6AXV?$shared_ptr@VChatMemberUpdated@TgBot@@@std@@@Z@1@PEAV21@PEAV21@@?$_Compressed_pair@V?$allocator@V?$function@$$A6AXV?$shared_ptr@VChatMemberUpdated@TgBot@@@std@@@Z@std@@@std@@V?$_Vector_val@U?$_Simple_types@V?$function@$$A6AXV?$shared_ptr@VChatMemberUpdated@TgBot@@@std@@@Z@std@@@std@@@2@$00@std@@QEAA@U_One_then_variadic_args_t@1@$$QEAV?$allocator@V?$function@$$A6AXV?$shared_ptr@VChatMemberUpdated@TgBot@@@std@@@Z@std@@@1@$$QEAPEAV?$function@$$A6AXV?$shared_ptr@VChatMemberUpdated@TgBot@@@std@@@Z@1@22@Z
	??$?0V?$allocator@V?$function@$$A6AXV?$shared_ptr@VChosenInlineResult@TgBot@@@std@@@Z@std@@@std@@$$V@?$_Compressed_pair@V?$allocator@V?$function@$$A6AXV?$shared_ptr@VChosenInlineResult@TgBot@@@std@@@Z@std@@@std@@V?$_Vector_val@U?$_Simple_types@V?$function@$$A6AXV?$shared_ptr@VChosenInlineResult@TgBot@@@std@@@Z@std@@@std@@@2@$00@std@@QEAA@U_One_then_variadic_args_t@1@$$QEAV?$allocator@V?$function@$$A6AXV?$shared_ptr@VChosenInlineResult@TgBot@@@std@@@Z@std@@@1@@Z
	??$?0V?$allocator@V?$function@$$A6AXV?$shared_ptr@VChosenInlineResult@TgBot@@@std@@@Z@std@@@std@@PEAV?$function@$$A6AXV?$shared_ptr@VChosenInlineResult@TgBot@@@std@@@Z@1@PEAV21@PEAV21@@?$_Compressed_pair@V?$allocator@V?$function@$$A6AXV?$shared_ptr@VChosenInlineResult@TgBot@@@std@@@Z@std@@@std@@V?$_Vector_val@U?$_Simple_types@V?$function@$$A6AXV?$shared_ptr@VChosenInlineResult@TgBot@@@std@@@Z@std@@@std@@@2@$00@std@@QEAA@U_One_then_variadic_args_t@1@$$QEAV?$allocator@V?$function@$$A6AXV?$shared_ptr@VChosenInlineResult@TgBot@@@std@@@Z@std@@@1@$$QEAPEAV?$function@$$A6AXV?$shared_ptr@VChosenInlineResult@TgBot@@@std@@@Z@1@22@Z
	??$?0V?$allocator@V?$function@$$A6AXV?$shared_ptr@VInlineQuery@TgBot@@@std@@@Z@std@@@std@@$$V@?$_Compressed_pair@V?$allocator@V?$function@$$A6AXV?$shared_ptr@VInlineQuery@TgBot@@@std@@@Z@std@@@std@@V?$_Vector_val@U?$_Simple_types@V?$function@$$A6AXV?$shared_ptr@VInlineQuery@TgBot@@@std@@@Z@std@@@std@@@2@$00@std@@QEAA@U_One_then_variadic_args_t@1@$$QEAV?$allocator@V?$function@$$A6AXV?$shared_ptr@VInlineQuery@TgBot@@@std@@@Z@std@@@1@@Z
	??$?0V?$allocator@V?$function@$$A6AXV?$shared_ptr@VInlineQuery@TgBot@@@std@@@Z@std@@@std@@PEAV?$function@$$A6AXV?$shared_ptr@VInlineQuery@TgBot@@@std@@@Z@1@PEAV21@PEAV21@@?$_Compressed_pair@V?$allocator@V?$function@$$A6AXV?$shared_ptr@VInlineQuery@TgBot@@@std@@@Z@std@@@std@@V?$_Vector_val@U?$_Simple_types@V?$function@$$A6AXV?$shared_ptr@VInlineQuery@TgBot@@@std@@@Z@std@@@std@@@2@$00@std@@QEAA@U_One_then_variadic_args_t@1@$$QEAV?$allocator@V?$function@$$A6AXV?$shared_ptr@VInlineQuery@TgBot@@@std@@@Z@std@@@1@$$QEAPEAV?$function@$$A6AXV?$shared_ptr@VInlineQuery@TgBot@@@std@@@Z@1@22@Z
	??$?0V?$allocator@V?$function@$$A6AXV?$shared_ptr@VMessage@TgBot@@@std@@@Z@std@@@std@@$$V@?$_Compressed_pair@V?$allocator@V?$function@$$A6AXV?$shared_ptr@VMessage@TgBot@@@std@@@Z@std@@@std@@V?$_Vector_val@U?$_Simple_types@V?$function@$$A6AXV?$shared_ptr@VMessage@TgBot@@@std@@@Z@std@@@std@@@2@$00@std@@QEAA@U_One_then_variadic_args_t@1@$$QEAV?$allocator@V?$function@$$A6AXV?$shared_ptr@VMessage@TgBot@@@std@@@Z@std@@@1@@Z
	??$?0V?$allocator@V?$function@$$A6AXV?$shared_ptr@VMessage@TgBot@@@std@@@Z@std@@@std@@PEAV?$function@$$A6AXV?$shared_ptr@VMessage@TgBot@@@std@@@Z@1@PEAV21@PEAV21@@?$_Compressed_pair@V?$allocator@V?$function@$$A6AXV?$shared_ptr@VMessage@TgBot@@@std@@@Z@std@@@std@@V?$_Vector_val@U?$_Simple_types@V?$function@$$A6AXV?$shared_ptr@VMessage@TgBot@@@std@@@Z@std@@@std@@@2@$00@std@@QEAA@U_One_then_variadic_args_t@1@$$QEAV?$allocator@V?$function@$$A6AXV?$shared_ptr@VMessage@TgBot@@@std@@@Z@std@@@1@$$QEAPEAV?$function@$$A6AXV?$shared_ptr@VMessage@TgBot@@@std@@@Z@1@22@Z
	??$?0V?$allocator@V?$function@$$A6AXV?$shared_ptr@VPoll@TgBot@@@std@@@Z@std@@@std@@$$V@?$_Compressed_pair@V?$allocator@V?$function@$$A6AXV?$shared_ptr@VPoll@TgBot@@@std@@@Z@std@@@std@@V?$_Vector_val@U?$_Simple_types@V?$function@$$A6AXV?$shared_ptr@VPoll@TgBot@@@std@@@Z@std@@@std@@@2@$00@std@@QEAA@U_One_then_variadic_args_t@1@$$QEAV?$allocator@V?$function@$$A6AXV?$shared_ptr@VPoll@TgBot@@@std@@@Z@std@@@1@@Z
	??$?0V?$allocator@V?$function@$$A6AXV?$shared_ptr@VPoll@TgBot@@@std@@@Z@std@@@std@@PEAV?$function@$$A6AXV?$shared_ptr@VPoll@TgBot@@@std@@@Z@1@PEAV21@PEAV21@@?$_Compressed_pair@V?$allocator@V?$function@$$A6AXV?$shared_ptr@VPoll@TgBot@@@std@@@Z@std@@@std@@V?$_Vector_val@U?$_Simple_types@V?$function@$$A6AXV?$shared_ptr@VPoll@TgBot@@@std@@@Z@std@@@std@@@2@$00@std@@QEAA@U_One_then_variadic_args_t@1@$$QEAV?$allocator@V?$function@$$A6AXV?$shared_ptr@VPoll@TgBot@@@std@@@Z@std@@@1@$$QEAPEAV?$function@$$A6AXV?$shared_ptr@VPoll@TgBot@@@std@@@Z@1@22@Z
	??$?0V?$allocator@V?$function@$$A6AXV?$shared_ptr@VPollAnswer@TgBot@@@std@@@Z@std@@@std@@$$V@?$_Compressed_pair@V?$allocator@V?$function@$$A6AXV?$shared_ptr@VPollAnswer@TgBot@@@std@@@Z@std@@@std@@V?$_Vector_val@U?$_Simple_types@V?$function@$$A6AXV?$shared_ptr@VPollAnswer@TgBot@@@std@@@Z@std@@@std@@@2@$00@std@@QEAA@U_One_then_variadic_args_t@1@$$QEAV?$allocator@V?$function@$$A6AXV?$shared_ptr@VPollAnswer@TgBot@@@std@@@Z@std@@@1@@Z
	??$?0V?$allocator@V?$function@$$A6AXV?$shared_ptr@VPollAnswer@TgBot@@@std@@@Z@std@@@std@@PEAV?$function@$$A6AXV?$shared_ptr@VPollAnswer@TgBot@@@std@@@Z@1@PEAV21@PEAV21@@?$_Compressed_pair@V?$allocator@V?$function@$$A6AXV?$shared_ptr@VPollAnswer@TgBot@@@std@@@Z@std@@@std@@V?$_Vector_val@U?$_Simple_types@V?$function@$$A6AXV?$shared_ptr@VPollAnswer@TgBot@@@std@@@Z@std@@@std@@@2@$00@std@@QEAA@U_One_then_variadic_args_t@1@$$QEAV?$allocator@V?$function@$$A6AXV?$shared_ptr@VPollAnswer@TgBot@@@std@@@Z@std@@@1@$$QEAPEAV?$function@$$A6AXV?$shared_ptr@VPollAnswer@TgBot@@@std@@@Z@1@22@Z
	??$?0V?$allocator@V?$function@$$A6AXV?$shared_ptr@VPreCheckoutQuery@TgBot@@@std@@@Z@std@@@std@@$$V@?$_Compressed_pair@V?$allocator@V?$function@$$A6AXV?$shared_ptr@VPreCheckoutQuery@TgBot@@@std@@@Z@std@@@std@@V?$_Vector_val@U?$_Simple_types@V?$function@$$A6AXV?$shared_ptr@VPreCheckoutQuery@TgBot@@@std@@@Z@std@@@std@@@2@$00@std@@QEAA@U_One_then_variadic_args_t@1@$$QEAV?$allocator@V?$function@$$A6AXV?$shared_ptr@VPreCheckoutQuery@TgBot@@@std@@@Z@std@@@1@@Z
	??$?0V?$allocator@V?$function@$$A6AXV?$shared_ptr@VPreCheckoutQuery@TgBot@@@std@@@Z@std@@@std@@PEAV?$function@$$A6AXV?$shared_ptr@VPreCheckoutQuery@TgBot@@@std@@@Z@1@PEAV21@PEAV21@@?$_Compressed_pair@V?$allocator@V?$function@$$A6AXV?$shared_ptr@VPreCheckoutQuery@TgBot@@@std@@@Z@std@@@std@@V?$_Vector_val@U?$_Simple_types@V?$function@$$A6AXV?$shared_ptr@VPreCheckoutQuery@TgBot@@@std@@@Z@std@@@std@@@2@$00@std@@QEAA@U_One_then_variadic_args_t@1@$$QEAV?$allocator@V?$function@$$A6AXV?$shared_ptr@VPreCheckoutQuery@TgBot@@@std@@@Z@std@@@1@$$QEAPEAV?$function@$$A6AXV?$shared_ptr@VPreCheckoutQuery@TgBot@@@std@@@Z@1@22@Z
	??$?0V?$allocator@V?$function@$$A6AXV?$shared_ptr@VShippingQuery@TgBot@@@std@@@Z@std@@@std@@$$V@?$_Compressed_pair@V?$allocator@V?$function@$$A6AXV?$shared_ptr@VShippingQuery@TgBot@@@std@@@Z@std@@@std@@V?$_Vector_val@U?$_Simple_types@V?$function@$$A6AXV?$shared_ptr@VShippingQuery@TgBot@@@std@@@Z@std@@@std@@@2@$00@std@@QEAA@U_One_then_variadic_args_t@1@$$QEAV?$allocator@V?$function@$$A6AXV?$shared_ptr@VShippingQuery@TgBot@@@std@@@Z@std@@@1@@Z
	??$?0V?$allocator@V?$function@$$A6AXV?$shared_ptr@VShippingQuery@TgBot@@@std@@@Z@std@@@std@@PEAV?$function@$$A6AXV?$shared_ptr@VShippingQuery@TgBot@@@std@@@Z@1@PEAV21@PEAV21@@?$_Compressed_pair@V?$allocator@V?$function@$$A6AXV?$shared_ptr@VShippingQuery@TgBot@@@std@@@Z@std@@@std@@V?$_Vector_val@U?$_Simple_types@V?$function@$$A6AXV?$shared_ptr@VShippingQuery@TgBot@@@std@@@Z@std@@@std@@@2@$00@std@@QEAA@U_One_then_variadic_args_t@1@$$QEAV?$allocator@V?$function@$$A6AXV?$shared_ptr@VShippingQuery@TgBot@@@std@@@Z@std@@@1@$$QEAPEAV?$function@$$A6AXV?$shared_ptr@VShippingQuery@TgBot@@@std@@@Z@1@22@Z
	??$?0V?$allocator@V?$shared_ptr@VBotCommand@TgBot@@@std@@@std@@PEAV?$shared_ptr@VBotCommand@TgBot@@@1@PEAV21@PEAV21@@?$_Compressed_pair@V?$allocator@V?$shared_ptr@VBotCommand@TgBot@@@std@@@std@@V?$_Vector_val@U?$_Simple_types@V?$shared_ptr@VBotCommand@TgBot@@@std@@@std@@@2@$00@std@@QEAA@U_One_then_variadic_args_t@1@$$QEAV?$allocator@V?$shared_ptr@VBotCommand@TgBot@@@std@@@1@$$QEAPEAV?$shared_ptr@VBotCommand@TgBot@@@1@22@Z
	??$?0V?$allocator@V?$shared_ptr@VChatMember@TgBot@@@std@@@std@@PEAV?$shared_ptr@VChatMember@TgBot@@@1@PEAV21@PEAV21@@?$_Compressed_pair@V?$allocator@V?$shared_ptr@VChatMember@TgBot@@@std@@@std@@V?$_Vector_val@U?$_Simple_types@V?$shared_ptr@VChatMember@TgBot@@@std@@@std@@@2@$00@std@@QEAA@U_One_then_variadic_args_t@1@$$QEAV?$allocator@V?$shared_ptr@VChatMember@TgBot@@@std@@@1@$$QEAPEAV?$shared_ptr@VChatMember@TgBot@@@1@22@Z
	??$?0V?$allocator@V?$shared_ptr@VEncryptedPassportElement@TgBot@@@std@@@std@@PEAV?$shared_ptr@VEncryptedPassportElement@TgBot@@@1@PEAV21@PEAV21@@?$_Compressed_pair@V?$allocator@V?$shared_ptr@VEncryptedPassportElement@TgBot@@@std@@@std@@V?$_Vector_val@U?$_Simple_types@V?$shared_ptr@VEncryptedPassportElement@TgBot@@@std@@@std@@@2@$00@std@@QEAA@U_One_then_variadic_args_t@1@$$QEAV?$allocator@V?$shared_ptr@VEncryptedPassportElement@TgBot@@@std@@@1@$$QEAPEAV?$shared_ptr@VEncryptedPassportElement@TgBot@@@1@22@Z
	??$?0V?$allocator@V?$shared_ptr@VGameHighScore@TgBot@@@std@@@std@@PEAV?$shared_ptr@VGameHighScore@TgBot@@@1@PEAV21@PEAV21@@?$_Compressed_pair@V?$allocator@V?$shared_ptr@VGameHighScore@TgBot@@@std@@@std@@V?$_Vector_val@U?$_Simple_types@V?$shared_ptr@VGameHighScore@TgBot@@@std@@@std@@@2@$00@std@@QEAA@U_One_then_variadic_args_t@1@$$QEAV?$allocator@V?$shared_ptr@VGameHighScore@TgBot@@@std@@@1@$$QEAPEAV?$shared_ptr@VGameHighScore@TgBot@@@1@22@Z
	??$?0V?$allocator@V?$shared_ptr@VInlineKeyboardButton@TgBot@@@std@@@std@@PEAV?$shared_ptr@VInlineKeyboardButton@TgBot@@@1@PEAV21@PEAV21@@?$_Compressed_pair@V?$allocator@V?$shared_ptr@VInlineKeyboardButton@TgBot@@@std@@@std@@V?$_Vector_val@U?$_Simple_types@V?$shared_ptr@VInlineKeyboardButton@TgBot@@@std@@@std@@@2@$00@std@@QEAA@U_One_then_variadic_args_t@1@$$QEAV?$allocator@V?$shared_ptr@VInlineKeyboardButton@TgBot@@@std@@@1@$$QEAPEAV?$shared_ptr@VInlineKeyboardButton@TgBot@@@1@22@Z
	??$?0V?$allocator@V?$shared_ptr@VKeyboardButton@TgBot@@@std@@@std@@PEAV?$shared_ptr@VKeyboardButton@TgBot@@@1@PEAV21@PEAV21@@?$_Compressed_pair@V?$allocator@V?$shared_ptr@VKeyboardButton@TgBot@@@std@@@std@@V?$_Vector_val@U?$_Simple_types@V?$shared_ptr@VKeyboardButton@TgBot@@@std@@@std@@@2@$00@std@@QEAA@U_One_then_variadic_args_t@1@$$QEAV?$allocator@V?$shared_ptr@VKeyboardButton@TgBot@@@std@@@1@$$QEAPEAV?$shared_ptr@VKeyboardButton@TgBot@@@1@22@Z
	??$?0V?$allocator@V?$shared_ptr@VLabeledPrice@TgBot@@@std@@@std@@PEAV?$shared_ptr@VLabeledPrice@TgBot@@@1@PEAV21@PEAV21@@?$_Compressed_pair@V?$allocator@V?$shared_ptr@VLabeledPrice@TgBot@@@std@@@std@@V?$_Vector_val@U?$_Simple_types@V?$shared_ptr@VLabeledPrice@TgBot@@@std@@@std@@@2@$00@std@@QEAA@U_One_then_variadic_args_t@1@$$QEAV?$allocator@V?$shared_ptr@VLabeledPrice@TgBot@@@std@@@1@$$QEAPEAV?$shared_ptr@VLabeledPrice@TgBot@@@1@22@Z
	??$?0V?$allocator@V?$shared_ptr@VMessage@TgBot@@@std@@@std@@PEAV?$shared_ptr@VMessage@TgBot@@@1@PEAV21@PEAV21@@?$_Compressed_pair@V?$allocator@V?$shared_ptr@VMessage@TgBot@@@std@@@std@@V?$_Vector_val@U?$_Simple_types@V?$shared_ptr@VMessage@TgBot@@@std@@@std@@@2@$00@std@@QEAA@U_One_then_variadic_args_t@1@$$QEAV?$allocator@V?$shared_ptr@VMessage@TgBot@@@std@@@1@$$QEAPEAV?$shared_ptr@VMessage@TgBot@@@1@22@Z
	??$?0V?$allocator@V?$shared_ptr@VMessageEntity@TgBot@@@std@@@std@@PEAV?$shared_ptr@VMessageEntity@TgBot@@@1@PEAV21@PEAV21@@?$_Compressed_pair@V?$allocator@V?$shared_ptr@VMessageEntity@TgBot@@@std@@@std@@V?$_Vector_val@U?$_Simple_types@V?$shared_ptr@VMessageEntity@TgBot@@@std@@@std@@@2@$00@std@@QEAA@U_One_then_variadic_args_t@1@$$QEAV?$allocator@V?$shared_ptr@VMessageEntity@TgBot@@@std@@@1@$$QEAPEAV?$shared_ptr@VMessageEntity@TgBot@@@1@22@Z
	??$?0V?$allocator@V?$shared_ptr@VPassportFile@TgBot@@@std@@@std@@PEAV?$shared_ptr@VPassportFile@TgBot@@@1@PEAV21@PEAV21@@?$_Compressed_pair@V?$allocator@V?$shared_ptr@VPassportFile@TgBot@@@std@@@std@@V?$_Vector_val@U?$_Simple_types@V?$shared_ptr@VPassportFile@TgBot@@@std@@@std@@@2@$00@std@@QEAA@U_One_then_variadic_args_t@1@$$QEAV?$allocator@V?$shared_ptr@VPassportFile@TgBot@@@std@@@1@$$QEAPEAV?$shared_ptr@VPassportFile@TgBot@@@1@22@Z
	??$?0V?$allocator@V?$shared_ptr@VPhotoSize@TgBot@@@std@@@std@@$$V@?$_Compressed_pair@V?$allocator@V?$shared_ptr@VPhotoSize@TgBot@@@std@@@std@@V?$_Vector_val@U?$_Simple_types@V?$shared_ptr@VPhotoSize@TgBot@@@std@@@std@@@2@$00@std@@QEAA@U_One_then_variadic_args_t@1@$$QEAV?$allocator@V?$shared_ptr@VPhotoSize@TgBot@@@std@@@1@@Z
	??$?0V?$allocator@V?$shared_ptr@VPhotoSize@TgBot@@@std@@@std@@PEAV?$shared_ptr@VPhotoSize@TgBot@@@1@PEAV21@PEAV21@@?$_Compressed_pair@V?$allocator@V?$shared_ptr@VPhotoSize@TgBot@@@std@@@std@@V?$_Vector_val@U?$_Simple_types@V?$shared_ptr@VPhotoSize@TgBot@@@std@@@std@@@2@$00@std@@QEAA@U_One_then_variadic_args_t@1@$$QEAV?$allocator@V?$shared_ptr@VPhotoSize@TgBot@@@std@@@1@$$QEAPEAV?$shared_ptr@VPhotoSize@TgBot@@@1@22@Z
	??$?0V?$allocator@V?$shared_ptr@VPollOption@TgBot@@@std@@@std@@PEAV?$shared_ptr@VPollOption@TgBot@@@1@PEAV21@PEAV21@@?$_Compressed_pair@V?$allocator@V?$shared_ptr@VPollOption@TgBot@@@std@@@std@@V?$_Vector_val@U?$_Simple_types@V?$shared_ptr@VPollOption@TgBot@@@std@@@std@@@2@$00@std@@QEAA@U_One_then_variadic_args_t@1@$$QEAV?$allocator@V?$shared_ptr@VPollOption@TgBot@@@std@@@1@$$QEAPEAV?$shared_ptr@VPollOption@TgBot@@@1@22@Z
	??$?0V?$allocator@V?$shared_ptr@VSticker@TgBot@@@std@@@std@@PEAV?$shared_ptr@VSticker@TgBot@@@1@PEAV21@PEAV21@@?$_Compressed_pair@V?$allocator@V?$shared_ptr@VSticker@TgBot@@@std@@@std@@V?$_Vector_val@U?$_Simple_types@V?$shared_ptr@VSticker@TgBot@@@std@@@std@@@2@$00@std@@QEAA@U_One_then_variadic_args_t@1@$$QEAV?$allocator@V?$shared_ptr@VSticker@TgBot@@@std@@@1@$$QEAPEAV?$shared_ptr@VSticker@TgBot@@@1@22@Z
	??$?0V?$allocator@V?$shared_ptr@VUpdate@TgBot@@@std@@@std@@$$V@?$_Compressed_pair@V?$allocator@V?$shared_ptr@VUpdate@TgBot@@@std@@@std@@V?$_Vector_val@U?$_Simple_types@V?$shared_ptr@VUpdate@TgBot@@@std@@@std@@@2@$00@std@@QEAA@U_One_then_variadic_args_t@1@$$QEAV?$allocator@V?$shared_ptr@VUpdate@TgBot@@@std@@@1@@Z
	??$?0V?$allocator@V?$shared_ptr@VUpdate@TgBot@@@std@@@std@@PEAV?$shared_ptr@VUpdate@TgBot@@@1@PEAV21@PEAV21@@?$_Compressed_pair@V?$allocator@V?$shared_ptr@VUpdate@TgBot@@@std@@@std@@V?$_Vector_val@U?$_Simple_types@V?$shared_ptr@VUpdate@TgBot@@@std@@@std@@@2@$00@std@@QEAA@U_One_then_variadic_args_t@1@$$QEAV?$allocator@V?$shared_ptr@VUpdate@TgBot@@@std@@@1@$$QEAPEAV?$shared_ptr@VUpdate@TgBot@@@1@22@Z
	??$?0V?$allocator@V?$shared_ptr@VUser@TgBot@@@std@@@std@@PEAV?$shared_ptr@VUser@TgBot@@@1@PEAV21@PEAV21@@?$_Compressed_pair@V?$allocator@V?$shared_ptr@VUser@TgBot@@@std@@@std@@V?$_Vector_val@U?$_Simple_types@V?$shared_ptr@VUser@TgBot@@@std@@@std@@@2@$00@std@@QEAA@U_One_then_variadic_args_t@1@$$QEAV?$allocator@V?$shared_ptr@VUser@TgBot@@@std@@@1@$$QEAPEAV?$shared_ptr@VUser@TgBot@@@1@22@Z
	??$?0V?$allocator@V?$vector@V?$shared_ptr@VPhotoSize@TgBot@@@std@@V?$allocator@V?$shared_ptr@VPhotoSize@TgBot@@@std@@@2@@std@@@std@@PEAV?$vector@V?$shared_ptr@VPhotoSize@TgBot@@@std@@V?$allocator@V?$shared_ptr@VPhotoSize@TgBot@@@std@@@2@@1@PEAV21@PEAV21@@?$_Compressed_pair@V?$allocator@V?$vector@V?$shared_ptr@VPhotoSize@TgBot@@@std@@V?$allocator@V?$shared_ptr@VPhotoSize@TgBot@@@std@@@2@@std@@@std@@V?$_Vector_val@U?$_Simple_types@V?$vector@V?$shared_ptr@VPhotoSize@TgBot@@@std@@V?$allocator@V?$shared_ptr@VPhotoSize@TgBot@@@std@@@2@@std@@@std@@@2@$00@std@@QEAA@U_One_then_variadic_args_t@1@$$QEAV?$allocator@V?$vector@V?$shared_ptr@VPhotoSize@TgBot@@@std@@V?$allocator@V?$shared_ptr@VPhotoSize@TgBot@@@std@@@2@@std@@@1@$$QEAPEAV?$vector@V?$shared_ptr@VPhotoSize@TgBot@@@std@@V?$allocator@V?$shared_ptr@VPhotoSize@TgBot@@@std@@@2@@1@22@Z
	??$?0V?$allocator@_W@std@@$$V@?$_Compressed_pair@V?$allocator@_W@std@@V?$_String_val@U?$_Simple_types@_W@std@@@2@$00@std@@QEAA@U_One_then_variadic_args_t@1@$$QEAV?$allocator@_W@1@@Z
	??$?0V?$basic_executor_type@V?$allocator@X@std@@$03@io_context@asio@boost@@@?$any_executor@U?$context_as_t@AEAVexecution_context@asio@boost@@@execution@asio@boost@@U?$never_t@$0A@@blocking@detail@234@U?$prefer_only@U?$possibly_t@$0A@@blocking@detail@execution@asio@boost@@@234@U?$prefer_only@U?$tracked_t@$0A@@outstanding_work@detail@execution@asio@boost@@@234@U?$prefer_only@U?$untracked_t@$0A@@outstanding_work@detail@execution@asio@boost@@@234@U?$prefer_only@U?$fork_t@$0A@@relationship@detail@execution@asio@boost@@@234@U?$prefer_only@U?$continuation_t@$0A@@relationship@detail@execution@asio@boost@@@234@@execution@asio@boost@@QEAA@V?$basic_executor_type@V?$allocator@X@std@@$03@io_context@23@PEAX@Z
	??$?0V?$basic_executor_type@V?$allocator@X@std@@$03@io_context@asio@boost@@@any_executor_base@detail@execution@asio@boost@@QEAA@V?$basic_executor_type@V?$allocator@X@std@@$03@io_context@34@U?$integral_constant@_N$0A@@std@@@Z
	??$?0V?$basic_executor_type@V?$allocator@X@std@@$0A@@io_context@asio@boost@@@?$any_executor@U?$context_as_t@AEAVexecution_context@asio@boost@@@execution@asio@boost@@U?$never_t@$0A@@blocking@detail@234@U?$prefer_only@U?$possibly_t@$0A@@blocking@detail@execution@asio@boost@@@234@U?$prefer_only@U?$tracked_t@$0A@@outstanding_work@detail@execution@asio@boost@@@234@U?$prefer_only@U?$untracked_t@$0A@@outstanding_work@detail@execution@asio@boost@@@234@U?$prefer_only@U?$fork_t@$0A@@relationship@detail@execution@asio@boost@@@234@U?$prefer_only@U?$continuation_t@$0A@@relationship@detail@execution@asio@boost@@@234@@execution@asio@boost@@QEAA@V?$basic_executor_type@V?$allocator@X@std@@$0A@@io_context@23@PEAX@Z
	??$?0V?$basic_executor_type@V?$allocator@X@std@@$0A@@io_context@asio@boost@@@any_executor_base@detail@execution@asio@boost@@QEAA@V?$basic_executor_type@V?$allocator@X@std@@$0A@@io_context@34@U?$integral_constant@_N$0A@@std@@@Z
	??$?0V?$basic_executor_type@V?$allocator@X@std@@$0A@@io_context@asio@boost@@@any_io_executor@asio@boost@@QEAA@V?$basic_executor_type@V?$allocator@X@std@@$0A@@io_context@12@H@Z
	??$?0V?$basic_ptree@V?$basic_string@DU?$char_traits@D@std@@V?$allocator@D@2@@std@@V12@U?$less@V?$basic_string@DU?$char_traits@D@std@@V?$allocator@D@2@@std@@@2@@property_tree@boost@@@?$optional@AEAV?$basic_ptree@V?$basic_string@DU?$char_traits@D@std@@V?$allocator@D@2@@std@@V12@U?$less@V?$basic_string@DU?$char_traits@D@std@@V?$allocator@D@2@@std@@@2@@property_tree@boost@@@boost@@QEAA@AEAV?$basic_ptree@V?$basic_string@DU?$char_traits@D@std@@V?$allocator@D@2@@std@@V12@U?$less@V?$basic_string@DU?$char_traits@D@std@@V?$allocator@D@2@@std@@@2@@property_tree@1@_N@Z
	??$?0V?$basic_ptree@V?$basic_string@DU?$char_traits@D@std@@V?$allocator@D@2@@std@@V12@U?$less@V?$basic_string@DU?$char_traits@D@std@@V?$allocator@D@2@@std@@@2@@property_tree@boost@@@?$optional@AEBV?$basic_ptree@V?$basic_string@DU?$char_traits@D@std@@V?$allocator@D@2@@std@@V12@U?$less@V?$basic_string@DU?$char_traits@D@std@@V?$allocator@D@2@@std@@@2@@property_tree@boost@@@boost@@QEAA@AEAV?$basic_ptree@V?$basic_string@DU?$char_traits@D@std@@V?$allocator@D@2@@std@@V12@U?$less@V?$basic_string@DU?$char_traits@D@std@@V?$allocator@D@2@@std@@@2@@property_tree@1@_N@Z
	??$?0V?$basic_resolver_entry@Vtcp@ip@asio@boost@@@ip@asio@boost@@@?$allocator@U_Container_proxy@std@@@std@@QEAA@AEBV?$allocator@V?$basic_resolver_entry@Vtcp@ip@asio@boost@@@ip@asio@boost@@@1@@Z
	??$?0V?$basic_string@DU?$char_traits@D@std@@V?$allocator@D@2@@std@@$$V$0A@@?$tuple@$$QEAV?$basic_string@DU?$char_traits@D@std@@V?$allocator@D@2@@std@@@std@@QEAA@$$QEAV?$basic_string@DU?$char_traits@D@std@@V?$allocator@D@2@@1@@Z
	??$?0V?$basic_string@DU?$char_traits@D@std@@V?$allocator@D@2@@std@@$0A@@path@filesystem@std@@QEAA@AEBV?$basic_string@DU?$char_traits@D@std@@V?$allocator@D@2@@2@W4format@012@@Z
	??$?0V?$basic_string@DU?$char_traits@D@std@@V?$allocator@D@2@@std@@@?$_Tuple_val@$$QEAV?$basic_string@DU?$char_traits@D@std@@V?$allocator@D@2@@std@@@std@@QEAA@$$QEAV?$basic_string@DU?$char_traits@D@std@@V?$allocator@D@2@@1@@Z
	??$?0V?$basic_string@DU?$char_traits@D@std@@V?$allocator@D@2@@std@@@?$allocator@U_Container_proxy@std@@@std@@QEAA@AEBV?$allocator@V?$basic_string@DU?$char_traits@D@std@@V?$allocator@D@2@@std@@@1@@Z
	??$?0V?$basic_string@DU?$char_traits@D@std@@V?$allocator@D@2@@std@@@HttpReqArg@TgBot@@QEAA@V?$basic_string@DU?$char_traits@D@std@@V?$allocator@D@2@@std@@AEBV23@_N00@Z
	??$?0V?$basic_string@DU?$char_traits@D@std@@V?$allocator@D@2@@std@@@any@boost@@QEAA@AEBV?$basic_string@DU?$char_traits@D@std@@V?$allocator@D@2@@std@@@Z
	??$?0V?$basic_string@DU?$char_traits@D@std@@V?$allocator@D@2@@std@@@ptree_bad_data@property_tree@boost@@QEAA@AEBV?$basic_string@DU?$char_traits@D@std@@V?$allocator@D@2@@std@@0@Z
	??$?0V?$basic_string@DU?$char_traits@D@std@@V?$allocator@D@2@@std@@V?$basic_ptree@V?$basic_string@DU?$char_traits@D@std@@V?$allocator@D@2@@std@@V12@U?$less@V?$basic_string@DU?$char_traits@D@std@@V?$allocator@D@2@@std@@@2@@property_tree@boost@@$0A@@?$pair@$$CBV?$basic_string@DU?$char_traits@D@std@@V?$allocator@D@2@@std@@V?$basic_ptree@V?$basic_string@DU?$char_traits@D@std@@V?$allocator@D@2@@std@@V12@U?$less@V?$basic_string@DU?$char_traits@D@std@@V?$allocator@D@2@@std@@@2@@property_tree@boost@@@std@@QEAA@$$QEAU?$pair@V?$basic_string@DU?$char_traits@D@std@@V?$allocator@D@2@@std@@V?$basic_ptree@V?$basic_string@DU?$char_traits@D@std@@V?$allocator@D@2@@std@@V12@U?$less@V?$basic_string@DU?$char_traits@D@std@@V?$allocator@D@2@@std@@@2@@property_tree@boost@@@1@@Z
	??$?0V?$basic_string@DU?$char_traits@D@std@@V?$allocator@D@2@@std@@V?$basic_ptree@V?$basic_string@DU?$char_traits@D@std@@V?$allocator@D@2@@std@@V12@U?$less@V?$basic_string@DU?$char_traits@D@std@@V?$allocator@D@2@@std@@@2@@property_tree@boost@@$0A@@?$pair@V?$basic_string@DU?$char_traits@D@std@@V?$allocator@D@2@@std@@V?$basic_ptree@V?$basic_string@DU?$char_traits@D@std@@V?$allocator@D@2@@std@@V12@U?$less@V?$basic_string@DU?$char_traits@D@std@@V?$allocator@D@2@@std@@@2@@property_tree@boost@@@std@@QEAA@$$QEAV?$basic_string@DU?$char_traits@D@std@@V?$allocator@D@2@@1@$$QEAV?$basic_ptree@V?$basic_string@DU?$char_traits@D@std@@V?$allocator@D@2@@std@@V12@U?$less@V?$basic_string@DU?$char_traits@D@std@@V?$allocator@D@2@@std@@@2@@property_tree@boost@@@Z
	??$?0V?$basic_string_view@DU?$char_traits@D@std@@@std@@$0A@@?$basic_string@DU?$char_traits@D@std@@V?$allocator@D@2@@std@@QEAA@AEBV?$basic_string_view@DU?$char_traits@D@std@@@1@AEBV?$allocator@D@1@@Z
	??$?0V?$basic_string_view@_WU?$char_traits@_W@std@@@std@@$0A@@?$basic_string@_WU?$char_traits@_W@std@@V?$allocator@_W@2@@std@@QEAA@AEBV?$basic_string_view@_WU?$char_traits@_W@std@@@1@AEBV?$allocator@_W@1@@Z
	??$?0V?$basic_string_view@_WU?$char_traits@_W@std@@@std@@$0A@@path@filesystem@std@@QEAA@AEBV?$basic_string_view@_WU?$char_traits@_W@std@@@2@W4format@012@@Z
	??$?0V?$bidir_node_iterator@U?$sequenced_index_node@U?$ordered_index_node@Unull_augment_policy@detail@multi_index@boost@@U?$index_node_base@U?$pair@$$CBV?$basic_string@DU?$char_traits@D@std@@V?$allocator@D@2@@std@@V?$basic_ptree@V?$basic_string@DU?$char_traits@D@std@@V?$allocator@D@2@@std@@V12@U?$less@V?$basic_string@DU?$char_traits@D@std@@V?$allocator@D@2@@std@@@2@@property_tree@boost@@@std@@V?$allocator@U?$pair@$$CBV?$basic_string@DU?$char_traits@D@std@@V?$allocator@D@2@@std@@V?$basic_ptree@V?$basic_string@DU?$char_traits@D@std@@V?$allocator@D@2@@std@@V12@U?$less@V?$basic_string@DU?$char_traits@D@std@@V?$allocator@D@2@@std@@@2@@property_tree@boost@@@std@@@2@@234@@detail@multi_index@boost@@@detail@multi_index@boost@@@detail@multi_index@boost@@AEA_N$0A@@?$pair@V?$bidir_node_iterator@U?$sequenced_index_node@U?$ordered_index_node@Unull_augment_policy@detail@multi_index@boost@@U?$index_node_base@U?$pair@$$CBV?$basic_string@DU?$char_traits@D@std@@V?$allocator@D@2@@std@@V?$basic_ptree@V?$basic_string@DU?$char_traits@D@std@@V?$allocator@D@2@@std@@V12@U?$less@V?$basic_string@DU?$char_traits@D@std@@V?$allocator@D@2@@std@@@2@@property_tree@boost@@@std@@V?$allocator@U?$pair@$$CBV?$basic_string@DU?$char_traits@D@std@@V?$allocator@D@2@@std@@V?$basic_ptree@V?$basic_string@DU?$char_traits@D@std@@V?$allocator@D@2@@std@@V12@U?$less@V?$basic_string@DU?$char_traits@D@std@@V?$allocator@D@2@@std@@@2@@property_tree@boost@@@std@@@2@@234@@detail@multi_index@boost@@@detail@multi_index@boost@@@detail@multi_index@boost@@_N@std@@QEAA@$$QEAV?$bidir_node_iterator@U?$sequenced_index_node@U?$ordered_index_node@Unull_augment_policy@detail@multi_index@boost@@U?$index_node_base@U?$pair@$$CBV?$basic_string@DU?$char_traits@D@std@@V?$allocator@D@2@@std@@V?$basic_ptree@V?$basic_string@DU?$char_traits@D@std@@V?$allocator@D@2@@std@@V12@U?$less@V?$basic_string@DU?$char_traits@D@std@@V?$allocator@D@2@@std@@@2@@property_tree@boost@@@std@@V?$allocator@U?$pair@$$CBV?$basic_string@DU?$char_traits@D@std@@V?$allocator@D@2@@std@@V?$basic_ptree@V?$basic_string@DU?$char_traits@D@std@@V?$allocator@D@2@@std@@V12@U?$less@V?$basic_string@DU?$char_traits@D@std@@V?$allocator@D@2@@std@@@2@@property_tree@boost@@@std@@@2@@234@@detail@multi_index@boost@@@detail@multi_index@boost@@@detail@multi_index@boost@@AEA_N@Z
	??$?0V?$buffer_debug_check@V?$_Vector_iterator@V?$_Vector_val@U?$_Simple_types@E@std@@@std@@@std@@@detail@asio@boost@@$0A@@?$_Func_impl_no_alloc@V?$buffer_debug_check@V?$_Vector_iterator@V?$_Vector_val@U?$_Simple_types@E@std@@@std@@@std@@@detail@asio@boost@@X$$V@std@@QEAA@$$QEAV?$buffer_debug_check@V?$_Vector_iterator@V?$_Vector_val@U?$_Simple_types@E@std@@@std@@@std@@@detail@asio@boost@@@Z
	??$?0V?$buffer_debug_check@V?$_Vector_iterator@V?$_Vector_val@U?$_Simple_types@E@std@@@std@@@std@@@detail@asio@boost@@$0A@@?$function@$$A6AXXZ@std@@QEAA@$$QEAV?$buffer_debug_check@V?$_Vector_iterator@V?$_Vector_val@U?$_Simple_types@E@std@@@std@@@std@@@detail@asio@boost@@@Z
	??$?0V?$function@$$A6AXV?$shared_ptr@VCallbackQuery@TgBot@@@std@@@Z@std@@@?$allocator@U_Container_proxy@std@@@std@@QEAA@AEBV?$allocator@V?$function@$$A6AXV?$shared_ptr@VCallbackQuery@TgBot@@@std@@@Z@std@@@1@@Z
	??$?0V?$function@$$A6AXV?$shared_ptr@VChatJoinRequest@TgBot@@@std@@@Z@std@@@?$allocator@U_Container_proxy@std@@@std@@QEAA@AEBV?$allocator@V?$function@$$A6AXV?$shared_ptr@VChatJoinRequest@TgBot@@@std@@@Z@std@@@1@@Z
	??$?0V?$function@$$A6AXV?$shared_ptr@VChatMemberUpdated@TgBot@@@std@@@Z@std@@@?$allocator@U_Container_proxy@std@@@std@@QEAA@AEBV?$allocator@V?$function@$$A6AXV?$shared_ptr@VChatMemberUpdated@TgBot@@@std@@@Z@std@@@1@@Z
	??$?0V?$function@$$A6AXV?$shared_ptr@VChosenInlineResult@TgBot@@@std@@@Z@std@@@?$allocator@U_Container_proxy@std@@@std@@QEAA@AEBV?$allocator@V?$function@$$A6AXV?$shared_ptr@VChosenInlineResult@TgBot@@@std@@@Z@std@@@1@@Z
	??$?0V?$function@$$A6AXV?$shared_ptr@VInlineQuery@TgBot@@@std@@@Z@std@@@?$allocator@U_Container_proxy@std@@@std@@QEAA@AEBV?$allocator@V?$function@$$A6AXV?$shared_ptr@VInlineQuery@TgBot@@@std@@@Z@std@@@1@@Z
	??$?0V?$function@$$A6AXV?$shared_ptr@VMessage@TgBot@@@std@@@Z@std@@@?$allocator@U_Container_proxy@std@@@std@@QEAA@AEBV?$allocator@V?$function@$$A6AXV?$shared_ptr@VMessage@TgBot@@@std@@@Z@std@@@1@@Z
	??$?0V?$function@$$A6AXV?$shared_ptr@VPoll@TgBot@@@std@@@Z@std@@@?$allocator@U_Container_proxy@std@@@std@@QEAA@AEBV?$allocator@V?$function@$$A6AXV?$shared_ptr@VPoll@TgBot@@@std@@@Z@std@@@1@@Z
	??$?0V?$function@$$A6AXV?$shared_ptr@VPollAnswer@TgBot@@@std@@@Z@std@@@?$allocator@U_Container_proxy@std@@@std@@QEAA@AEBV?$allocator@V?$function@$$A6AXV?$shared_ptr@VPollAnswer@TgBot@@@std@@@Z@std@@@1@@Z
	??$?0V?$function@$$A6AXV?$shared_ptr@VPreCheckoutQuery@TgBot@@@std@@@Z@std@@@?$allocator@U_Container_proxy@std@@@std@@QEAA@AEBV?$allocator@V?$function@$$A6AXV?$shared_ptr@VPreCheckoutQuery@TgBot@@@std@@@Z@std@@@1@@Z
	??$?0V?$function@$$A6AXV?$shared_ptr@VShippingQuery@TgBot@@@std@@@Z@std@@@?$allocator@U_Container_proxy@std@@@std@@QEAA@AEBV?$allocator@V?$function@$$A6AXV?$shared_ptr@VShippingQuery@TgBot@@@std@@@Z@std@@@1@@Z
	??$?0V?$shared_ptr@VBotCommand@TgBot@@@std@@@?$allocator@U_Container_proxy@std@@@std@@QEAA@AEBV?$allocator@V?$shared_ptr@VBotCommand@TgBot@@@std@@@1@@Z
	??$?0V?$shared_ptr@VChatMember@TgBot@@@std@@@?$allocator@U_Container_proxy@std@@@std@@QEAA@AEBV?$allocator@V?$shared_ptr@VChatMember@TgBot@@@std@@@1@@Z
	??$?0V?$shared_ptr@VEncryptedPassportElement@TgBot@@@std@@@?$allocator@U_Container_proxy@std@@@std@@QEAA@AEBV?$allocator@V?$shared_ptr@VEncryptedPassportElement@TgBot@@@std@@@1@@Z
	??$?0V?$shared_ptr@VGameHighScore@TgBot@@@std@@@?$allocator@U_Container_proxy@std@@@std@@QEAA@AEBV?$allocator@V?$shared_ptr@VGameHighScore@TgBot@@@std@@@1@@Z
	??$?0V?$shared_ptr@VInlineKeyboardButton@TgBot@@@std@@@?$allocator@U_Container_proxy@std@@@std@@QEAA@AEBV?$allocator@V?$shared_ptr@VInlineKeyboardButton@TgBot@@@std@@@1@@Z
	??$?0V?$shared_ptr@VKeyboardButton@TgBot@@@std@@@?$allocator@U_Container_proxy@std@@@std@@QEAA@AEBV?$allocator@V?$shared_ptr@VKeyboardButton@TgBot@@@std@@@1@@Z
	??$?0V?$shared_ptr@VLabeledPrice@TgBot@@@std@@@?$allocator@U_Container_proxy@std@@@std@@QEAA@AEBV?$allocator@V?$shared_ptr@VLabeledPrice@TgBot@@@std@@@1@@Z
	??$?0V?$shared_ptr@VMessage@TgBot@@@std@@@?$allocator@U_Container_proxy@std@@@std@@QEAA@AEBV?$allocator@V?$shared_ptr@VMessage@TgBot@@@std@@@1@@Z
	??$?0V?$shared_ptr@VMessageEntity@TgBot@@@std@@@?$allocator@U_Container_proxy@std@@@std@@QEAA@AEBV?$allocator@V?$shared_ptr@VMessageEntity@TgBot@@@std@@@1@@Z
	??$?0V?$shared_ptr@VPassportFile@TgBot@@@std@@@?$allocator@U_Container_proxy@std@@@std@@QEAA@AEBV?$allocator@V?$shared_ptr@VPassportFile@TgBot@@@std@@@1@@Z
	??$?0V?$shared_ptr@VPhotoSize@TgBot@@@std@@@?$allocator@U_Container_proxy@std@@@std@@QEAA@AEBV?$allocator@V?$shared_ptr@VPhotoSize@TgBot@@@std@@@1@@Z
	??$?0V?$shared_ptr@VPollOption@TgBot@@@std@@@?$allocator@U_Container_proxy@std@@@std@@QEAA@AEBV?$allocator@V?$shared_ptr@VPollOption@TgBot@@@std@@@1@@Z
	??$?0V?$shared_ptr@VSticker@TgBot@@@std@@@?$allocator@U_Container_proxy@std@@@std@@QEAA@AEBV?$allocator@V?$shared_ptr@VSticker@TgBot@@@std@@@1@@Z
	??$?0V?$shared_ptr@VUpdate@TgBot@@@std@@@?$allocator@U_Container_proxy@std@@@std@@QEAA@AEBV?$allocator@V?$shared_ptr@VUpdate@TgBot@@@std@@@1@@Z
	??$?0V?$shared_ptr@VUser@TgBot@@@std@@@?$allocator@U_Container_proxy@std@@@std@@QEAA@AEBV?$allocator@V?$shared_ptr@VUser@TgBot@@@std@@@1@@Z
	??$?0V?$string_path@V?$basic_string@DU?$char_traits@D@std@@V?$allocator@D@2@@std@@U?$id_translator@V?$basic_string@DU?$char_traits@D@std@@V?$allocator@D@2@@std@@@property_tree@boost@@@property_tree@boost@@@any@boost@@QEAA@AEBV?$string_path@V?$basic_string@DU?$char_traits@D@std@@V?$allocator@D@2@@std@@U?$id_translator@V?$basic_string@DU?$char_traits@D@std@@V?$allocator@D@2@@std@@@property_tree@boost@@@property_tree@1@@Z
	??$?0V?$string_path@V?$basic_string@DU?$char_traits@D@std@@V?$allocator@D@2@@std@@U?$id_translator@V?$basic_string@DU?$char_traits@D@std@@V?$allocator@D@2@@std@@@property_tree@boost@@@property_tree@boost@@@ptree_bad_path@property_tree@boost@@QEAA@AEBV?$basic_string@DU?$char_traits@D@std@@V?$allocator@D@2@@std@@AEBV?$string_path@V?$basic_string@DU?$char_traits@D@std@@V?$allocator@D@2@@std@@U?$id_translator@V?$basic_string@DU?$char_traits@D@std@@V?$allocator@D@2@@std@@@property_tree@boost@@@12@@Z
	??$?0V?$tuple@$$QEAV?$basic_string@DU?$char_traits@D@std@@V?$allocator@D@2@@std@@@std@@V?$tuple@$$V@1@$0A@$$Z$S@?$pair@$$CBV?$basic_string@DU?$char_traits@D@std@@V?$allocator@D@2@@std@@V12@@std@@AEAA@AEAV?$tuple@$$QEAV?$basic_string@DU?$char_traits@D@std@@V?$allocator@D@2@@std@@@1@AEAV?$tuple@$$V@1@U?$integer_sequence@_K$0A@@1@U?$integer_sequence@_K$S@1@@Z
	??$?0V?$tuple@AEBV?$basic_string@DU?$char_traits@D@std@@V?$allocator@D@2@@std@@@std@@V?$tuple@$$V@1@$0A@$$Z$S@?$pair@$$CBV?$basic_string@DU?$char_traits@D@std@@V?$allocator@D@2@@std@@V?$function@$$A6AXV?$shared_ptr@VMessage@TgBot@@@std@@@Z@2@@std@@AEAA@AEAV?$tuple@AEBV?$basic_string@DU?$char_traits@D@std@@V?$allocator@D@2@@std@@@1@AEAV?$tuple@$$V@1@U?$integer_sequence@_K$0A@@1@U?$integer_sequence@_K$S@1@@Z
	??$?0V?$variant@_JV?$basic_string@DU?$char_traits@D@std@@V?$allocator@D@2@@std@@@boost@@@HttpReqArg@TgBot@@QEAA@V?$basic_string@DU?$char_traits@D@std@@V?$allocator@D@2@@std@@AEBV?$variant@_JV?$basic_string@DU?$char_traits@D@std@@V?$allocator@D@2@@std@@@boost@@_N00@Z
	??$?0V?$vector@V?$basic_resolver_entry@Vtcp@ip@asio@boost@@@ip@asio@boost@@V?$allocator@V?$basic_resolver_entry@Vtcp@ip@asio@boost@@@ip@asio@boost@@@std@@@std@@$0A@@?$shared_ptr@V?$vector@V?$basic_resolver_entry@Vtcp@ip@asio@boost@@@ip@asio@boost@@V?$allocator@V?$basic_resolver_entry@Vtcp@ip@asio@boost@@@ip@asio@boost@@@std@@@std@@@std@@QEAA@PEAV?$vector@V?$basic_resolver_entry@Vtcp@ip@asio@boost@@@ip@asio@boost@@V?$allocator@V?$basic_resolver_entry@Vtcp@ip@asio@boost@@@ip@asio@boost@@@std@@@1@@Z
	??$?0V?$vector@V?$shared_ptr@VInlineKeyboardButton@TgBot@@@std@@V?$allocator@V?$shared_ptr@VInlineKeyboardButton@TgBot@@@std@@@2@@std@@@?$allocator@U_Container_proxy@std@@@std@@QEAA@AEBV?$allocator@V?$vector@V?$shared_ptr@VInlineKeyboardButton@TgBot@@@std@@V?$allocator@V?$shared_ptr@VInlineKeyboardButton@TgBot@@@std@@@2@@std@@@1@@Z
	??$?0V?$vector@V?$shared_ptr@VKeyboardButton@TgBot@@@std@@V?$allocator@V?$shared_ptr@VKeyboardButton@TgBot@@@std@@@2@@std@@@?$allocator@U_Container_proxy@std@@@std@@QEAA@AEBV?$allocator@V?$vector@V?$shared_ptr@VKeyboardButton@TgBot@@@std@@V?$allocator@V?$shared_ptr@VKeyboardButton@TgBot@@@std@@@2@@std@@@1@@Z
	??$?0V?$vector@V?$shared_ptr@VPhotoSize@TgBot@@@std@@V?$allocator@V?$shared_ptr@VPhotoSize@TgBot@@@std@@@2@@std@@@?$allocator@U_Container_proxy@std@@@std@@QEAA@AEBV?$allocator@V?$vector@V?$shared_ptr@VPhotoSize@TgBot@@@std@@V?$allocator@V?$shared_ptr@VPhotoSize@TgBot@@@std@@@2@@std@@@1@@Z
	??$?0VBotCommandScope@TgBot@@@?$shared_ptr@VBotCommandScopeAllChatAdministrators@TgBot@@@std@@QEAA@AEBV?$shared_ptr@VBotCommandScope@TgBot@@@1@PEAVBotCommandScopeAllChatAdministrators@TgBot@@@Z
	??$?0VBotCommandScope@TgBot@@@?$shared_ptr@VBotCommandScopeAllGroupChats@TgBot@@@std@@QEAA@AEBV?$shared_ptr@VBotCommandScope@TgBot@@@1@PEAVBotCommandScopeAllGroupChats@TgBot@@@Z
	??$?0VBotCommandScope@TgBot@@@?$shared_ptr@VBotCommandScopeAllPrivateChats@TgBot@@@std@@QEAA@AEBV?$shared_ptr@VBotCommandScope@TgBot@@@1@PEAVBotCommandScopeAllPrivateChats@TgBot@@@Z
	??$?0VBotCommandScope@TgBot@@@?$shared_ptr@VBotCommandScopeChat@TgBot@@@std@@QEAA@AEBV?$shared_ptr@VBotCommandScope@TgBot@@@1@PEAVBotCommandScopeChat@TgBot@@@Z
	??$?0VBotCommandScope@TgBot@@@?$shared_ptr@VBotCommandScopeChatAdministrators@TgBot@@@std@@QEAA@AEBV?$shared_ptr@VBotCommandScope@TgBot@@@1@PEAVBotCommandScopeChatAdministrators@TgBot@@@Z
	??$?0VBotCommandScope@TgBot@@@?$shared_ptr@VBotCommandScopeChatMember@TgBot@@@std@@QEAA@AEBV?$shared_ptr@VBotCommandScope@TgBot@@@1@PEAVBotCommandScopeChatMember@TgBot@@@Z
	??$?0VBotCommandScope@TgBot@@@?$shared_ptr@VBotCommandScopeDefault@TgBot@@@std@@QEAA@AEBV?$shared_ptr@VBotCommandScope@TgBot@@@1@PEAVBotCommandScopeDefault@TgBot@@@Z
	??$?0VBotCommandScopeAllChatAdministrators@TgBot@@@?$shared_ptr@VBotCommandScope@TgBot@@@std@@QEAA@$$QEAV?$shared_ptr@VBotCommandScopeAllChatAdministrators@TgBot@@@1@PEAVBotCommandScope@TgBot@@@Z
	??$?0VBotCommandScopeAllGroupChats@TgBot@@@?$shared_ptr@VBotCommandScope@TgBot@@@std@@QEAA@$$QEAV?$shared_ptr@VBotCommandScopeAllGroupChats@TgBot@@@1@PEAVBotCommandScope@TgBot@@@Z
	??$?0VBotCommandScopeAllPrivateChats@TgBot@@@?$shared_ptr@VBotCommandScope@TgBot@@@std@@QEAA@$$QEAV?$shared_ptr@VBotCommandScopeAllPrivateChats@TgBot@@@1@PEAVBotCommandScope@TgBot@@@Z
	??$?0VBotCommandScopeChat@TgBot@@@?$shared_ptr@VBotCommandScope@TgBot@@@std@@QEAA@$$QEAV?$shared_ptr@VBotCommandScopeChat@TgBot@@@1@PEAVBotCommandScope@TgBot@@@Z
	??$?0VBotCommandScopeChatAdministrators@TgBot@@@?$shared_ptr@VBotCommandScope@TgBot@@@std@@QEAA@$$QEAV?$shared_ptr@VBotCommandScopeChatAdministrators@TgBot@@@1@PEAVBotCommandScope@TgBot@@@Z
	??$?0VBotCommandScopeChatMember@TgBot@@@?$shared_ptr@VBotCommandScope@TgBot@@@std@@QEAA@$$QEAV?$shared_ptr@VBotCommandScopeChatMember@TgBot@@@1@PEAVBotCommandScope@TgBot@@@Z
	??$?0VBotCommandScopeDefault@TgBot@@@?$shared_ptr@VBotCommandScope@TgBot@@@std@@QEAA@$$QEAV?$shared_ptr@VBotCommandScopeDefault@TgBot@@@1@PEAVBotCommandScope@TgBot@@@Z
	??$?0VChatMember@TgBot@@@?$shared_ptr@VChatMemberAdministrator@TgBot@@@std@@QEAA@AEBV?$shared_ptr@VChatMember@TgBot@@@1@PEAVChatMemberAdministrator@TgBot@@@Z
	??$?0VChatMember@TgBot@@@?$shared_ptr@VChatMemberBanned@TgBot@@@std@@QEAA@AEBV?$shared_ptr@VChatMember@TgBot@@@1@PEAVChatMemberBanned@TgBot@@@Z
	??$?0VChatMember@TgBot@@@?$shared_ptr@VChatMemberLeft@TgBot@@@std@@QEAA@AEBV?$shared_ptr@VChatMember@TgBot@@@1@PEAVChatMemberLeft@TgBot@@@Z
	??$?0VChatMember@TgBot@@@?$shared_ptr@VChatMemberMember@TgBot@@@std@@QEAA@AEBV?$shared_ptr@VChatMember@TgBot@@@1@PEAVChatMemberMember@TgBot@@@Z
	??$?0VChatMember@TgBot@@@?$shared_ptr@VChatMemberOwner@TgBot@@@std@@QEAA@AEBV?$shared_ptr@VChatMember@TgBot@@@1@PEAVChatMemberOwner@TgBot@@@Z
	??$?0VChatMember@TgBot@@@?$shared_ptr@VChatMemberRestricted@TgBot@@@std@@QEAA@AEBV?$shared_ptr@VChatMember@TgBot@@@1@PEAVChatMemberRestricted@TgBot@@@Z
	??$?0VChatMemberAdministrator@TgBot@@@?$shared_ptr@VChatMember@TgBot@@@std@@QEAA@$$QEAV?$shared_ptr@VChatMemberAdministrator@TgBot@@@1@PEAVChatMember@TgBot@@@Z
	??$?0VChatMemberBanned@TgBot@@@?$shared_ptr@VChatMember@TgBot@@@std@@QEAA@$$QEAV?$shared_ptr@VChatMemberBanned@TgBot@@@1@PEAVChatMember@TgBot@@@Z
	??$?0VChatMemberLeft@TgBot@@@?$shared_ptr@VChatMember@TgBot@@@std@@QEAA@$$QEAV?$shared_ptr@VChatMemberLeft@TgBot@@@1@PEAVChatMember@TgBot@@@Z
	??$?0VChatMemberMember@TgBot@@@?$shared_ptr@VChatMember@TgBot@@@std@@QEAA@$$QEAV?$shared_ptr@VChatMemberMember@TgBot@@@1@PEAVChatMember@TgBot@@@Z
	??$?0VChatMemberOwner@TgBot@@@?$shared_ptr@VChatMember@TgBot@@@std@@QEAA@$$QEAV?$shared_ptr@VChatMemberOwner@TgBot@@@1@PEAVChatMember@TgBot@@@Z
	??$?0VChatMemberRestricted@TgBot@@@?$shared_ptr@VChatMember@TgBot@@@std@@QEAA@$$QEAV?$shared_ptr@VChatMemberRestricted@TgBot@@@1@PEAVChatMember@TgBot@@@Z
	??$?0VForceReply@TgBot@@@?$shared_ptr@VGenericReply@TgBot@@@std@@QEAA@$$QEAV?$shared_ptr@VForceReply@TgBot@@@1@PEAVGenericReply@TgBot@@@Z
	??$?0VGenericReply@TgBot@@@?$shared_ptr@VForceReply@TgBot@@@std@@QEAA@AEBV?$shared_ptr@VGenericReply@TgBot@@@1@PEAVForceReply@TgBot@@@Z
	??$?0VGenericReply@TgBot@@@?$shared_ptr@VInlineKeyboardMarkup@TgBot@@@std@@QEAA@AEBV?$shared_ptr@VGenericReply@TgBot@@@1@PEAVInlineKeyboardMarkup@TgBot@@@Z
	??$?0VGenericReply@TgBot@@@?$shared_ptr@VReplyKeyboardMarkup@TgBot@@@std@@QEAA@AEBV?$shared_ptr@VGenericReply@TgBot@@@1@PEAVReplyKeyboardMarkup@TgBot@@@Z
	??$?0VGenericReply@TgBot@@@?$shared_ptr@VReplyKeyboardRemove@TgBot@@@std@@QEAA@AEBV?$shared_ptr@VGenericReply@TgBot@@@1@PEAVReplyKeyboardRemove@TgBot@@@Z
	??$?0VHttpReqArg@TgBot@@@?$allocator@U_Container_proxy@std@@@std@@QEAA@AEBV?$allocator@VHttpReqArg@TgBot@@@1@@Z
	??$?0VInlineKeyboardMarkup@TgBot@@$0A@@?$shared_ptr@VGenericReply@TgBot@@@std@@QEAA@AEBV?$shared_ptr@VInlineKeyboardMarkup@TgBot@@@1@@Z
	??$?0VInlineKeyboardMarkup@TgBot@@@?$shared_ptr@VGenericReply@TgBot@@@std@@QEAA@$$QEAV?$shared_ptr@VInlineKeyboardMarkup@TgBot@@@1@PEAVGenericReply@TgBot@@@Z
	??$?0VInlineQueryResult@TgBot@@@?$shared_ptr@VInlineQueryResultArticle@TgBot@@@std@@QEAA@AEBV?$shared_ptr@VInlineQueryResult@TgBot@@@1@PEAVInlineQueryResultArticle@TgBot@@@Z
	??$?0VInlineQueryResult@TgBot@@@?$shared_ptr@VInlineQueryResultAudio@TgBot@@@std@@QEAA@AEBV?$shared_ptr@VInlineQueryResult@TgBot@@@1@PEAVInlineQueryResultAudio@TgBot@@@Z
	??$?0VInlineQueryResult@TgBot@@@?$shared_ptr@VInlineQueryResultCachedAudio@TgBot@@@std@@QEAA@AEBV?$shared_ptr@VInlineQueryResult@TgBot@@@1@PEAVInlineQueryResultCachedAudio@TgBot@@@Z
	??$?0VInlineQueryResult@TgBot@@@?$shared_ptr@VInlineQueryResultCachedDocument@TgBot@@@std@@QEAA@AEBV?$shared_ptr@VInlineQueryResult@TgBot@@@1@PEAVInlineQueryResultCachedDocument@TgBot@@@Z
	??$?0VInlineQueryResult@TgBot@@@?$shared_ptr@VInlineQueryResultCachedGif@TgBot@@@std@@QEAA@AEBV?$shared_ptr@VInlineQueryResult@TgBot@@@1@PEAVInlineQueryResultCachedGif@TgBot@@@Z
	??$?0VInlineQueryResult@TgBot@@@?$shared_ptr@VInlineQueryResultCachedMpeg4Gif@TgBot@@@std@@QEAA@AEBV?$shared_ptr@VInlineQueryResult@TgBot@@@1@PEAVInlineQueryResultCachedMpeg4Gif@TgBot@@@Z
	??$?0VInlineQueryResult@TgBot@@@?$shared_ptr@VInlineQueryResultCachedPhoto@TgBot@@@std@@QEAA@AEBV?$shared_ptr@VInlineQueryResult@TgBot@@@1@PEAVInlineQueryResultCachedPhoto@TgBot@@@Z
	??$?0VInlineQueryResult@TgBot@@@?$shared_ptr@VInlineQueryResultCachedSticker@TgBot@@@std@@QEAA@AEBV?$shared_ptr@VInlineQueryResult@TgBot@@@1@PEAVInlineQueryResultCachedSticker@TgBot@@@Z
	??$?0VInlineQueryResult@TgBot@@@?$shared_ptr@VInlineQueryResultCachedVideo@TgBot@@@std@@QEAA@AEBV?$shared_ptr@VInlineQueryResult@TgBot@@@1@PEAVInlineQueryResultCachedVideo@TgBot@@@Z
	??$?0VInlineQueryResult@TgBot@@@?$shared_ptr@VInlineQueryResultCachedVoice@TgBot@@@std@@QEAA@AEBV?$shared_ptr@VInlineQueryResult@TgBot@@@1@PEAVInlineQueryResultCachedVoice@TgBot@@@Z
	??$?0VInlineQueryResult@TgBot@@@?$shared_ptr@VInlineQueryResultContact@TgBot@@@std@@QEAA@AEBV?$shared_ptr@VInlineQueryResult@TgBot@@@1@PEAVInlineQueryResultContact@TgBot@@@Z
	??$?0VInlineQueryResult@TgBot@@@?$shared_ptr@VInlineQueryResultDocument@TgBot@@@std@@QEAA@AEBV?$shared_ptr@VInlineQueryResult@TgBot@@@1@PEAVInlineQueryResultDocument@TgBot@@@Z
	??$?0VInlineQueryResult@TgBot@@@?$shared_ptr@VInlineQueryResultGame@TgBot@@@std@@QEAA@AEBV?$shared_ptr@VInlineQueryResult@TgBot@@@1@PEAVInlineQueryResultGame@TgBot@@@Z
	??$?0VInlineQueryResult@TgBot@@@?$shared_ptr@VInlineQueryResultGif@TgBot@@@std@@QEAA@AEBV?$shared_ptr@VInlineQueryResult@TgBot@@@1@PEAVInlineQueryResultGif@TgBot@@@Z
	??$?0VInlineQueryResult@TgBot@@@?$shared_ptr@VInlineQueryResultLocation@TgBot@@@std@@QEAA@AEBV?$shared_ptr@VInlineQueryResult@TgBot@@@1@PEAVInlineQueryResultLocation@TgBot@@@Z
	??$?0VInlineQueryResult@TgBot@@@?$shared_ptr@VInlineQueryResultMpeg4Gif@TgBot@@@std@@QEAA@AEBV?$shared_ptr@VInlineQueryResult@TgBot@@@1@PEAVInlineQueryResultMpeg4Gif@TgBot@@@Z
	??$?0VInlineQueryResult@TgBot@@@?$shared_ptr@VInlineQueryResultPhoto@TgBot@@@std@@QEAA@AEBV?$shared_ptr@VInlineQueryResult@TgBot@@@1@PEAVInlineQueryResultPhoto@TgBot@@@Z
	??$?0VInlineQueryResult@TgBot@@@?$shared_ptr@VInlineQueryResultVenue@TgBot@@@std@@QEAA@AEBV?$shared_ptr@VInlineQueryResult@TgBot@@@1@PEAVInlineQueryResultVenue@TgBot@@@Z
	??$?0VInlineQueryResult@TgBot@@@?$shared_ptr@VInlineQueryResultVideo@TgBot@@@std@@QEAA@AEBV?$shared_ptr@VInlineQueryResult@TgBot@@@1@PEAVInlineQueryResultVideo@TgBot@@@Z
	??$?0VInlineQueryResult@TgBot@@@?$shared_ptr@VInlineQueryResultVoice@TgBot@@@std@@QEAA@AEBV?$shared_ptr@VInlineQueryResult@TgBot@@@1@PEAVInlineQueryResultVoice@TgBot@@@Z
	??$?0VInlineQueryResultArticle@TgBot@@@?$shared_ptr@VInlineQueryResult@TgBot@@@std@@QEAA@$$QEAV?$shared_ptr@VInlineQueryResultArticle@TgBot@@@1@PEAVInlineQueryResult@TgBot@@@Z
	??$?0VInlineQueryResultAudio@TgBot@@@?$shared_ptr@VInlineQueryResult@TgBot@@@std@@QEAA@$$QEAV?$shared_ptr@VInlineQueryResultAudio@TgBot@@@1@PEAVInlineQueryResult@TgBot@@@Z
	??$?0VInlineQueryResultCachedAudio@TgBot@@@?$shared_ptr@VInlineQueryResult@TgBot@@@std@@QEAA@$$QEAV?$shared_ptr@VInlineQueryResultCachedAudio@TgBot@@@1@PEAVInlineQueryResult@TgBot@@@Z
	??$?0VInlineQueryResultCachedDocument@TgBot@@@?$shared_ptr@VInlineQueryResult@TgBot@@@std@@QEAA@$$QEAV?$shared_ptr@VInlineQueryResultCachedDocument@TgBot@@@1@PEAVInlineQueryResult@TgBot@@@Z
	??$?0VInlineQueryResultCachedGif@TgBot@@@?$shared_ptr@VInlineQueryResult@TgBot@@@std@@QEAA@$$QEAV?$shared_ptr@VInlineQueryResultCachedGif@TgBot@@@1@PEAVInlineQueryResult@TgBot@@@Z
	??$?0VInlineQueryResultCachedMpeg4Gif@TgBot@@@?$shared_ptr@VInlineQueryResult@TgBot@@@std@@QEAA@$$QEAV?$shared_ptr@VInlineQueryResultCachedMpeg4Gif@TgBot@@@1@PEAVInlineQueryResult@TgBot@@@Z
	??$?0VInlineQueryResultCachedPhoto@TgBot@@@?$shared_ptr@VInlineQueryResult@TgBot@@@std@@QEAA@$$QEAV?$shared_ptr@VInlineQueryResultCachedPhoto@TgBot@@@1@PEAVInlineQueryResult@TgBot@@@Z
	??$?0VInlineQueryResultCachedSticker@TgBot@@@?$shared_ptr@VInlineQueryResult@TgBot@@@std@@QEAA@$$QEAV?$shared_ptr@VInlineQueryResultCachedSticker@TgBot@@@1@PEAVInlineQueryResult@TgBot@@@Z
	??$?0VInlineQueryResultCachedVideo@TgBot@@@?$shared_ptr@VInlineQueryResult@TgBot@@@std@@QEAA@$$QEAV?$shared_ptr@VInlineQueryResultCachedVideo@TgBot@@@1@PEAVInlineQueryResult@TgBot@@@Z
	??$?0VInlineQueryResultCachedVoice@TgBot@@@?$shared_ptr@VInlineQueryResult@TgBot@@@std@@QEAA@$$QEAV?$shared_ptr@VInlineQueryResultCachedVoice@TgBot@@@1@PEAVInlineQueryResult@TgBot@@@Z
	??$?0VInlineQueryResultContact@TgBot@@@?$shared_ptr@VInlineQueryResult@TgBot@@@std@@QEAA@$$QEAV?$shared_ptr@VInlineQueryResultContact@TgBot@@@1@PEAVInlineQueryResult@TgBot@@@Z
	??$?0VInlineQueryResultDocument@TgBot@@@?$shared_ptr@VInlineQueryResult@TgBot@@@std@@QEAA@$$QEAV?$shared_ptr@VInlineQueryResultDocument@TgBot@@@1@PEAVInlineQueryResult@TgBot@@@Z
	??$?0VInlineQueryResultGame@TgBot@@@?$shared_ptr@VInlineQueryResult@TgBot@@@std@@QEAA@$$QEAV?$shared_ptr@VInlineQueryResultGame@TgBot@@@1@PEAVInlineQueryResult@TgBot@@@Z
	??$?0VInlineQueryResultGif@TgBot@@@?$shared_ptr@VInlineQueryResult@TgBot@@@std@@QEAA@$$QEAV?$shared_ptr@VInlineQueryResultGif@TgBot@@@1@PEAVInlineQueryResult@TgBot@@@Z
	??$?0VInlineQueryResultLocation@TgBot@@@?$shared_ptr@VInlineQueryResult@TgBot@@@std@@QEAA@$$QEAV?$shared_ptr@VInlineQueryResultLocation@TgBot@@@1@PEAVInlineQueryResult@TgBot@@@Z
	??$?0VInlineQueryResultMpeg4Gif@TgBot@@@?$shared_ptr@VInlineQueryResult@TgBot@@@std@@QEAA@$$QEAV?$shared_ptr@VInlineQueryResultMpeg4Gif@TgBot@@@1@PEAVInlineQueryResult@TgBot@@@Z
	??$?0VInlineQueryResultPhoto@TgBot@@@?$shared_ptr@VInlineQueryResult@TgBot@@@std@@QEAA@$$QEAV?$shared_ptr@VInlineQueryResultPhoto@TgBot@@@1@PEAVInlineQueryResult@TgBot@@@Z
	??$?0VInlineQueryResultVenue@TgBot@@@?$shared_ptr@VInlineQueryResult@TgBot@@@std@@QEAA@$$QEAV?$shared_ptr@VInlineQueryResultVenue@TgBot@@@1@PEAVInlineQueryResult@TgBot@@@Z
	??$?0VInlineQueryResultVideo@TgBot@@@?$shared_ptr@VInlineQueryResult@TgBot@@@std@@QEAA@$$QEAV?$shared_ptr@VInlineQueryResultVideo@TgBot@@@1@PEAVInlineQueryResult@TgBot@@@Z
	??$?0VInlineQueryResultVoice@TgBot@@@?$shared_ptr@VInlineQueryResult@TgBot@@@std@@QEAA@$$QEAV?$shared_ptr@VInlineQueryResultVoice@TgBot@@@1@PEAVInlineQueryResult@TgBot@@@Z
	??$?0VInputContactMessageContent@TgBot@@@?$shared_ptr@VInputMessageContent@TgBot@@@std@@QEAA@$$QEAV?$shared_ptr@VInputContactMessageContent@TgBot@@@1@PEAVInputMessageContent@TgBot@@@Z
	??$?0VInputInvoiceMessageContent@TgBot@@@?$shared_ptr@VInputMessageContent@TgBot@@@std@@QEAA@$$QEAV?$shared_ptr@VInputInvoiceMessageContent@TgBot@@@1@PEAVInputMessageContent@TgBot@@@Z
	??$?0VInputLocationMessageContent@TgBot@@@?$shared_ptr@VInputMessageContent@TgBot@@@std@@QEAA@$$QEAV?$shared_ptr@VInputLocationMessageContent@TgBot@@@1@PEAVInputMessageContent@TgBot@@@Z
	??$?0VInputMedia@TgBot@@@?$shared_ptr@VInputMediaAnimation@TgBot@@@std@@QEAA@AEBV?$shared_ptr@VInputMedia@TgBot@@@1@PEAVInputMediaAnimation@TgBot@@@Z
	??$?0VInputMedia@TgBot@@@?$shared_ptr@VInputMediaAudio@TgBot@@@std@@QEAA@AEBV?$shared_ptr@VInputMedia@TgBot@@@1@PEAVInputMediaAudio@TgBot@@@Z
	??$?0VInputMedia@TgBot@@@?$shared_ptr@VInputMediaDocument@TgBot@@@std@@QEAA@AEBV?$shared_ptr@VInputMedia@TgBot@@@1@PEAVInputMediaDocument@TgBot@@@Z
	??$?0VInputMedia@TgBot@@@?$shared_ptr@VInputMediaPhoto@TgBot@@@std@@QEAA@AEBV?$shared_ptr@VInputMedia@TgBot@@@1@PEAVInputMediaPhoto@TgBot@@@Z
	??$?0VInputMedia@TgBot@@@?$shared_ptr@VInputMediaVideo@TgBot@@@std@@QEAA@AEBV?$shared_ptr@VInputMedia@TgBot@@@1@PEAVInputMediaVideo@TgBot@@@Z
	??$?0VInputMediaAnimation@TgBot@@@?$shared_ptr@VInputMedia@TgBot@@@std@@QEAA@$$QEAV?$shared_ptr@VInputMediaAnimation@TgBot@@@1@PEAVInputMedia@TgBot@@@Z
	??$?0VInputMediaAudio@TgBot@@@?$shared_ptr@VInputMedia@TgBot@@@std@@QEAA@$$QEAV?$shared_ptr@VInputMediaAudio@TgBot@@@1@PEAVInputMedia@TgBot@@@Z
	??$?0VInputMediaDocument@TgBot@@@?$shared_ptr@VInputMedia@TgBot@@@std@@QEAA@$$QEAV?$shared_ptr@VInputMediaDocument@TgBot@@@1@PEAVInputMedia@TgBot@@@Z
	??$?0VInputMediaPhoto@TgBot@@@?$shared_ptr@VInputMedia@TgBot@@@std@@QEAA@$$QEAV?$shared_ptr@VInputMediaPhoto@TgBot@@@1@PEAVInputMedia@TgBot@@@Z
	??$?0VInputMediaVideo@TgBot@@@?$shared_ptr@VInputMedia@TgBot@@@std@@QEAA@$$QEAV?$shared_ptr@VInputMediaVideo@TgBot@@@1@PEAVInputMedia@TgBot@@@Z
	??$?0VInputMessageContent@TgBot@@@?$shared_ptr@VInputContactMessageContent@TgBot@@@std@@QEAA@AEBV?$shared_ptr@VInputMessageContent@TgBot@@@1@PEAVInputContactMessageContent@TgBot@@@Z
	??$?0VInputMessageContent@TgBot@@@?$shared_ptr@VInputInvoiceMessageContent@TgBot@@@std@@QEAA@AEBV?$shared_ptr@VInputMessageContent@TgBot@@@1@PEAVInputInvoiceMessageContent@TgBot@@@Z
	??$?0VInputMessageContent@TgBot@@@?$shared_ptr@VInputLocationMessageContent@TgBot@@@std@@QEAA@AEBV?$shared_ptr@VInputMessageContent@TgBot@@@1@PEAVInputLocationMessageContent@TgBot@@@Z
	??$?0VInputMessageContent@TgBot@@@?$shared_ptr@VInputTextMessageContent@TgBot@@@std@@QEAA@AEBV?$shared_ptr@VInputMessageContent@TgBot@@@1@PEAVInputTextMessageContent@TgBot@@@Z
	??$?0VInputMessageContent@TgBot@@@?$shared_ptr@VInputVenueMessageContent@TgBot@@@std@@QEAA@AEBV?$shared_ptr@VInputMessageContent@TgBot@@@1@PEAVInputVenueMessageContent@TgBot@@@Z
	??$?0VInputTextMessageContent@TgBot@@@?$shared_ptr@VInputMessageContent@TgBot@@@std@@QEAA@$$QEAV?$shared_ptr@VInputTextMessageContent@TgBot@@@1@PEAVInputMessageContent@TgBot@@@Z
	??$?0VInputVenueMessageContent@TgBot@@@?$shared_ptr@VInputMessageContent@TgBot@@@std@@QEAA@$$QEAV?$shared_ptr@VInputVenueMessageContent@TgBot@@@1@PEAVInputMessageContent@TgBot@@@Z
	??$?0VMenuButton@TgBot@@@?$shared_ptr@VMenuButtonCommands@TgBot@@@std@@QEAA@AEBV?$shared_ptr@VMenuButton@TgBot@@@1@PEAVMenuButtonCommands@TgBot@@@Z
	??$?0VMenuButton@TgBot@@@?$shared_ptr@VMenuButtonDefault@TgBot@@@std@@QEAA@AEBV?$shared_ptr@VMenuButton@TgBot@@@1@PEAVMenuButtonDefault@TgBot@@@Z
	??$?0VMenuButton@TgBot@@@?$shared_ptr@VMenuButtonWebApp@TgBot@@@std@@QEAA@AEBV?$shared_ptr@VMenuButton@TgBot@@@1@PEAVMenuButtonWebApp@TgBot@@@Z
	??$?0VMenuButtonCommands@TgBot@@@?$shared_ptr@VMenuButton@TgBot@@@std@@QEAA@$$QEAV?$shared_ptr@VMenuButtonCommands@TgBot@@@1@PEAVMenuButton@TgBot@@@Z
	??$?0VMenuButtonDefault@TgBot@@@?$shared_ptr@VMenuButton@TgBot@@@std@@QEAA@$$QEAV?$shared_ptr@VMenuButtonDefault@TgBot@@@1@PEAVMenuButton@TgBot@@@Z
	??$?0VMenuButtonWebApp@TgBot@@@?$shared_ptr@VMenuButton@TgBot@@@std@@QEAA@$$QEAV?$shared_ptr@VMenuButtonWebApp@TgBot@@@1@PEAVMenuButton@TgBot@@@Z
	??$?0VPassportElementError@TgBot@@@?$shared_ptr@VPassportElementErrorDataField@TgBot@@@std@@QEAA@AEBV?$shared_ptr@VPassportElementError@TgBot@@@1@PEAVPassportElementErrorDataField@TgBot@@@Z
	??$?0VPassportElementError@TgBot@@@?$shared_ptr@VPassportElementErrorFile@TgBot@@@std@@QEAA@AEBV?$shared_ptr@VPassportElementError@TgBot@@@1@PEAVPassportElementErrorFile@TgBot@@@Z
	??$?0VPassportElementError@TgBot@@@?$shared_ptr@VPassportElementErrorFiles@TgBot@@@std@@QEAA@AEBV?$shared_ptr@VPassportElementError@TgBot@@@1@PEAVPassportElementErrorFiles@TgBot@@@Z
	??$?0VPassportElementError@TgBot@@@?$shared_ptr@VPassportElementErrorFrontSide@TgBot@@@std@@QEAA@AEBV?$shared_ptr@VPassportElementError@TgBot@@@1@PEAVPassportElementErrorFrontSide@TgBot@@@Z
	??$?0VPassportElementError@TgBot@@@?$shared_ptr@VPassportElementErrorReverseSide@TgBot@@@std@@QEAA@AEBV?$shared_ptr@VPassportElementError@TgBot@@@1@PEAVPassportElementErrorReverseSide@TgBot@@@Z
	??$?0VPassportElementError@TgBot@@@?$shared_ptr@VPassportElementErrorSelfie@TgBot@@@std@@QEAA@AEBV?$shared_ptr@VPassportElementError@TgBot@@@1@PEAVPassportElementErrorSelfie@TgBot@@@Z
	??$?0VPassportElementError@TgBot@@@?$shared_ptr@VPassportElementErrorTranslationFile@TgBot@@@std@@QEAA@AEBV?$shared_ptr@VPassportElementError@TgBot@@@1@PEAVPassportElementErrorTranslationFile@TgBot@@@Z
	??$?0VPassportElementError@TgBot@@@?$shared_ptr@VPassportElementErrorTranslationFiles@TgBot@@@std@@QEAA@AEBV?$shared_ptr@VPassportElementError@TgBot@@@1@PEAVPassportElementErrorTranslationFiles@TgBot@@@Z
	??$?0VPassportElementError@TgBot@@@?$shared_ptr@VPassportElementErrorUnspecified@TgBot@@@std@@QEAA@AEBV?$shared_ptr@VPassportElementError@TgBot@@@1@PEAVPassportElementErrorUnspecified@TgBot@@@Z
	??$?0VPassportElementErrorDataField@TgBot@@@?$shared_ptr@VPassportElementError@TgBot@@@std@@QEAA@$$QEAV?$shared_ptr@VPassportElementErrorDataField@TgBot@@@1@PEAVPassportElementError@TgBot@@@Z
	??$?0VPassportElementErrorFile@TgBot@@@?$shared_ptr@VPassportElementError@TgBot@@@std@@QEAA@$$QEAV?$shared_ptr@VPassportElementErrorFile@TgBot@@@1@PEAVPassportElementError@TgBot@@@Z
	??$?0VPassportElementErrorFiles@TgBot@@@?$shared_ptr@VPassportElementError@TgBot@@@std@@QEAA@$$QEAV?$shared_ptr@VPassportElementErrorFiles@TgBot@@@1@PEAVPassportElementError@TgBot@@@Z
	??$?0VPassportElementErrorFrontSide@TgBot@@@?$shared_ptr@VPassportElementError@TgBot@@@std@@QEAA@$$QEAV?$shared_ptr@VPassportElementErrorFrontSide@TgBot@@@1@PEAVPassportElementError@TgBot@@@Z
	??$?0VPassportElementErrorReverseSide@TgBot@@@?$shared_ptr@VPassportElementError@TgBot@@@std@@QEAA@$$QEAV?$shared_ptr@VPassportElementErrorReverseSide@TgBot@@@1@PEAVPassportElementError@TgBot@@@Z
	??$?0VPassportElementErrorSelfie@TgBot@@@?$shared_ptr@VPassportElementError@TgBot@@@std@@QEAA@$$QEAV?$shared_ptr@VPassportElementErrorSelfie@TgBot@@@1@PEAVPassportElementError@TgBot@@@Z
	??$?0VPassportElementErrorTranslationFile@TgBot@@@?$shared_ptr@VPassportElementError@TgBot@@@std@@QEAA@$$QEAV?$shared_ptr@VPassportElementErrorTranslationFile@TgBot@@@1@PEAVPassportElementError@TgBot@@@Z
	??$?0VPassportElementErrorTranslationFiles@TgBot@@@?$shared_ptr@VPassportElementError@TgBot@@@std@@QEAA@$$QEAV?$shared_ptr@VPassportElementErrorTranslationFiles@TgBot@@@1@PEAVPassportElementError@TgBot@@@Z
	??$?0VPassportElementErrorUnspecified@TgBot@@@?$shared_ptr@VPassportElementError@TgBot@@@std@@QEAA@$$QEAV?$shared_ptr@VPassportElementErrorUnspecified@TgBot@@@1@PEAVPassportElementError@TgBot@@@Z
	??$?0VReplyKeyboardMarkup@TgBot@@@?$shared_ptr@VGenericReply@TgBot@@@std@@QEAA@$$QEAV?$shared_ptr@VReplyKeyboardMarkup@TgBot@@@1@PEAVGenericReply@TgBot@@@Z
	??$?0VReplyKeyboardRemove@TgBot@@@?$shared_ptr@VGenericReply@TgBot@@@std@@QEAA@$$QEAV?$shared_ptr@VReplyKeyboardRemove@TgBot@@@1@PEAVGenericReply@TgBot@@@Z
	??$?0Vany_io_executor@asio@boost@@@stream_core@detail@ssl@asio@boost@@QEAA@PEAUssl_ctx_st@@AEBVany_io_executor@34@@Z
	??$?0Vconst_buffers_1@asio@boost@@@?$consuming_single_buffer@Vconst_buffers_1@asio@boost@@@detail@asio@boost@@QEAA@AEBVconst_buffers_1@23@@Z
	??$?0Vdo_init@openssl_init_base@detail@ssl@asio@boost@@$0A@@?$shared_ptr@Vdo_init@openssl_init_base@detail@ssl@asio@boost@@@std@@QEAA@PEAVdo_init@openssl_init_base@detail@ssl@asio@boost@@@Z
	??$?0Vexecutor_function@detail@asio@boost@@@?$executor_op@Vexecutor_function@detail@asio@boost@@V?$allocator@X@std@@Vwin_iocp_operation@234@@detail@asio@boost@@QEAA@$$QEAVexecutor_function@123@AEBV?$allocator@X@std@@@Z
	??$?0Vexecutor_function_view@detail@asio@boost@@@executor_function_view@detail@asio@boost@@QEAA@AEAV0123@@Z
	??$?0Vio_context@asio@boost@@@?$basic_resolver@Vtcp@ip@asio@boost@@Vany_io_executor@34@@ip@asio@boost@@QEAA@AEAVio_context@23@H@Z
	??$?0Vio_context@asio@boost@@@?$basic_socket@Vtcp@ip@asio@boost@@Vany_io_executor@34@@asio@boost@@QEAA@AEAVio_context@12@H@Z
	??$?0Vio_context@asio@boost@@@?$basic_stream_socket@Vtcp@ip@asio@boost@@Vany_io_executor@34@@asio@boost@@QEAA@AEAVio_context@12@H@Z
	??$?0Vio_context@asio@boost@@@?$io_object_impl@V?$resolver_service@Vtcp@ip@asio@boost@@@detail@asio@boost@@Vany_io_executor@34@@detail@asio@boost@@QEAA@HHAEAVio_context@23@@Z
	??$?0Vio_context@asio@boost@@@?$io_object_impl@V?$win_iocp_socket_service@Vtcp@ip@asio@boost@@@detail@asio@boost@@Vany_io_executor@34@@detail@asio@boost@@QEAA@HHAEAVio_context@23@@Z
	??$?0Vmutable_buffer@asio@boost@@@?$consuming_single_buffer@Vconst_buffers_1@asio@boost@@@detail@asio@boost@@QEAA@AEBVmutable_buffer@23@@Z
	??$?0Vmutable_buffers_1@asio@boost@@@?$consuming_single_buffer@Vmutable_buffers_1@asio@boost@@@detail@asio@boost@@QEAA@AEBVmutable_buffers_1@23@@Z
	??$?0W4addrinfo_errors@error@asio@boost@@@error_code@system@boost@@QEAA@W4addrinfo_errors@error@asio@2@PEAX@Z
	??$?0W4basic_errors@error@asio@boost@@@error_code@system@boost@@QEAA@W4basic_errors@error@asio@2@PEAX@Z
	??$?0W4misc_errors@error@asio@boost@@@error_code@system@boost@@QEAA@W4misc_errors@error@asio@2@PEAX@Z
	??$?0W4netdb_errors@error@asio@boost@@@error_code@system@boost@@QEAA@W4netdb_errors@error@asio@2@PEAX@Z
	??$?0X@?$recycling_allocator@V?$executor_op@Vexecutor_function@detail@asio@boost@@V?$allocator@X@std@@Vwin_iocp_operation@234@@detail@asio@boost@@Udefault_tag@thread_info_base@234@@detail@asio@boost@@QEAA@AEBV?$recycling_allocator@XUdefault_tag@thread_info_base@detail@asio@boost@@@123@@Z
	??$?0X@?$recycling_allocator@V?$executor_op@Vexecutor_function_view@detail@asio@boost@@V?$allocator@X@std@@Vwin_iocp_operation@234@@detail@asio@boost@@Udefault_tag@thread_info_base@234@@detail@asio@boost@@QEAA@AEBV?$recycling_allocator@XUdefault_tag@thread_info_base@detail@asio@boost@@@123@@Z
	??$?0XUnoop_deleter@socket_ops@detail@asio@boost@@$0A@@?$shared_ptr@X@std@@QEAA@PEAXUnoop_deleter@socket_ops@detail@asio@boost@@@Z
	??$?0_J$0A@@?$duration@_JU?$ratio@$00$0DLJKMKAA@@std@@@chrono@std@@QEAA@AEB_J@Z
	??$?0_J$0A@@?$duration@_JU?$ratio@$00$0DOI@@std@@@chrono@std@@QEAA@AEB_J@Z
	??$?0_J@HttpReqArg@TgBot@@QEAA@V?$basic_string@DU?$char_traits@D@std@@V?$allocator@D@2@@std@@AEB_J_N00@Z
	??$?0_JU?$ratio@$00$00@std@@$0A@@?$duration@_JU?$ratio@$00$0DLJKMKAA@@std@@@chrono@std@@QEAA@AEBV?$duration@_JU?$ratio@$00$00@std@@@12@@Z
	??$?0_JU?$ratio@$00$0DOI@@std@@$0A@@?$duration@_JU?$ratio@$00$0DLJKMKAA@@std@@@chrono@std@@QEAA@AEBV?$duration@_JU?$ratio@$00$0DOI@@std@@@12@@Z
	??$?0_KUmapped_type@?$reactor_op_queue@_K@detail@asio@boost@@$0A@@?$pair@_KUmapped_type@?$reactor_op_queue@_K@detail@asio@boost@@@std@@QEAA@XZ
	??$?0_N@HttpReqArg@TgBot@@QEAA@V?$basic_string@DU?$char_traits@D@std@@V?$allocator@D@2@@std@@AEB_N_N00@Z
	??$?0_W@?$allocator@U_Container_proxy@std@@@std@@QEAA@AEBV?$allocator@_W@1@@Z
	??$?4$$CBV?$basic_string@DU?$char_traits@D@std@@V?$allocator@D@2@@std@@V?$function@$$A6AXV?$shared_ptr@VMessage@TgBot@@@std@@@Z@1@$0A@@?$pair@V?$basic_string@DU?$char_traits@D@std@@V?$allocator@D@2@@std@@V?$function@$$A6AXV?$shared_ptr@VMessage@TgBot@@@std@@@Z@2@@std@@QEAAAEAU01@AEBU?$pair@$$CBV?$basic_string@DU?$char_traits@D@std@@V?$allocator@D@2@@std@@V?$function@$$A6AXV?$shared_ptr@VMessage@TgBot@@@std@@@Z@2@@1@@Z
	??$?4U?$pair@_KUmapped_type@?$reactor_op_queue@_K@detail@asio@boost@@@std@@$0A@@?$pair@_KUmapped_type@?$reactor_op_queue@_K@detail@asio@boost@@@std@@QEAAAEAU01@$$QEAU01@@Z
	??$?4W4basic_errors@error@asio@boost@@@error_code@system@boost@@QEAAAEAV012@W4basic_errors@error@asio@2@@Z
	??$?4W4misc_errors@error@asio@boost@@@error_code@system@boost@@QEAAAEAV012@W4misc_errors@error@asio@2@@Z
	??$?4W4stream_errors@error@ssl@asio@boost@@@error_code@system@boost@@QEAAAEAV012@W4stream_errors@error@ssl@asio@2@@Z
	??$?6DU?$char_traits@D@std@@@std@@YAAEAV?$basic_ostream@DU?$char_traits@D@std@@@0@AEAV10@AEBU?$_Fillobj@D@0@@Z
	??$?6DU?$char_traits@D@std@@@std@@YAAEAV?$basic_ostream@DU?$char_traits@D@std@@@0@AEAV10@AEBU?$_Smanip@_J@0@@Z
	??$?6DU?$char_traits@D@std@@V?$allocator@D@1@@std@@YAAEAV?$basic_ostream@DU?$char_traits@D@std@@@0@AEAV10@AEBV?$basic_string@DU?$char_traits@D@std@@V?$allocator@D@2@@0@@Z
	??$?6DU?$char_traits@D@std@@_JV?$basic_string@DU?$char_traits@D@std@@V?$allocator@D@2@@1@@boost@@YAAEAV?$basic_ostream@DU?$char_traits@D@std@@@std@@AEAV12@AEBV?$variant@_JV?$basic_string@DU?$char_traits@D@std@@V?$allocator@D@2@@std@@@0@@Z
	??$?6U?$char_traits@D@std@@@std@@YAAEAV?$basic_ostream@DU?$char_traits@D@std@@@0@AEAV10@D@Z
	??$?6U?$char_traits@D@std@@@std@@YAAEAV?$basic_ostream@DU?$char_traits@D@std@@@0@AEAV10@PEBD@Z
	??$?8DD@std@@YA_NAEBV?$allocator@D@0@0@Z
	??$?8DU?$char_traits@D@std@@@std@@YA_NAEBV?$istreambuf_iterator@DU?$char_traits@D@std@@@0@0@Z
	??$?8DU?$char_traits@D@std@@V?$allocator@D@1@@std@@YA_NAEBV?$basic_string@DU?$char_traits@D@std@@V?$allocator@D@2@@0@0@Z
	??$?8DU?$char_traits@D@std@@V?$allocator@D@1@@std@@YA_NAEBV?$basic_string@DU?$char_traits@D@std@@V?$allocator@D@2@@0@QEBD@Z
	??$?8U?$ordered_index_node@Unull_augment_policy@detail@multi_index@boost@@U?$index_node_base@U?$pair@$$CBV?$basic_string@DU?$char_traits@D@std@@V?$allocator@D@2@@std@@V?$basic_ptree@V?$basic_string@DU?$char_traits@D@std@@V?$allocator@D@2@@std@@V12@U?$less@V?$basic_string@DU?$char_traits@D@std@@V?$allocator@D@2@@std@@@2@@property_tree@boost@@@std@@V?$allocator@U?$pair@$$CBV?$basic_string@DU?$char_traits@D@std@@V?$allocator@D@2@@std@@V?$basic_ptree@V?$basic_string@DU?$char_traits@D@std@@V?$allocator@D@2@@std@@V12@U?$less@V?$basic_string@DU?$char_traits@D@std@@V?$allocator@D@2@@std@@@2@@property_tree@boost@@@std@@@2@@234@@detail@multi_index@boost@@@detail@multi_index@boost@@YA_NAEBV?$bidir_node_iterator@U?$ordered_index_node@Unull_augment_policy@detail@multi_index@boost@@U?$index_node_base@U?$pair@$$CBV?$basic_string@DU?$char_traits@D@std@@V?$allocator@D@2@@std@@V?$basic_ptree@V?$basic_string@DU?$char_traits@D@std@@V?$allocator@D@2@@std@@V12@U?$less@V?$basic_string@DU?$char_traits@D@std@@V?$allocator@D@2@@std@@@2@@property_tree@boost@@@std@@V?$allocator@U?$pair@$$CBV?$basic_string@DU?$char_traits@D@std@@V?$allocator@D@2@@std@@V?$basic_ptree@V?$basic_string@DU?$char_traits@D@std@@V?$allocator@D@2@@std@@V12@U?$less@V?$basic_string@DU?$char_traits@D@std@@V?$allocator@D@2@@std@@@2@@property_tree@boost@@@std@@@2@@234@@detail@multi_index@boost@@@012@0@Z
	??$?8U?$sequenced_index_node@U?$ordered_index_node@Unull_augment_policy@detail@multi_index@boost@@U?$index_node_base@U?$pair@$$CBV?$basic_string@DU?$char_traits@D@std@@V?$allocator@D@2@@std@@V?$basic_ptree@V?$basic_string@DU?$char_traits@D@std@@V?$allocator@D@2@@std@@V12@U?$less@V?$basic_string@DU?$char_traits@D@std@@V?$allocator@D@2@@std@@@2@@property_tree@boost@@@std@@V?$allocator@U?$pair@$$CBV?$basic_string@DU?$char_traits@D@std@@V?$allocator@D@2@@std@@V?$basic_ptree@V?$basic_string@DU?$char_traits@D@std@@V?$allocator@D@2@@std@@V12@U?$less@V?$basic_string@DU?$char_traits@D@std@@V?$allocator@D@2@@std@@@2@@property_tree@boost@@@std@@@2@@234@@detail@multi_index@boost@@@detail@multi_index@boost@@@detail@multi_index@boost@@YA_NAEBV?$bidir_node_iterator@U?$sequenced_index_node@U?$ordered_index_node@Unull_augment_policy@detail@multi_index@boost@@U?$index_node_base@U?$pair@$$CBV?$basic_string@DU?$char_traits@D@std@@V?$allocator@D@2@@std@@V?$basic_ptree@V?$basic_string@DU?$char_traits@D@std@@V?$allocator@D@2@@std@@V12@U?$less@V?$basic_string@DU?$char_traits@D@std@@V?$allocator@D@2@@std@@@2@@property_tree@boost@@@std@@V?$allocator@U?$pair@$$CBV?$basic_string@DU?$char_traits@D@std@@V?$allocator@D@2@@std@@V?$basic_ptree@V?$basic_string@DU?$char_traits@D@std@@V?$allocator@D@2@@std@@V12@U?$less@V?$basic_string@DU?$char_traits@D@std@@V?$allocator@D@2@@std@@@2@@property_tree@boost@@@std@@@2@@234@@detail@multi_index@boost@@@detail@multi_index@boost@@@012@0@Z
	??$?8Vconst_assoc_iterator@?$basic_ptree@V?$basic_string@DU?$char_traits@D@std@@V?$allocator@D@2@@std@@V12@U?$less@V?$basic_string@DU?$char_traits@D@std@@V?$allocator@D@2@@std@@@2@@property_tree@boost@@U?$pair@$$CBV?$basic_string@DU?$char_traits@D@std@@V?$allocator@D@2@@std@@V?$basic_ptree@V?$basic_string@DU?$char_traits@D@std@@V?$allocator@D@2@@std@@V12@U?$less@V?$basic_string@DU?$char_traits@D@std@@V?$allocator@D@2@@std@@@2@@property_tree@boost@@@std@@Ubidirectional_traversal_tag@iterators@3@AEBU45@_JV0123@U45@U673@AEBU45@_J@iterators@boost@@YA_NAEBV?$iterator_facade@Vconst_assoc_iterator@?$basic_ptree@V?$basic_string@DU?$char_traits@D@std@@V?$allocator@D@2@@std@@V12@U?$less@V?$basic_string@DU?$char_traits@D@std@@V?$allocator@D@2@@std@@@2@@property_tree@boost@@U?$pair@$$CBV?$basic_string@DU?$char_traits@D@std@@V?$allocator@D@2@@std@@V?$basic_ptree@V?$basic_string@DU?$char_traits@D@std@@V?$allocator@D@2@@std@@V12@U?$less@V?$basic_string@DU?$char_traits@D@std@@V?$allocator@D@2@@std@@@2@@property_tree@boost@@@std@@Ubidirectional_traversal_tag@iterators@4@AEBU56@_J@01@0@Z
	??$?8XX@std@@YA_NAEBV?$allocator@X@0@0@Z
	??$?9DU?$char_traits@D@std@@@std@@YA_NAEBV?$istreambuf_iterator@DU?$char_traits@D@std@@@0@0@Z
	??$?9DU?$char_traits@D@std@@V?$allocator@D@1@@std@@YA_NAEBV?$basic_string@DU?$char_traits@D@std@@V?$allocator@D@2@@0@0@Z
	??$?9DU?$char_traits@D@std@@V?$allocator@D@1@@std@@YA_NAEBV?$basic_string@DU?$char_traits@D@std@@V?$allocator@D@2@@0@QEBD@Z
	??$?9V?$vector@V?$basic_resolver_entry@Vtcp@ip@asio@boost@@@ip@asio@boost@@V?$allocator@V?$basic_resolver_entry@Vtcp@ip@asio@boost@@@ip@asio@boost@@@std@@@std@@V01@@std@@YA_NAEBV?$shared_ptr@V?$vector@V?$basic_resolver_entry@Vtcp@ip@asio@boost@@@ip@asio@boost@@V?$allocator@V?$basic_resolver_entry@Vtcp@ip@asio@boost@@@ip@asio@boost@@@std@@@std@@@0@0@Z
	??$?9V?$vector@V?$basic_string@DU?$char_traits@D@std@@V?$allocator@D@2@@std@@V?$allocator@V?$basic_string@DU?$char_traits@D@std@@V?$allocator@D@2@@std@@@2@@std@@@std@@YA_NAEBV?$shared_ptr@V?$vector@V?$basic_string@DU?$char_traits@D@std@@V?$allocator@D@2@@std@@V?$allocator@V?$basic_string@DU?$char_traits@D@std@@V?$allocator@D@2@@std@@@2@@std@@@0@$$T@Z
	??$?9VBotCommandScope@TgBot@@@std@@YA_NAEBV?$shared_ptr@VBotCommandScope@TgBot@@@0@$$T@Z
	??$?9VCallbackQuery@TgBot@@@std@@YA_NAEBV?$shared_ptr@VCallbackQuery@TgBot@@@0@$$T@Z
	??$?9VChatAdministratorRights@TgBot@@@std@@YA_NAEBV?$shared_ptr@VChatAdministratorRights@TgBot@@@0@$$T@Z
	??$?9VChatJoinRequest@TgBot@@@std@@YA_NAEBV?$shared_ptr@VChatJoinRequest@TgBot@@@0@$$T@Z
	??$?9VChatMemberUpdated@TgBot@@@std@@YA_NAEBV?$shared_ptr@VChatMemberUpdated@TgBot@@@0@$$T@Z
	??$?9VChosenInlineResult@TgBot@@@std@@YA_NAEBV?$shared_ptr@VChosenInlineResult@TgBot@@@0@$$T@Z
	??$?9VForceReply@TgBot@@@std@@YA_NAEBV?$shared_ptr@VForceReply@TgBot@@@0@$$T@Z
	??$?9VGenericReply@TgBot@@@std@@YA_NAEBV?$shared_ptr@VGenericReply@TgBot@@@0@$$T@Z
	??$?9VInlineKeyboardMarkup@TgBot@@@std@@YA_NAEBV?$shared_ptr@VInlineKeyboardMarkup@TgBot@@@0@$$T@Z
	??$?9VInlineQuery@TgBot@@@std@@YA_NAEBV?$shared_ptr@VInlineQuery@TgBot@@@0@$$T@Z
	??$?9VInputFile@TgBot@@@std@@YA_NAEBV?$shared_ptr@VInputFile@TgBot@@@0@$$T@Z
	??$?9VMaskPosition@TgBot@@@std@@YA_NAEBV?$shared_ptr@VMaskPosition@TgBot@@@0@$$T@Z
	??$?9VMenuButton@TgBot@@@std@@YA_NAEBV?$shared_ptr@VMenuButton@TgBot@@@0@$$T@Z
	??$?9VMessage@TgBot@@@std@@YA_NAEBV?$shared_ptr@VMessage@TgBot@@@0@$$T@Z
	??$?9VPoll@TgBot@@@std@@YA_NAEBV?$shared_ptr@VPoll@TgBot@@@0@$$T@Z
	??$?9VPollAnswer@TgBot@@@std@@YA_NAEBV?$shared_ptr@VPollAnswer@TgBot@@@0@$$T@Z
	??$?9VPreCheckoutQuery@TgBot@@@std@@YA_NAEBV?$shared_ptr@VPreCheckoutQuery@TgBot@@@0@$$T@Z
	??$?9VReplyKeyboardMarkup@TgBot@@@std@@YA_NAEBV?$shared_ptr@VReplyKeyboardMarkup@TgBot@@@0@$$T@Z
	??$?9VReplyKeyboardRemove@TgBot@@@std@@YA_NAEBV?$shared_ptr@VReplyKeyboardRemove@TgBot@@@0@$$T@Z
	??$?9VShippingQuery@TgBot@@@std@@YA_NAEBV?$shared_ptr@VShippingQuery@TgBot@@@0@$$T@Z
	??$?9Vconst_assoc_iterator@?$basic_ptree@V?$basic_string@DU?$char_traits@D@std@@V?$allocator@D@2@@std@@V12@U?$less@V?$basic_string@DU?$char_traits@D@std@@V?$allocator@D@2@@std@@@2@@property_tree@boost@@U?$pair@$$CBV?$basic_string@DU?$char_traits@D@std@@V?$allocator@D@2@@std@@V?$basic_ptree@V?$basic_string@DU?$char_traits@D@std@@V?$allocator@D@2@@std@@V12@U?$less@V?$basic_string@DU?$char_traits@D@std@@V?$allocator@D@2@@std@@@2@@property_tree@boost@@@std@@Ubidirectional_traversal_tag@iterators@3@AEBU45@_JV0123@U45@U673@AEBU45@_J@iterators@boost@@YA_NAEBV?$iterator_facade@Vconst_assoc_iterator@?$basic_ptree@V?$basic_string@DU?$char_traits@D@std@@V?$allocator@D@2@@std@@V12@U?$less@V?$basic_string@DU?$char_traits@D@std@@V?$allocator@D@2@@std@@@2@@property_tree@boost@@U?$pair@$$CBV?$basic_string@DU?$char_traits@D@std@@V?$allocator@D@2@@std@@V?$basic_ptree@V?$basic_string@DU?$char_traits@D@std@@V?$allocator@D@2@@std@@V12@U?$less@V?$basic_string@DU?$char_traits@D@std@@V?$allocator@D@2@@std@@@2@@property_tree@boost@@@std@@Ubidirectional_traversal_tag@iterators@4@AEBU56@_J@01@0@Z
	??$?9Vconst_iterator@?$basic_ptree@V?$basic_string@DU?$char_traits@D@std@@V?$allocator@D@2@@std@@V12@U?$less@V?$basic_string@DU?$char_traits@D@std@@V?$allocator@D@2@@std@@@2@@property_tree@boost@@U?$pair@$$CBV?$basic_string@DU?$char_traits@D@std@@V?$allocator@D@2@@std@@V?$basic_ptree@V?$basic_string@DU?$char_traits@D@std@@V?$allocator@D@2@@std@@V12@U?$less@V?$basic_string@DU?$char_traits@D@std@@V?$allocator@D@2@@std@@@2@@property_tree@boost@@@std@@Ubidirectional_traversal_tag@iterators@3@AEBU45@_JV0123@U45@U673@AEBU45@_J@iterators@boost@@YA_NAEBV?$iterator_facade@Vconst_iterator@?$basic_ptree@V?$basic_string@DU?$char_traits@D@std@@V?$allocator@D@2@@std@@V12@U?$less@V?$basic_string@DU?$char_traits@D@std@@V?$allocator@D@2@@std@@@2@@property_tree@boost@@U?$pair@$$CBV?$basic_string@DU?$char_traits@D@std@@V?$allocator@D@2@@std@@V?$basic_ptree@V?$basic_string@DU?$char_traits@D@std@@V?$allocator@D@2@@std@@V12@U?$less@V?$basic_string@DU?$char_traits@D@std@@V?$allocator@D@2@@std@@@2@@property_tree@boost@@@std@@Ubidirectional_traversal_tag@iterators@4@AEBU56@_J@01@0@Z
	??$?A$00@?$rrlist@AEAE@_bi@boost@@QEBAAEAEU?$arg@$00@2@@Z
	??$?A$00@?$rrlist@D@_bi@boost@@QEBA$$QEADU?$arg@$00@2@@Z
	??$?APEAV?$parser@V?$standard_callbacks@V?$basic_ptree@V?$basic_string@DU?$char_traits@D@std@@V?$allocator@D@2@@std@@V12@U?$less@V?$basic_string@DU?$char_traits@D@std@@V?$allocator@D@2@@std@@@2@@property_tree@boost@@@detail@json_parser@property_tree@boost@@U?$encoding@D@2345@V?$istreambuf_iterator@DU?$char_traits@D@std@@@std@@V78@@detail@json_parser@property_tree@boost@@@?$rrlist@$$V@_bi@boost@@QEBAAEAPEAV?$parser@V?$standard_callbacks@V?$basic_ptree@V?$basic_string@DU?$char_traits@D@std@@V?$allocator@D@2@@std@@V12@U?$less@V?$basic_string@DU?$char_traits@D@std@@V?$allocator@D@2@@std@@@2@@property_tree@boost@@@detail@json_parser@property_tree@boost@@U?$encoding@D@2345@V?$istreambuf_iterator@DU?$char_traits@D@std@@@std@@V78@@detail@json_parser@property_tree@2@AEAV?$value@PEAV?$parser@V?$standard_callbacks@V?$basic_ptree@V?$basic_string@DU?$char_traits@D@std@@V?$allocator@D@2@@std@@V12@U?$less@V?$basic_string@DU?$char_traits@D@std@@V?$allocator@D@2@@std@@@2@@property_tree@boost@@@detail@json_parser@property_tree@boost@@U?$encoding@D@2345@V?$istreambuf_iterator@DU?$char_traits@D@std@@@std@@V78@@detail@json_parser@property_tree@boost@@@12@@Z
	??$?APEBD@?$rrlist@$$V@_bi@boost@@QEBAAEAPEBDAEAV?$value@PEBD@12@@Z
	??$?AV?$standard_callbacks@V?$basic_ptree@V?$basic_string@DU?$char_traits@D@std@@V?$allocator@D@2@@std@@V12@U?$less@V?$basic_string@DU?$char_traits@D@std@@V?$allocator@D@2@@std@@@2@@property_tree@boost@@@detail@json_parser@property_tree@boost@@@?$rrlist@AEAE@_bi@boost@@QEBAAEAV?$standard_callbacks@V?$basic_ptree@V?$basic_string@DU?$char_traits@D@std@@V?$allocator@D@2@@std@@V12@U?$less@V?$basic_string@DU?$char_traits@D@std@@V?$allocator@D@2@@std@@@2@@property_tree@boost@@@detail@json_parser@property_tree@2@AEBV?$reference_wrapper@V?$standard_callbacks@V?$basic_ptree@V?$basic_string@DU?$char_traits@D@std@@V?$allocator@D@2@@std@@V12@U?$less@V?$basic_string@DU?$char_traits@D@std@@V?$allocator@D@2@@std@@@2@@property_tree@boost@@@detail@json_parser@property_tree@boost@@@2@@Z
	??$?AV?$standard_callbacks@V?$basic_ptree@V?$basic_string@DU?$char_traits@D@std@@V?$allocator@D@2@@std@@V12@U?$less@V?$basic_string@DU?$char_traits@D@std@@V?$allocator@D@2@@std@@@2@@property_tree@boost@@@detail@json_parser@property_tree@boost@@@?$rrlist@D@_bi@boost@@QEBAAEAV?$standard_callbacks@V?$basic_ptree@V?$basic_string@DU?$char_traits@D@std@@V?$allocator@D@2@@std@@V12@U?$less@V?$basic_string@DU?$char_traits@D@std@@V?$allocator@D@2@@std@@@2@@property_tree@boost@@@detail@json_parser@property_tree@2@AEBV?$reference_wrapper@V?$standard_callbacks@V?$basic_ptree@V?$basic_string@DU?$char_traits@D@std@@V?$allocator@D@2@@std@@V12@U?$less@V?$basic_string@DU?$char_traits@D@std@@V?$allocator@D@2@@std@@@2@@property_tree@boost@@@detail@json_parser@property_tree@boost@@@2@@Z
	??$?B_K$0A@@_Base128@std@@QEBA_KXZ
	??$?CV?$vector@V?$basic_resolver_entry@Vtcp@ip@asio@boost@@@ip@asio@boost@@V?$allocator@V?$basic_resolver_entry@Vtcp@ip@asio@boost@@@ip@asio@boost@@@std@@@std@@$0A@@?$shared_ptr@V?$vector@V?$basic_resolver_entry@Vtcp@ip@asio@boost@@@ip@asio@boost@@V?$allocator@V?$basic_resolver_entry@Vtcp@ip@asio@boost@@@ip@asio@boost@@@std@@@std@@@std@@QEBAPEAV?$vector@V?$basic_resolver_entry@Vtcp@ip@asio@boost@@@ip@asio@boost@@V?$allocator@V?$basic_resolver_entry@Vtcp@ip@asio@boost@@@ip@asio@boost@@@std@@@1@XZ
	??$?CVAnimation@TgBot@@$0A@@?$shared_ptr@VAnimation@TgBot@@@std@@QEBAPEAVAnimation@TgBot@@XZ
	??$?CVAudio@TgBot@@$0A@@?$shared_ptr@VAudio@TgBot@@@std@@QEBAPEAVAudio@TgBot@@XZ
	??$?CVBotCommand@TgBot@@$0A@@?$shared_ptr@VBotCommand@TgBot@@@std@@QEBAPEAVBotCommand@TgBot@@XZ
	??$?CVBotCommandScope@TgBot@@$0A@@?$shared_ptr@VBotCommandScope@TgBot@@@std@@QEBAPEAVBotCommandScope@TgBot@@XZ
	??$?CVBotCommandScopeChat@TgBot@@$0A@@?$shared_ptr@VBotCommandScopeChat@TgBot@@@std@@QEBAPEAVBotCommandScopeChat@TgBot@@XZ
	??$?CVBotCommandScopeChatAdministrators@TgBot@@$0A@@?$shared_ptr@VBotCommandScopeChatAdministrators@TgBot@@@std@@QEBAPEAVBotCommandScopeChatAdministrators@TgBot@@XZ
	??$?CVBotCommandScopeChatMember@TgBot@@$0A@@?$shared_ptr@VBotCommandScopeChatMember@TgBot@@@std@@QEBAPEAVBotCommandScopeChatMember@TgBot@@XZ
	??$?CVCallbackQuery@TgBot@@$0A@@?$shared_ptr@VCallbackQuery@TgBot@@@std@@QEBAPEAVCallbackQuery@TgBot@@XZ
	??$?CVChat@TgBot@@$0A@@?$shared_ptr@VChat@TgBot@@@std@@QEBAPEAVChat@TgBot@@XZ
	??$?CVChatAdministratorRights@TgBot@@$0A@@?$shared_ptr@VChatAdministratorRights@TgBot@@@std@@QEBAPEAVChatAdministratorRights@TgBot@@XZ
	??$?CVChatInviteLink@TgBot@@$0A@@?$shared_ptr@VChatInviteLink@TgBot@@@std@@QEBAPEAVChatInviteLink@TgBot@@XZ
	??$?CVChatJoinRequest@TgBot@@$0A@@?$shared_ptr@VChatJoinRequest@TgBot@@@std@@QEBAPEAVChatJoinRequest@TgBot@@XZ
	??$?CVChatLocation@TgBot@@$0A@@?$shared_ptr@VChatLocation@TgBot@@@std@@QEBAPEAVChatLocation@TgBot@@XZ
	??$?CVChatMember@TgBot@@$0A@@?$shared_ptr@VChatMember@TgBot@@@std@@QEBAPEAVChatMember@TgBot@@XZ
	??$?CVChatMemberAdministrator@TgBot@@$0A@@?$shared_ptr@VChatMemberAdministrator@TgBot@@@std@@QEBAPEAVChatMemberAdministrator@TgBot@@XZ
	??$?CVChatMemberBanned@TgBot@@$0A@@?$shared_ptr@VChatMemberBanned@TgBot@@@std@@QEBAPEAVChatMemberBanned@TgBot@@XZ
	??$?CVChatMemberOwner@TgBot@@$0A@@?$shared_ptr@VChatMemberOwner@TgBot@@@std@@QEBAPEAVChatMemberOwner@TgBot@@XZ
	??$?CVChatMemberRestricted@TgBot@@$0A@@?$shared_ptr@VChatMemberRestricted@TgBot@@@std@@QEBAPEAVChatMemberRestricted@TgBot@@XZ
	??$?CVChatMemberUpdated@TgBot@@$0A@@?$shared_ptr@VChatMemberUpdated@TgBot@@@std@@QEBAPEAVChatMemberUpdated@TgBot@@XZ
	??$?CVChatPermissions@TgBot@@$0A@@?$shared_ptr@VChatPermissions@TgBot@@@std@@QEBAPEAVChatPermissions@TgBot@@XZ
	??$?CVChatPhoto@TgBot@@$0A@@?$shared_ptr@VChatPhoto@TgBot@@@std@@QEBAPEAVChatPhoto@TgBot@@XZ
	??$?CVChatShared@TgBot@@$0A@@?$shared_ptr@VChatShared@TgBot@@@std@@QEBAPEAVChatShared@TgBot@@XZ
	??$?CVChosenInlineResult@TgBot@@$0A@@?$shared_ptr@VChosenInlineResult@TgBot@@@std@@QEBAPEAVChosenInlineResult@TgBot@@XZ
	??$?CVContact@TgBot@@$0A@@?$shared_ptr@VContact@TgBot@@@std@@QEBAPEAVContact@TgBot@@XZ
	??$?CVDice@TgBot@@$0A@@?$shared_ptr@VDice@TgBot@@@std@@QEBAPEAVDice@TgBot@@XZ
	??$?CVDocument@TgBot@@$0A@@?$shared_ptr@VDocument@TgBot@@@std@@QEBAPEAVDocument@TgBot@@XZ
	??$?CVEncryptedCredentials@TgBot@@$0A@@?$shared_ptr@VEncryptedCredentials@TgBot@@@std@@QEBAPEAVEncryptedCredentials@TgBot@@XZ
	??$?CVEncryptedPassportElement@TgBot@@$0A@@?$shared_ptr@VEncryptedPassportElement@TgBot@@@std@@QEBAPEAVEncryptedPassportElement@TgBot@@XZ
	??$?CVFile@TgBot@@$0A@@?$shared_ptr@VFile@TgBot@@@std@@QEBAPEAVFile@TgBot@@XZ
	??$?CVForceReply@TgBot@@$0A@@?$shared_ptr@VForceReply@TgBot@@@std@@QEBAPEAVForceReply@TgBot@@XZ
	??$?CVForumTopic@TgBot@@$0A@@?$shared_ptr@VForumTopic@TgBot@@@std@@QEBAPEAVForumTopic@TgBot@@XZ
	??$?CVForumTopicCreated@TgBot@@$0A@@?$shared_ptr@VForumTopicCreated@TgBot@@@std@@QEBAPEAVForumTopicCreated@TgBot@@XZ
	??$?CVForumTopicEdited@TgBot@@$0A@@?$shared_ptr@VForumTopicEdited@TgBot@@@std@@QEBAPEAVForumTopicEdited@TgBot@@XZ
	??$?CVGame@TgBot@@$0A@@?$shared_ptr@VGame@TgBot@@@std@@QEBAPEAVGame@TgBot@@XZ
	??$?CVGameHighScore@TgBot@@$0A@@?$shared_ptr@VGameHighScore@TgBot@@@std@@QEBAPEAVGameHighScore@TgBot@@XZ
	??$?CVInlineKeyboardButton@TgBot@@$0A@@?$shared_ptr@VInlineKeyboardButton@TgBot@@@std@@QEBAPEAVInlineKeyboardButton@TgBot@@XZ
	??$?CVInlineKeyboardMarkup@TgBot@@$0A@@?$shared_ptr@VInlineKeyboardMarkup@TgBot@@@std@@QEBAPEAVInlineKeyboardMarkup@TgBot@@XZ
	??$?CVInlineQuery@TgBot@@$0A@@?$shared_ptr@VInlineQuery@TgBot@@@std@@QEBAPEAVInlineQuery@TgBot@@XZ
	??$?CVInlineQueryResult@TgBot@@$0A@@?$shared_ptr@VInlineQueryResult@TgBot@@@std@@QEBAPEAVInlineQueryResult@TgBot@@XZ
	??$?CVInlineQueryResultArticle@TgBot@@$0A@@?$shared_ptr@VInlineQueryResultArticle@TgBot@@@std@@QEBAPEAVInlineQueryResultArticle@TgBot@@XZ
	??$?CVInlineQueryResultAudio@TgBot@@$0A@@?$shared_ptr@VInlineQueryResultAudio@TgBot@@@std@@QEBAPEAVInlineQueryResultAudio@TgBot@@XZ
	??$?CVInlineQueryResultCachedAudio@TgBot@@$0A@@?$shared_ptr@VInlineQueryResultCachedAudio@TgBot@@@std@@QEBAPEAVInlineQueryResultCachedAudio@TgBot@@XZ
	??$?CVInlineQueryResultCachedDocument@TgBot@@$0A@@?$shared_ptr@VInlineQueryResultCachedDocument@TgBot@@@std@@QEBAPEAVInlineQueryResultCachedDocument@TgBot@@XZ
	??$?CVInlineQueryResultCachedGif@TgBot@@$0A@@?$shared_ptr@VInlineQueryResultCachedGif@TgBot@@@std@@QEBAPEAVInlineQueryResultCachedGif@TgBot@@XZ
	??$?CVInlineQueryResultCachedMpeg4Gif@TgBot@@$0A@@?$shared_ptr@VInlineQueryResultCachedMpeg4Gif@TgBot@@@std@@QEBAPEAVInlineQueryResultCachedMpeg4Gif@TgBot@@XZ
	??$?CVInlineQueryResultCachedPhoto@TgBot@@$0A@@?$shared_ptr@VInlineQueryResultCachedPhoto@TgBot@@@std@@QEBAPEAVInlineQueryResultCachedPhoto@TgBot@@XZ
	??$?CVInlineQueryResultCachedSticker@TgBot@@$0A@@?$shared_ptr@VInlineQueryResultCachedSticker@TgBot@@@std@@QEBAPEAVInlineQueryResultCachedSticker@TgBot@@XZ
	??$?CVInlineQueryResultCachedVideo@TgBot@@$0A@@?$shared_ptr@VInlineQueryResultCachedVideo@TgBot@@@std@@QEBAPEAVInlineQueryResultCachedVideo@TgBot@@XZ
	??$?CVInlineQueryResultCachedVoice@TgBot@@$0A@@?$shared_ptr@VInlineQueryResultCachedVoice@TgBot@@@std@@QEBAPEAVInlineQueryResultCachedVoice@TgBot@@XZ
	??$?CVInlineQueryResultContact@TgBot@@$0A@@?$shared_ptr@VInlineQueryResultContact@TgBot@@@std@@QEBAPEAVInlineQueryResultContact@TgBot@@XZ
	??$?CVInlineQueryResultDocument@TgBot@@$0A@@?$shared_ptr@VInlineQueryResultDocument@TgBot@@@std@@QEBAPEAVInlineQueryResultDocument@TgBot@@XZ
	??$?CVInlineQueryResultGame@TgBot@@$0A@@?$shared_ptr@VInlineQueryResultGame@TgBot@@@std@@QEBAPEAVInlineQueryResultGame@TgBot@@XZ
	??$?CVInlineQueryResultGif@TgBot@@$0A@@?$shared_ptr@VInlineQueryResultGif@TgBot@@@std@@QEBAPEAVInlineQueryResultGif@TgBot@@XZ
	??$?CVInlineQueryResultLocation@TgBot@@$0A@@?$shared_ptr@VInlineQueryResultLocation@TgBot@@@std@@QEBAPEAVInlineQueryResultLocation@TgBot@@XZ
	??$?CVInlineQueryResultMpeg4Gif@TgBot@@$0A@@?$shared_ptr@VInlineQueryResultMpeg4Gif@TgBot@@@std@@QEBAPEAVInlineQueryResultMpeg4Gif@TgBot@@XZ
	??$?CVInlineQueryResultPhoto@TgBot@@$0A@@?$shared_ptr@VInlineQueryResultPhoto@TgBot@@@std@@QEBAPEAVInlineQueryResultPhoto@TgBot@@XZ
	??$?CVInlineQueryResultVenue@TgBot@@$0A@@?$shared_ptr@VInlineQueryResultVenue@TgBot@@@std@@QEBAPEAVInlineQueryResultVenue@TgBot@@XZ
	??$?CVInlineQueryResultVideo@TgBot@@$0A@@?$shared_ptr@VInlineQueryResultVideo@TgBot@@@std@@QEBAPEAVInlineQueryResultVideo@TgBot@@XZ
	??$?CVInlineQueryResultVoice@TgBot@@$0A@@?$shared_ptr@VInlineQueryResultVoice@TgBot@@@std@@QEBAPEAVInlineQueryResultVoice@TgBot@@XZ
	??$?CVInputContactMessageContent@TgBot@@$0A@@?$shared_ptr@VInputContactMessageContent@TgBot@@@std@@QEBAPEAVInputContactMessageContent@TgBot@@XZ
	??$?CVInputFile@TgBot@@$0A@@?$shared_ptr@VInputFile@TgBot@@@std@@QEBAPEAVInputFile@TgBot@@XZ
	??$?CVInputInvoiceMessageContent@TgBot@@$0A@@?$shared_ptr@VInputInvoiceMessageContent@TgBot@@@std@@QEBAPEAVInputInvoiceMessageContent@TgBot@@XZ
	??$?CVInputLocationMessageContent@TgBot@@$0A@@?$shared_ptr@VInputLocationMessageContent@TgBot@@@std@@QEBAPEAVInputLocationMessageContent@TgBot@@XZ
	??$?CVInputMedia@TgBot@@$0A@@?$shared_ptr@VInputMedia@TgBot@@@std@@QEBAPEAVInputMedia@TgBot@@XZ
	??$?CVInputMediaAnimation@TgBot@@$0A@@?$shared_ptr@VInputMediaAnimation@TgBot@@@std@@QEBAPEAVInputMediaAnimation@TgBot@@XZ
	??$?CVInputMediaAudio@TgBot@@$0A@@?$shared_ptr@VInputMediaAudio@TgBot@@@std@@QEBAPEAVInputMediaAudio@TgBot@@XZ
	??$?CVInputMediaDocument@TgBot@@$0A@@?$shared_ptr@VInputMediaDocument@TgBot@@@std@@QEBAPEAVInputMediaDocument@TgBot@@XZ
	??$?CVInputMediaPhoto@TgBot@@$0A@@?$shared_ptr@VInputMediaPhoto@TgBot@@@std@@QEBAPEAVInputMediaPhoto@TgBot@@XZ
	??$?CVInputMediaVideo@TgBot@@$0A@@?$shared_ptr@VInputMediaVideo@TgBot@@@std@@QEBAPEAVInputMediaVideo@TgBot@@XZ
	??$?CVInputMessageContent@TgBot@@$0A@@?$shared_ptr@VInputMessageContent@TgBot@@@std@@QEBAPEAVInputMessageContent@TgBot@@XZ
	??$?CVInputTextMessageContent@TgBot@@$0A@@?$shared_ptr@VInputTextMessageContent@TgBot@@@std@@QEBAPEAVInputTextMessageContent@TgBot@@XZ
	??$?CVInputVenueMessageContent@TgBot@@$0A@@?$shared_ptr@VInputVenueMessageContent@TgBot@@@std@@QEBAPEAVInputVenueMessageContent@TgBot@@XZ
	??$?CVInvoice@TgBot@@$0A@@?$shared_ptr@VInvoice@TgBot@@@std@@QEBAPEAVInvoice@TgBot@@XZ
	??$?CVKeyboardButton@TgBot@@$0A@@?$shared_ptr@VKeyboardButton@TgBot@@@std@@QEBAPEAVKeyboardButton@TgBot@@XZ
	??$?CVKeyboardButtonPollType@TgBot@@$0A@@?$shared_ptr@VKeyboardButtonPollType@TgBot@@@std@@QEBAPEAVKeyboardButtonPollType@TgBot@@XZ
	??$?CVKeyboardButtonRequestChat@TgBot@@$0A@@?$shared_ptr@VKeyboardButtonRequestChat@TgBot@@@std@@QEBAPEAVKeyboardButtonRequestChat@TgBot@@XZ
	??$?CVKeyboardButtonRequestUser@TgBot@@$0A@@?$shared_ptr@VKeyboardButtonRequestUser@TgBot@@@std@@QEBAPEAVKeyboardButtonRequestUser@TgBot@@XZ
	??$?CVLabeledPrice@TgBot@@$0A@@?$shared_ptr@VLabeledPrice@TgBot@@@std@@QEBAPEAVLabeledPrice@TgBot@@XZ
	??$?CVLocation@TgBot@@$0A@@?$shared_ptr@VLocation@TgBot@@@std@@QEBAPEAVLocation@TgBot@@XZ
	??$?CVLoginUrl@TgBot@@$0A@@?$shared_ptr@VLoginUrl@TgBot@@@std@@QEBAPEAVLoginUrl@TgBot@@XZ
	??$?CVMaskPosition@TgBot@@$0A@@?$shared_ptr@VMaskPosition@TgBot@@@std@@QEBAPEAVMaskPosition@TgBot@@XZ
	??$?CVMenuButton@TgBot@@$0A@@?$shared_ptr@VMenuButton@TgBot@@@std@@QEBAPEAVMenuButton@TgBot@@XZ
	??$?CVMenuButtonWebApp@TgBot@@$0A@@?$shared_ptr@VMenuButtonWebApp@TgBot@@@std@@QEBAPEAVMenuButtonWebApp@TgBot@@XZ
	??$?CVMessage@TgBot@@$0A@@?$shared_ptr@VMessage@TgBot@@@std@@QEBAPEAVMessage@TgBot@@XZ
	??$?CVMessageAutoDeleteTimerChanged@TgBot@@$0A@@?$shared_ptr@VMessageAutoDeleteTimerChanged@TgBot@@@std@@QEBAPEAVMessageAutoDeleteTimerChanged@TgBot@@XZ
	??$?CVMessageEntity@TgBot@@$0A@@?$shared_ptr@VMessageEntity@TgBot@@@std@@QEBAPEAVMessageEntity@TgBot@@XZ
	??$?CVMessageId@TgBot@@$0A@@?$shared_ptr@VMessageId@TgBot@@@std@@QEBAPEAVMessageId@TgBot@@XZ
	??$?CVOrderInfo@TgBot@@$0A@@?$shared_ptr@VOrderInfo@TgBot@@@std@@QEBAPEAVOrderInfo@TgBot@@XZ
	??$?CVPassportData@TgBot@@$0A@@?$shared_ptr@VPassportData@TgBot@@@std@@QEBAPEAVPassportData@TgBot@@XZ
	??$?CVPassportElementError@TgBot@@$0A@@?$shared_ptr@VPassportElementError@TgBot@@@std@@QEBAPEAVPassportElementError@TgBot@@XZ
	??$?CVPassportElementErrorDataField@TgBot@@$0A@@?$shared_ptr@VPassportElementErrorDataField@TgBot@@@std@@QEBAPEAVPassportElementErrorDataField@TgBot@@XZ
	??$?CVPassportElementErrorFile@TgBot@@$0A@@?$shared_ptr@VPassportElementErrorFile@TgBot@@@std@@QEBAPEAVPassportElementErrorFile@TgBot@@XZ
	??$?CVPassportElementErrorFiles@TgBot@@$0A@@?$shared_ptr@VPassportElementErrorFiles@TgBot@@@std@@QEBAPEAVPassportElementErrorFiles@TgBot@@XZ
	??$?CVPassportElementErrorFrontSide@TgBot@@$0A@@?$shared_ptr@VPassportElementErrorFrontSide@TgBot@@@std@@QEBAPEAVPassportElementErrorFrontSide@TgBot@@XZ
	??$?CVPassportElementErrorReverseSide@TgBot@@$0A@@?$shared_ptr@VPassportElementErrorReverseSide@TgBot@@@std@@QEBAPEAVPassportElementErrorReverseSide@TgBot@@XZ
	??$?CVPassportElementErrorSelfie@TgBot@@$0A@@?$shared_ptr@VPassportElementErrorSelfie@TgBot@@@std@@QEBAPEAVPassportElementErrorSelfie@TgBot@@XZ
	??$?CVPassportElementErrorTranslationFile@TgBot@@$0A@@?$shared_ptr@VPassportElementErrorTranslationFile@TgBot@@@std@@QEBAPEAVPassportElementErrorTranslationFile@TgBot@@XZ
	??$?CVPassportElementErrorTranslationFiles@TgBot@@$0A@@?$shared_ptr@VPassportElementErrorTranslationFiles@TgBot@@@std@@QEBAPEAVPassportElementErrorTranslationFiles@TgBot@@XZ
	??$?CVPassportElementErrorUnspecified@TgBot@@$0A@@?$shared_ptr@VPassportElementErrorUnspecified@TgBot@@@std@@QEBAPEAVPassportElementErrorUnspecified@TgBot@@XZ
	??$?CVPassportFile@TgBot@@$0A@@?$shared_ptr@VPassportFile@TgBot@@@std@@QEBAPEAVPassportFile@TgBot@@XZ
	??$?CVPhotoSize@TgBot@@$0A@@?$shared_ptr@VPhotoSize@TgBot@@@std@@QEBAPEAVPhotoSize@TgBot@@XZ
	??$?CVPoll@TgBot@@$0A@@?$shared_ptr@VPoll@TgBot@@@std@@QEBAPEAVPoll@TgBot@@XZ
	??$?CVPollAnswer@TgBot@@$0A@@?$shared_ptr@VPollAnswer@TgBot@@@std@@QEBAPEAVPollAnswer@TgBot@@XZ
	??$?CVPollOption@TgBot@@$0A@@?$shared_ptr@VPollOption@TgBot@@@std@@QEBAPEAVPollOption@TgBot@@XZ
	??$?CVPreCheckoutQuery@TgBot@@$0A@@?$shared_ptr@VPreCheckoutQuery@TgBot@@@std@@QEBAPEAVPreCheckoutQuery@TgBot@@XZ
	??$?CVProximityAlertTriggered@TgBot@@$0A@@?$shared_ptr@VProximityAlertTriggered@TgBot@@@std@@QEBAPEAVProximityAlertTriggered@TgBot@@XZ
	??$?CVReplyKeyboardMarkup@TgBot@@$0A@@?$shared_ptr@VReplyKeyboardMarkup@TgBot@@@std@@QEBAPEAVReplyKeyboardMarkup@TgBot@@XZ
	??$?CVReplyKeyboardRemove@TgBot@@$0A@@?$shared_ptr@VReplyKeyboardRemove@TgBot@@@std@@QEBAPEAVReplyKeyboardRemove@TgBot@@XZ
	??$?CVResponseParameters@TgBot@@$0A@@?$shared_ptr@VResponseParameters@TgBot@@@std@@QEBAPEAVResponseParameters@TgBot@@XZ
	??$?CVSentWebAppMessage@TgBot@@$0A@@?$shared_ptr@VSentWebAppMessage@TgBot@@@std@@QEBAPEAVSentWebAppMessage@TgBot@@XZ
	??$?CVShippingAddress@TgBot@@$0A@@?$shared_ptr@VShippingAddress@TgBot@@@std@@QEBAPEAVShippingAddress@TgBot@@XZ
	??$?CVShippingOption@TgBot@@$0A@@?$shared_ptr@VShippingOption@TgBot@@@std@@QEBAPEAVShippingOption@TgBot@@XZ
	??$?CVShippingQuery@TgBot@@$0A@@?$shared_ptr@VShippingQuery@TgBot@@@std@@QEBAPEAVShippingQuery@TgBot@@XZ
	??$?CVSticker@TgBot@@$0A@@?$shared_ptr@VSticker@TgBot@@@std@@QEBAPEAVSticker@TgBot@@XZ
	??$?CVStickerSet@TgBot@@$0A@@?$shared_ptr@VStickerSet@TgBot@@@std@@QEBAPEAVStickerSet@TgBot@@XZ
	??$?CVSuccessfulPayment@TgBot@@$0A@@?$shared_ptr@VSuccessfulPayment@TgBot@@@std@@QEBAPEAVSuccessfulPayment@TgBot@@XZ
	??$?CVUpdate@TgBot@@$0A@@?$shared_ptr@VUpdate@TgBot@@@std@@QEBAPEAVUpdate@TgBot@@XZ
	??$?CVUser@TgBot@@$0A@@?$shared_ptr@VUser@TgBot@@@std@@QEBAPEAVUser@TgBot@@XZ
	??$?CVUserProfilePhotos@TgBot@@$0A@@?$shared_ptr@VUserProfilePhotos@TgBot@@@std@@QEBAPEAVUserProfilePhotos@TgBot@@XZ
	??$?CVUserShared@TgBot@@$0A@@?$shared_ptr@VUserShared@TgBot@@@std@@QEBAPEAVUserShared@TgBot@@XZ
	??$?CVVenue@TgBot@@$0A@@?$shared_ptr@VVenue@TgBot@@@std@@QEBAPEAVVenue@TgBot@@XZ
	??$?CVVideo@TgBot@@$0A@@?$shared_ptr@VVideo@TgBot@@@std@@QEBAPEAVVideo@TgBot@@XZ
	??$?CVVideoChatEnded@TgBot@@$0A@@?$shared_ptr@VVideoChatEnded@TgBot@@@std@@QEBAPEAVVideoChatEnded@TgBot@@XZ
	??$?CVVideoChatParticipantsInvited@TgBot@@$0A@@?$shared_ptr@VVideoChatParticipantsInvited@TgBot@@@std@@QEBAPEAVVideoChatParticipantsInvited@TgBot@@XZ
	??$?CVVideoChatScheduled@TgBot@@$0A@@?$shared_ptr@VVideoChatScheduled@TgBot@@@std@@QEBAPEAVVideoChatScheduled@TgBot@@XZ
	??$?CVVideoNote@TgBot@@$0A@@?$shared_ptr@VVideoNote@TgBot@@@std@@QEBAPEAVVideoNote@TgBot@@XZ
	??$?CVVoice@TgBot@@$0A@@?$shared_ptr@VVoice@TgBot@@@std@@QEBAPEAVVoice@TgBot@@XZ
	??$?CVWebAppData@TgBot@@$0A@@?$shared_ptr@VWebAppData@TgBot@@@std@@QEBAPEAVWebAppData@TgBot@@XZ
	??$?CVWebAppInfo@TgBot@@$0A@@?$shared_ptr@VWebAppInfo@TgBot@@@std@@QEBAPEAVWebAppInfo@TgBot@@XZ
	??$?CVWebhookInfo@TgBot@@$0A@@?$shared_ptr@VWebhookInfo@TgBot@@@std@@QEBAPEAVWebhookInfo@TgBot@@XZ
	??$?DV?$vector@V?$basic_resolver_entry@Vtcp@ip@asio@boost@@@ip@asio@boost@@V?$allocator@V?$basic_resolver_entry@Vtcp@ip@asio@boost@@@ip@asio@boost@@@std@@@std@@$0A@@?$shared_ptr@V?$vector@V?$basic_resolver_entry@Vtcp@ip@asio@boost@@@ip@asio@boost@@V?$allocator@V?$basic_resolver_entry@Vtcp@ip@asio@boost@@@ip@asio@boost@@@std@@@std@@@std@@QEBAAEAV?$vector@V?$basic_resolver_entry@Vtcp@ip@asio@boost@@@ip@asio@boost@@V?$allocator@V?$basic_resolver_entry@Vtcp@ip@asio@boost@@@ip@asio@boost@@@std@@@1@XZ
	??$?DV?$vector@V?$basic_string@DU?$char_traits@D@std@@V?$allocator@D@2@@std@@V?$allocator@V?$basic_string@DU?$char_traits@D@std@@V?$allocator@D@2@@std@@@2@@std@@$0A@@?$shared_ptr@V?$vector@V?$basic_string@DU?$char_traits@D@std@@V?$allocator@D@2@@std@@V?$allocator@V?$basic_string@DU?$char_traits@D@std@@V?$allocator@D@2@@std@@@2@@std@@@std@@QEBAAEAV?$vector@V?$basic_string@DU?$char_traits@D@std@@V?$allocator@D@2@@std@@V?$allocator@V?$basic_string@DU?$char_traits@D@std@@V?$allocator@D@2@@std@@@2@@1@XZ
	??$?GUsteady_clock@chrono@std@@V?$duration@_JU?$ratio@$00$0DLJKMKAA@@std@@@12@V312@@chrono@std@@YA?AV?$duration@_JU?$ratio@$00$0DLJKMKAA@@std@@@01@AEBV?$time_point@Usteady_clock@chrono@std@@V?$duration@_JU?$ratio@$00$0DLJKMKAA@@std@@@23@@01@0@Z
	??$?GUsteady_clock@chrono@std@@V?$duration@_JU?$ratio@$00$0DLJKMKAA@@std@@@12@_JU?$ratio@$00$00@2@@chrono@std@@YA?AV?$time_point@Usteady_clock@chrono@std@@V?$duration@_JU?$ratio@$00$0DLJKMKAA@@std@@@23@@01@AEBV201@AEBV?$duration@_JU?$ratio@$00$00@std@@@01@@Z
	??$?G_J@?$int_adapter@_J@date_time@boost@@QEBA?AV012@AEBV012@@Z
	??$?G_JU?$ratio@$00$0DLJKMKAA@@std@@_JU01@@chrono@std@@YA?AV?$duration@_JU?$ratio@$00$0DLJKMKAA@@std@@@01@AEBV201@0@Z
	??$?G_JU?$ratio@$00$0DLJKMKAA@@std@@_JU?$ratio@$00$00@1@@chrono@std@@YA?AV?$duration@_JU?$ratio@$00$0DLJKMKAA@@std@@@01@AEBV201@AEBV?$duration@_JU?$ratio@$00$00@std@@@01@@Z
	??$?HDU?$char_traits@D@std@@V?$allocator@D@1@@std@@YA?AV?$basic_string@DU?$char_traits@D@std@@V?$allocator@D@2@@0@$$QEAV10@0@Z
	??$?HDU?$char_traits@D@std@@V?$allocator@D@1@@std@@YA?AV?$basic_string@DU?$char_traits@D@std@@V?$allocator@D@2@@0@$$QEAV10@AEBV10@@Z
	??$?HDU?$char_traits@D@std@@V?$allocator@D@1@@std@@YA?AV?$basic_string@DU?$char_traits@D@std@@V?$allocator@D@2@@0@$$QEAV10@QEBD@Z
	??$?HDU?$char_traits@D@std@@V?$allocator@D@1@@std@@YA?AV?$basic_string@DU?$char_traits@D@std@@V?$allocator@D@2@@0@AEBV10@QEBD@Z
	??$?HDU?$char_traits@D@std@@V?$allocator@D@1@@std@@YA?AV?$basic_string@DU?$char_traits@D@std@@V?$allocator@D@2@@0@QEBD$$QEAV10@@Z
	??$?HDU?$char_traits@D@std@@V?$allocator@D@1@@std@@YA?AV?$basic_string@DU?$char_traits@D@std@@V?$allocator@D@2@@0@QEBDAEBV10@@Z
	??$?HI@?$int_adapter@_J@date_time@boost@@QEBA?AV012@AEBV?$int_adapter@I@12@@Z
	??$?MDU?$char_traits@D@std@@V?$allocator@D@1@@std@@YA_NAEBV?$basic_string@DU?$char_traits@D@std@@V?$allocator@D@2@@0@0@Z
	??$?MUsteady_clock@chrono@std@@V?$duration@_JU?$ratio@$00$0DLJKMKAA@@std@@@12@V312@@chrono@std@@YA_NAEBV?$time_point@Usteady_clock@chrono@std@@V?$duration@_JU?$ratio@$00$0DLJKMKAA@@std@@@23@@01@0@Z
	??$?M_JU?$ratio@$00$00@std@@_JU01@@chrono@std@@YA_NAEBV?$duration@_JU?$ratio@$00$00@std@@@01@0@Z
	??$?M_JU?$ratio@$00$0DLJKMKAA@@std@@_JU01@@chrono@std@@YA_NAEBV?$duration@_JU?$ratio@$00$0DLJKMKAA@@std@@@01@0@Z
	??$?M_JU?$ratio@$00$0DOI@@std@@_JU?$ratio@$00$0DLJKMKAA@@1@@chrono@std@@YA_NAEBV?$duration@_JU?$ratio@$00$0DOI@@std@@@01@AEBV?$duration@_JU?$ratio@$00$0DLJKMKAA@@std@@@01@@Z
	??$?NUsteady_clock@chrono@std@@V?$duration@_JU?$ratio@$00$0DLJKMKAA@@std@@@12@V312@@chrono@std@@YA_NAEBV?$time_point@Usteady_clock@chrono@std@@V?$duration@_JU?$ratio@$00$0DLJKMKAA@@std@@@23@@01@0@Z
	??$?O_JU?$ratio@$00$00@std@@_JU01@@chrono@std@@YA_NAEBV?$duration@_JU?$ratio@$00$00@std@@@01@0@Z
	??$?O_JU?$ratio@$00$0DLJKMKAA@@std@@_JU?$ratio@$00$0DOI@@1@@chrono@std@@YA_NAEBV?$duration@_JU?$ratio@$00$0DLJKMKAA@@std@@@01@AEBV?$duration@_JU?$ratio@$00$0DOI@@std@@@01@@Z
	??$?R$$V@?$bind_t@Uunspecified@_bi@boost@@V?$mf@P8?$parser@V?$standard_callbacks@V?$basic_ptree@V?$basic_string@DU?$char_traits@D@std@@V?$allocator@D@2@@std@@V12@U?$less@V?$basic_string@DU?$char_traits@D@std@@V?$allocator@D@2@@std@@@2@@property_tree@boost@@@detail@json_parser@property_tree@boost@@U?$encoding@D@2345@V?$istreambuf_iterator@DU?$char_traits@D@std@@@std@@V78@@detail@json_parser@property_tree@boost@@EAAXPEBD@ZXV12345@PEBD@_mfi@3@V?$list@V?$value@PEAV?$parser@V?$standard_callbacks@V?$basic_ptree@V?$basic_string@DU?$char_traits@D@std@@V?$allocator@D@2@@std@@V12@U?$less@V?$basic_string@DU?$char_traits@D@std@@V?$allocator@D@2@@std@@@2@@property_tree@boost@@@detail@json_parser@property_tree@boost@@U?$encoding@D@2345@V?$istreambuf_iterator@DU?$char_traits@D@std@@@std@@V78@@detail@json_parser@property_tree@boost@@@_bi@boost@@V?$value@PEBD@23@@23@@_bi@boost@@QEAAXXZ
	??$?RAEAE@?$bind_t@Uunspecified@_bi@boost@@V?$mf@P8?$standard_callbacks@V?$basic_ptree@V?$basic_string@DU?$char_traits@D@std@@V?$allocator@D@2@@std@@V12@U?$less@V?$basic_string@DU?$char_traits@D@std@@V?$allocator@D@2@@std@@@2@@property_tree@boost@@@detail@json_parser@property_tree@boost@@EAAXD@ZXV12345@D@_mfi@3@V?$list@V?$reference_wrapper@V?$standard_callbacks@V?$basic_ptree@V?$basic_string@DU?$char_traits@D@std@@V?$allocator@D@2@@std@@V12@U?$less@V?$basic_string@DU?$char_traits@D@std@@V?$allocator@D@2@@std@@@2@@property_tree@boost@@@detail@json_parser@property_tree@boost@@@boost@@U?$arg@$00@2@@23@@_bi@boost@@QEAAXAEAE@Z
	??$?RAEAPEAV?$parser@V?$standard_callbacks@V?$basic_ptree@V?$basic_string@DU?$char_traits@D@std@@V?$allocator@D@2@@std@@V12@U?$less@V?$basic_string@DU?$char_traits@D@std@@V?$allocator@D@2@@std@@@2@@property_tree@boost@@@detail@json_parser@property_tree@boost@@U?$encoding@D@2345@V?$istreambuf_iterator@DU?$char_traits@D@std@@@std@@V78@@detail@json_parser@property_tree@boost@@PEAV01234@XX@?$mf@P8?$parser@V?$standard_callbacks@V?$basic_ptree@V?$basic_string@DU?$char_traits@D@std@@V?$allocator@D@2@@std@@V12@U?$less@V?$basic_string@DU?$char_traits@D@std@@V?$allocator@D@2@@std@@@2@@property_tree@boost@@@detail@json_parser@property_tree@boost@@U?$encoding@D@2345@V?$istreambuf_iterator@DU?$char_traits@D@std@@@std@@V78@@detail@json_parser@property_tree@boost@@EAAXPEBD@ZXV12345@PEBD@_mfi@boost@@QEBAXAEAPEAV?$parser@V?$standard_callbacks@V?$basic_ptree@V?$basic_string@DU?$char_traits@D@std@@V?$allocator@D@2@@std@@V12@U?$less@V?$basic_string@DU?$char_traits@D@std@@V?$allocator@D@2@@std@@@2@@property_tree@boost@@@detail@json_parser@property_tree@boost@@U?$encoding@D@2345@V?$istreambuf_iterator@DU?$char_traits@D@std@@@std@@V78@@detail@json_parser@property_tree@2@PEBD@Z
	??$?RAEAU?$copy_map_entry@U?$sequenced_index_node@U?$ordered_index_node@Unull_augment_policy@detail@multi_index@boost@@U?$index_node_base@U?$pair@$$CBV?$basic_string@DU?$char_traits@D@std@@V?$allocator@D@2@@std@@V?$basic_ptree@V?$basic_string@DU?$char_traits@D@std@@V?$allocator@D@2@@std@@V12@U?$less@V?$basic_string@DU?$char_traits@D@std@@V?$allocator@D@2@@std@@@2@@property_tree@boost@@@std@@V?$allocator@U?$pair@$$CBV?$basic_string@DU?$char_traits@D@std@@V?$allocator@D@2@@std@@V?$basic_ptree@V?$basic_string@DU?$char_traits@D@std@@V?$allocator@D@2@@std@@V12@U?$less@V?$basic_string@DU?$char_traits@D@std@@V?$allocator@D@2@@std@@@2@@property_tree@boost@@@std@@@2@@234@@detail@multi_index@boost@@@detail@multi_index@boost@@@detail@multi_index@boost@@AEAU0123@@?$less@X@std@@QEBA_NAEAU?$copy_map_entry@U?$sequenced_index_node@U?$ordered_index_node@Unull_augment_policy@detail@multi_index@boost@@U?$index_node_base@U?$pair@$$CBV?$basic_string@DU?$char_traits@D@std@@V?$allocator@D@2@@std@@V?$basic_ptree@V?$basic_string@DU?$char_traits@D@std@@V?$allocator@D@2@@std@@V12@U?$less@V?$basic_string@DU?$char_traits@D@std@@V?$allocator@D@2@@std@@@2@@property_tree@boost@@@std@@V?$allocator@U?$pair@$$CBV?$basic_string@DU?$char_traits@D@std@@V?$allocator@D@2@@std@@V?$basic_ptree@V?$basic_string@DU?$char_traits@D@std@@V?$allocator@D@2@@std@@V12@U?$less@V?$basic_string@DU?$char_traits@D@std@@V?$allocator@D@2@@std@@@2@@property_tree@boost@@@std@@@2@@234@@detail@multi_index@boost@@@detail@multi_index@boost@@@detail@multi_index@boost@@0@Z
	??$?RAEAV?$standard_callbacks@V?$basic_ptree@V?$basic_string@DU?$char_traits@D@std@@V?$allocator@D@2@@std@@V12@U?$less@V?$basic_string@DU?$char_traits@D@std@@V?$allocator@D@2@@std@@@2@@property_tree@boost@@@detail@json_parser@property_tree@boost@@V01234@X@?$mf@P8?$standard_callbacks@V?$basic_ptree@V?$basic_string@DU?$char_traits@D@std@@V?$allocator@D@2@@std@@V12@U?$less@V?$basic_string@DU?$char_traits@D@std@@V?$allocator@D@2@@std@@@2@@property_tree@boost@@@detail@json_parser@property_tree@boost@@EAAXD@ZXV12345@D@_mfi@boost@@QEBAXAEAV?$standard_callbacks@V?$basic_ptree@V?$basic_string@DU?$char_traits@D@std@@V?$allocator@D@2@@std@@V12@U?$less@V?$basic_string@DU?$char_traits@D@std@@V?$allocator@D@2@@std@@@2@@property_tree@boost@@@detail@json_parser@property_tree@2@D@Z
	??$?RAEBU?$copy_map_entry@U?$sequenced_index_node@U?$ordered_index_node@Unull_augment_policy@detail@multi_index@boost@@U?$index_node_base@U?$pair@$$CBV?$basic_string@DU?$char_traits@D@std@@V?$allocator@D@2@@std@@V?$basic_ptree@V?$basic_string@DU?$char_traits@D@std@@V?$allocator@D@2@@std@@V12@U?$less@V?$basic_string@DU?$char_traits@D@std@@V?$allocator@D@2@@std@@@2@@property_tree@boost@@@std@@V?$allocator@U?$pair@$$CBV?$basic_string@DU?$char_traits@D@std@@V?$allocator@D@2@@std@@V?$basic_ptree@V?$basic_string@DU?$char_traits@D@std@@V?$allocator@D@2@@std@@V12@U?$less@V?$basic_string@DU?$char_traits@D@std@@V?$allocator@D@2@@std@@@2@@property_tree@boost@@@std@@@2@@234@@detail@multi_index@boost@@@detail@multi_index@boost@@@detail@multi_index@boost@@AEBU0123@@?$less@X@std@@QEBA_NAEBU?$copy_map_entry@U?$sequenced_index_node@U?$ordered_index_node@Unull_augment_policy@detail@multi_index@boost@@U?$index_node_base@U?$pair@$$CBV?$basic_string@DU?$char_traits@D@std@@V?$allocator@D@2@@std@@V?$basic_ptree@V?$basic_string@DU?$char_traits@D@std@@V?$allocator@D@2@@std@@V12@U?$less@V?$basic_string@DU?$char_traits@D@std@@V?$allocator@D@2@@std@@@2@@property_tree@boost@@@std@@V?$allocator@U?$pair@$$CBV?$basic_string@DU?$char_traits@D@std@@V?$allocator@D@2@@std@@V?$basic_ptree@V?$basic_string@DU?$char_traits@D@std@@V?$allocator@D@2@@std@@V12@U?$less@V?$basic_string@DU?$char_traits@D@std@@V?$allocator@D@2@@std@@@2@@property_tree@boost@@@std@@@2@@234@@detail@multi_index@boost@@@detail@multi_index@boost@@@detail@multi_index@boost@@0@Z
	??$?RAEBV?$basic_executor_type@V?$allocator@X@std@@$03@io_context@asio@boost@@AEBU?$blocking_t@$0A@@detail@execution@23@@impl@boost_asio_query_fn@@QEBA?AU?$blocking_t@$0A@@detail@execution@asio@boost@@AEBV?$basic_executor_type@V?$allocator@X@std@@$03@io_context@56@AEBU23456@@Z
	??$?RAEBV?$basic_executor_type@V?$allocator@X@std@@$03@io_context@asio@boost@@AEBU?$context_as_t@AEAVexecution_context@asio@boost@@@execution@23@@impl@boost_asio_query_fn@@QEBAAEAVexecution_context@asio@boost@@AEBV?$basic_executor_type@V?$allocator@X@std@@$03@io_context@34@AEBU?$context_as_t@AEAVexecution_context@asio@boost@@@execution@34@@Z
	??$?RAEBV?$basic_executor_type@V?$allocator@X@std@@$03@io_context@asio@boost@@AEBU?$context_t@$0A@@detail@execution@23@@impl@boost_asio_query_fn@@QEBAAEAVio_context@asio@boost@@AEBV?$basic_executor_type@V?$allocator@X@std@@$03@234@AEBU?$context_t@$0A@@detail@execution@34@@Z
	??$?RAEBV?$basic_executor_type@V?$allocator@X@std@@$03@io_context@asio@boost@@AEBU?$continuation_t@$0A@@relationship@detail@execution@23@@impl@boost_asio_prefer_fn@@QEBA?AV?$basic_executor_type@V?$allocator@X@std@@$03@io_context@asio@boost@@AEBV2345@AEBU?$continuation_t@$0A@@relationship@detail@execution@45@@Z
	??$?RAEBV?$basic_executor_type@V?$allocator@X@std@@$03@io_context@asio@boost@@AEBU?$continuation_t@$0A@@relationship@detail@execution@23@@impl@boost_asio_query_fn@@QEBA?AU?$relationship_t@$0A@@detail@execution@asio@boost@@AEBV?$basic_executor_type@V?$allocator@X@std@@$03@io_context@56@AEBU?$continuation_t@$0A@@relationship@3456@@Z
	??$?RAEBV?$basic_executor_type@V?$allocator@X@std@@$03@io_context@asio@boost@@AEBU?$fork_t@$0A@@relationship@detail@execution@23@@impl@boost_asio_prefer_fn@@QEBA?AV?$basic_executor_type@V?$allocator@X@std@@$03@io_context@asio@boost@@AEBV2345@AEBU?$fork_t@$0A@@relationship@detail@execution@45@@Z
	??$?RAEBV?$basic_executor_type@V?$allocator@X@std@@$03@io_context@asio@boost@@AEBU?$fork_t@$0A@@relationship@detail@execution@23@@impl@boost_asio_query_fn@@QEBA?AU?$relationship_t@$0A@@detail@execution@asio@boost@@AEBV?$basic_executor_type@V?$allocator@X@std@@$03@io_context@56@AEBU?$fork_t@$0A@@relationship@3456@@Z
	??$?RAEBV?$basic_executor_type@V?$allocator@X@std@@$03@io_context@asio@boost@@AEBU?$never_t@$0A@@blocking@detail@execution@23@@impl@boost_asio_prefer_fn@@QEBA?AV?$basic_executor_type@V?$allocator@X@std@@$03@io_context@asio@boost@@AEBV2345@AEBU?$never_t@$0A@@blocking@detail@execution@45@@Z
	??$?RAEBV?$basic_executor_type@V?$allocator@X@std@@$03@io_context@asio@boost@@AEBU?$never_t@$0A@@blocking@detail@execution@23@@impl@boost_asio_query_fn@@QEBA?AU?$blocking_t@$0A@@detail@execution@asio@boost@@AEBV?$basic_executor_type@V?$allocator@X@std@@$03@io_context@56@AEBU?$never_t@$0A@@blocking@3456@@Z
	??$?RAEBV?$basic_executor_type@V?$allocator@X@std@@$03@io_context@asio@boost@@AEBU?$never_t@$0A@@blocking@detail@execution@23@@impl@boost_asio_require_fn@@QEBA?AV?$basic_executor_type@V?$allocator@X@std@@$03@io_context@asio@boost@@AEBV2345@AEBU?$never_t@$0A@@blocking@detail@execution@45@@Z
	??$?RAEBV?$basic_executor_type@V?$allocator@X@std@@$03@io_context@asio@boost@@AEBU?$possibly_t@$0A@@blocking@detail@execution@23@@impl@boost_asio_prefer_fn@@QEBA?AV?$basic_executor_type@V?$allocator@X@std@@$03@io_context@asio@boost@@AEBV2345@AEBU?$possibly_t@$0A@@blocking@detail@execution@45@@Z
	??$?RAEBV?$basic_executor_type@V?$allocator@X@std@@$03@io_context@asio@boost@@AEBU?$possibly_t@$0A@@blocking@detail@execution@23@@impl@boost_asio_query_fn@@QEBA?AU?$blocking_t@$0A@@detail@execution@asio@boost@@AEBV?$basic_executor_type@V?$allocator@X@std@@$03@io_context@56@AEBU?$possibly_t@$0A@@blocking@3456@@Z
	??$?RAEBV?$basic_executor_type@V?$allocator@X@std@@$03@io_context@asio@boost@@AEBU?$prefer_only@U?$continuation_t@$0A@@relationship@detail@execution@asio@boost@@@execution@23@@impl@boost_asio_prefer_fn@@QEBA?AV?$basic_executor_type@V?$allocator@X@std@@$03@io_context@asio@boost@@AEBV2345@AEBU?$prefer_only@U?$continuation_t@$0A@@relationship@detail@execution@asio@boost@@@execution@45@@Z
	??$?RAEBV?$basic_executor_type@V?$allocator@X@std@@$03@io_context@asio@boost@@AEBU?$prefer_only@U?$continuation_t@$0A@@relationship@detail@execution@asio@boost@@@execution@23@@impl@boost_asio_query_fn@@QEBA?AU?$relationship_t@$0A@@detail@execution@asio@boost@@AEBV?$basic_executor_type@V?$allocator@X@std@@$03@io_context@56@AEBU?$prefer_only@U?$continuation_t@$0A@@relationship@detail@execution@asio@boost@@@456@@Z
	??$?RAEBV?$basic_executor_type@V?$allocator@X@std@@$03@io_context@asio@boost@@AEBU?$prefer_only@U?$fork_t@$0A@@relationship@detail@execution@asio@boost@@@execution@23@@impl@boost_asio_prefer_fn@@QEBA?AV?$basic_executor_type@V?$allocator@X@std@@$03@io_context@asio@boost@@AEBV2345@AEBU?$prefer_only@U?$fork_t@$0A@@relationship@detail@execution@asio@boost@@@execution@45@@Z
	??$?RAEBV?$basic_executor_type@V?$allocator@X@std@@$03@io_context@asio@boost@@AEBU?$prefer_only@U?$fork_t@$0A@@relationship@detail@execution@asio@boost@@@execution@23@@impl@boost_asio_query_fn@@QEBA?AU?$relationship_t@$0A@@detail@execution@asio@boost@@AEBV?$basic_executor_type@V?$allocator@X@std@@$03@io_context@56@AEBU?$prefer_only@U?$fork_t@$0A@@relationship@detail@execution@asio@boost@@@456@@Z
	??$?RAEBV?$basic_executor_type@V?$allocator@X@std@@$03@io_context@asio@boost@@AEBU?$prefer_only@U?$possibly_t@$0A@@blocking@detail@execution@asio@boost@@@execution@23@@impl@boost_asio_prefer_fn@@QEBA?AV?$basic_executor_type@V?$allocator@X@std@@$03@io_context@asio@boost@@AEBV2345@AEBU?$prefer_only@U?$possibly_t@$0A@@blocking@detail@execution@asio@boost@@@execution@45@@Z
	??$?RAEBV?$basic_executor_type@V?$allocator@X@std@@$03@io_context@asio@boost@@AEBU?$prefer_only@U?$possibly_t@$0A@@blocking@detail@execution@asio@boost@@@execution@23@@impl@boost_asio_query_fn@@QEBA?AU?$blocking_t@$0A@@detail@execution@asio@boost@@AEBV?$basic_executor_type@V?$allocator@X@std@@$03@io_context@56@AEBU?$prefer_only@U?$possibly_t@$0A@@blocking@detail@execution@asio@boost@@@456@@Z
	??$?RAEBV?$basic_executor_type@V?$allocator@X@std@@$03@io_context@asio@boost@@AEBU?$prefer_only@U?$tracked_t@$0A@@outstanding_work@detail@execution@asio@boost@@@execution@23@@impl@boost_asio_prefer_fn@@QEBAAEBV?$basic_executor_type@V?$allocator@X@std@@$03@io_context@asio@boost@@AEBV2345@AEBU?$prefer_only@U?$tracked_t@$0A@@outstanding_work@detail@execution@asio@boost@@@execution@45@@Z
	??$?RAEBV?$basic_executor_type@V?$allocator@X@std@@$03@io_context@asio@boost@@AEBU?$prefer_only@U?$tracked_t@$0A@@outstanding_work@detail@execution@asio@boost@@@execution@23@@impl@boost_asio_query_fn@@QEBA?AU?$outstanding_work_t@$0A@@detail@execution@asio@boost@@AEBV?$basic_executor_type@V?$allocator@X@std@@$03@io_context@56@AEBU?$prefer_only@U?$tracked_t@$0A@@outstanding_work@detail@execution@asio@boost@@@456@@Z
	??$?RAEBV?$basic_executor_type@V?$allocator@X@std@@$03@io_context@asio@boost@@AEBU?$prefer_only@U?$untracked_t@$0A@@outstanding_work@detail@execution@asio@boost@@@execution@23@@impl@boost_asio_prefer_fn@@QEBA?AV?$basic_executor_type@V?$allocator@X@std@@$0A@@io_context@asio@boost@@AEBV?$basic_executor_type@V?$allocator@X@std@@$03@345@AEBU?$prefer_only@U?$untracked_t@$0A@@outstanding_work@detail@execution@asio@boost@@@execution@45@@Z
	??$?RAEBV?$basic_executor_type@V?$allocator@X@std@@$03@io_context@asio@boost@@AEBU?$prefer_only@U?$untracked_t@$0A@@outstanding_work@detail@execution@asio@boost@@@execution@23@@impl@boost_asio_query_fn@@QEBA?AU?$outstanding_work_t@$0A@@detail@execution@asio@boost@@AEBV?$basic_executor_type@V?$allocator@X@std@@$03@io_context@56@AEBU?$prefer_only@U?$untracked_t@$0A@@outstanding_work@detail@execution@asio@boost@@@456@@Z
	??$?RAEBV?$basic_executor_type@V?$allocator@X@std@@$03@io_context@asio@boost@@AEBU?$tracked_t@$0A@@outstanding_work@detail@execution@23@@impl@boost_asio_prefer_fn@@QEBAAEBV?$basic_executor_type@V?$allocator@X@std@@$03@io_context@asio@boost@@AEBV2345@AEBU?$tracked_t@$0A@@outstanding_work@detail@execution@45@@Z
	??$?RAEBV?$basic_executor_type@V?$allocator@X@std@@$03@io_context@asio@boost@@AEBU?$untracked_t@$0A@@outstanding_work@detail@execution@23@@impl@boost_asio_prefer_fn@@QEBA?AV?$basic_executor_type@V?$allocator@X@std@@$0A@@io_context@asio@boost@@AEBV?$basic_executor_type@V?$allocator@X@std@@$03@345@AEBU?$untracked_t@$0A@@outstanding_work@detail@execution@45@@Z
	??$?RAEBV?$basic_executor_type@V?$allocator@X@std@@$0A@@io_context@asio@boost@@AEBU?$blocking_t@$0A@@detail@execution@23@@impl@boost_asio_query_fn@@QEBA?AU?$blocking_t@$0A@@detail@execution@asio@boost@@AEBV?$basic_executor_type@V?$allocator@X@std@@$0A@@io_context@56@AEBU23456@@Z
	??$?RAEBV?$basic_executor_type@V?$allocator@X@std@@$0A@@io_context@asio@boost@@AEBU?$context_as_t@AEAVexecution_context@asio@boost@@@execution@23@@impl@boost_asio_query_fn@@QEBAAEAVexecution_context@asio@boost@@AEBV?$basic_executor_type@V?$allocator@X@std@@$0A@@io_context@34@AEBU?$context_as_t@AEAVexecution_context@asio@boost@@@execution@34@@Z
	??$?RAEBV?$basic_executor_type@V?$allocator@X@std@@$0A@@io_context@asio@boost@@AEBU?$context_t@$0A@@detail@execution@23@@impl@boost_asio_query_fn@@QEBAAEAVio_context@asio@boost@@AEBV?$basic_executor_type@V?$allocator@X@std@@$0A@@234@AEBU?$context_t@$0A@@detail@execution@34@@Z
	??$?RAEBV?$basic_executor_type@V?$allocator@X@std@@$0A@@io_context@asio@boost@@AEBU?$continuation_t@$0A@@relationship@detail@execution@23@@impl@boost_asio_prefer_fn@@QEBA?AV?$basic_executor_type@V?$allocator@X@std@@$0A@@io_context@asio@boost@@AEBV2345@AEBU?$continuation_t@$0A@@relationship@detail@execution@45@@Z
	??$?RAEBV?$basic_executor_type@V?$allocator@X@std@@$0A@@io_context@asio@boost@@AEBU?$continuation_t@$0A@@relationship@detail@execution@23@@impl@boost_asio_query_fn@@QEBA?AU?$relationship_t@$0A@@detail@execution@asio@boost@@AEBV?$basic_executor_type@V?$allocator@X@std@@$0A@@io_context@56@AEBU?$continuation_t@$0A@@relationship@3456@@Z
	??$?RAEBV?$basic_executor_type@V?$allocator@X@std@@$0A@@io_context@asio@boost@@AEBU?$fork_t@$0A@@relationship@detail@execution@23@@impl@boost_asio_prefer_fn@@QEBA?AV?$basic_executor_type@V?$allocator@X@std@@$0A@@io_context@asio@boost@@AEBV2345@AEBU?$fork_t@$0A@@relationship@detail@execution@45@@Z
	??$?RAEBV?$basic_executor_type@V?$allocator@X@std@@$0A@@io_context@asio@boost@@AEBU?$fork_t@$0A@@relationship@detail@execution@23@@impl@boost_asio_query_fn@@QEBA?AU?$relationship_t@$0A@@detail@execution@asio@boost@@AEBV?$basic_executor_type@V?$allocator@X@std@@$0A@@io_context@56@AEBU?$fork_t@$0A@@relationship@3456@@Z
	??$?RAEBV?$basic_executor_type@V?$allocator@X@std@@$0A@@io_context@asio@boost@@AEBU?$never_t@$0A@@blocking@detail@execution@23@@impl@boost_asio_prefer_fn@@QEBA?AV?$basic_executor_type@V?$allocator@X@std@@$0A@@io_context@asio@boost@@AEBV2345@AEBU?$never_t@$0A@@blocking@detail@execution@45@@Z
	??$?RAEBV?$basic_executor_type@V?$allocator@X@std@@$0A@@io_context@asio@boost@@AEBU?$never_t@$0A@@blocking@detail@execution@23@@impl@boost_asio_query_fn@@QEBA?AU?$blocking_t@$0A@@detail@execution@asio@boost@@AEBV?$basic_executor_type@V?$allocator@X@std@@$0A@@io_context@56@AEBU?$never_t@$0A@@blocking@3456@@Z
	??$?RAEBV?$basic_executor_type@V?$allocator@X@std@@$0A@@io_context@asio@boost@@AEBU?$never_t@$0A@@blocking@detail@execution@23@@impl@boost_asio_require_fn@@QEBA?AV?$basic_executor_type@V?$allocator@X@std@@$0A@@io_context@asio@boost@@AEBV2345@AEBU?$never_t@$0A@@blocking@detail@execution@45@@Z
	??$?RAEBV?$basic_executor_type@V?$allocator@X@std@@$0A@@io_context@asio@boost@@AEBU?$possibly_t@$0A@@blocking@detail@execution@23@@impl@boost_asio_prefer_fn@@QEBA?AV?$basic_executor_type@V?$allocator@X@std@@$0A@@io_context@asio@boost@@AEBV2345@AEBU?$possibly_t@$0A@@blocking@detail@execution@45@@Z
	??$?RAEBV?$basic_executor_type@V?$allocator@X@std@@$0A@@io_context@asio@boost@@AEBU?$possibly_t@$0A@@blocking@detail@execution@23@@impl@boost_asio_query_fn@@QEBA?AU?$blocking_t@$0A@@detail@execution@asio@boost@@AEBV?$basic_executor_type@V?$allocator@X@std@@$0A@@io_context@56@AEBU?$possibly_t@$0A@@blocking@3456@@Z
	??$?RAEBV?$basic_executor_type@V?$allocator@X@std@@$0A@@io_context@asio@boost@@AEBU?$prefer_only@U?$continuation_t@$0A@@relationship@detail@execution@asio@boost@@@execution@23@@impl@boost_asio_prefer_fn@@QEBA?AV?$basic_executor_type@V?$allocator@X@std@@$0A@@io_context@asio@boost@@AEBV2345@AEBU?$prefer_only@U?$continuation_t@$0A@@relationship@detail@execution@asio@boost@@@execution@45@@Z
	??$?RAEBV?$basic_executor_type@V?$allocator@X@std@@$0A@@io_context@asio@boost@@AEBU?$prefer_only@U?$continuation_t@$0A@@relationship@detail@execution@asio@boost@@@execution@23@@impl@boost_asio_query_fn@@QEBA?AU?$relationship_t@$0A@@detail@execution@asio@boost@@AEBV?$basic_executor_type@V?$allocator@X@std@@$0A@@io_context@56@AEBU?$prefer_only@U?$continuation_t@$0A@@relationship@detail@execution@asio@boost@@@456@@Z
	??$?RAEBV?$basic_executor_type@V?$allocator@X@std@@$0A@@io_context@asio@boost@@AEBU?$prefer_only@U?$fork_t@$0A@@relationship@detail@execution@asio@boost@@@execution@23@@impl@boost_asio_prefer_fn@@QEBA?AV?$basic_executor_type@V?$allocator@X@std@@$0A@@io_context@asio@boost@@AEBV2345@AEBU?$prefer_only@U?$fork_t@$0A@@relationship@detail@execution@asio@boost@@@execution@45@@Z
	??$?RAEBV?$basic_executor_type@V?$allocator@X@std@@$0A@@io_context@asio@boost@@AEBU?$prefer_only@U?$fork_t@$0A@@relationship@detail@execution@asio@boost@@@execution@23@@impl@boost_asio_query_fn@@QEBA?AU?$relationship_t@$0A@@detail@execution@asio@boost@@AEBV?$basic_executor_type@V?$allocator@X@std@@$0A@@io_context@56@AEBU?$prefer_only@U?$fork_t@$0A@@relationship@detail@execution@asio@boost@@@456@@Z
	??$?RAEBV?$basic_executor_type@V?$allocator@X@std@@$0A@@io_context@asio@boost@@AEBU?$prefer_only@U?$possibly_t@$0A@@blocking@detail@execution@asio@boost@@@execution@23@@impl@boost_asio_prefer_fn@@QEBA?AV?$basic_executor_type@V?$allocator@X@std@@$0A@@io_context@asio@boost@@AEBV2345@AEBU?$prefer_only@U?$possibly_t@$0A@@blocking@detail@execution@asio@boost@@@execution@45@@Z
	??$?RAEBV?$basic_executor_type@V?$allocator@X@std@@$0A@@io_context@asio@boost@@AEBU?$prefer_only@U?$possibly_t@$0A@@blocking@detail@execution@asio@boost@@@execution@23@@impl@boost_asio_query_fn@@QEBA?AU?$blocking_t@$0A@@detail@execution@asio@boost@@AEBV?$basic_executor_type@V?$allocator@X@std@@$0A@@io_context@56@AEBU?$prefer_only@U?$possibly_t@$0A@@blocking@detail@execution@asio@boost@@@456@@Z
	??$?RAEBV?$basic_executor_type@V?$allocator@X@std@@$0A@@io_context@asio@boost@@AEBU?$prefer_only@U?$tracked_t@$0A@@outstanding_work@detail@execution@asio@boost@@@execution@23@@impl@boost_asio_prefer_fn@@QEBA?AV?$basic_executor_type@V?$allocator@X@std@@$03@io_context@asio@boost@@AEBV?$basic_executor_type@V?$allocator@X@std@@$0A@@345@AEBU?$prefer_only@U?$tracked_t@$0A@@outstanding_work@detail@execution@asio@boost@@@execution@45@@Z
	??$?RAEBV?$basic_executor_type@V?$allocator@X@std@@$0A@@io_context@asio@boost@@AEBU?$prefer_only@U?$tracked_t@$0A@@outstanding_work@detail@execution@asio@boost@@@execution@23@@impl@boost_asio_query_fn@@QEBA?AU?$outstanding_work_t@$0A@@detail@execution@asio@boost@@AEBV?$basic_executor_type@V?$allocator@X@std@@$0A@@io_context@56@AEBU?$prefer_only@U?$tracked_t@$0A@@outstanding_work@detail@execution@asio@boost@@@456@@Z
	??$?RAEBV?$basic_executor_type@V?$allocator@X@std@@$0A@@io_context@asio@boost@@AEBU?$prefer_only@U?$untracked_t@$0A@@outstanding_work@detail@execution@asio@boost@@@execution@23@@impl@boost_asio_prefer_fn@@QEBAAEBV?$basic_executor_type@V?$allocator@X@std@@$0A@@io_context@asio@boost@@AEBV2345@AEBU?$prefer_only@U?$untracked_t@$0A@@outstanding_work@detail@execution@asio@boost@@@execution@45@@Z
	??$?RAEBV?$basic_executor_type@V?$allocator@X@std@@$0A@@io_context@asio@boost@@AEBU?$prefer_only@U?$untracked_t@$0A@@outstanding_work@detail@execution@asio@boost@@@execution@23@@impl@boost_asio_query_fn@@QEBA?AU?$outstanding_work_t@$0A@@detail@execution@asio@boost@@AEBV?$basic_executor_type@V?$allocator@X@std@@$0A@@io_context@56@AEBU?$prefer_only@U?$untracked_t@$0A@@outstanding_work@detail@execution@asio@boost@@@456@@Z
	??$?RAEBV?$basic_executor_type@V?$allocator@X@std@@$0A@@io_context@asio@boost@@AEBU?$tracked_t@$0A@@outstanding_work@detail@execution@23@@impl@boost_asio_prefer_fn@@QEBA?AV?$basic_executor_type@V?$allocator@X@std@@$03@io_context@asio@boost@@AEBV?$basic_executor_type@V?$allocator@X@std@@$0A@@345@AEBU?$tracked_t@$0A@@outstanding_work@detail@execution@45@@Z
	??$?RAEBV?$basic_executor_type@V?$allocator@X@std@@$0A@@io_context@asio@boost@@AEBU?$untracked_t@$0A@@outstanding_work@detail@execution@23@@impl@boost_asio_prefer_fn@@QEBAAEBV?$basic_executor_type@V?$allocator@X@std@@$0A@@io_context@asio@boost@@AEBV2345@AEBU?$untracked_t@$0A@@outstanding_work@detail@execution@45@@Z
	??$?RAEBVany_io_executor@asio@boost@@AEBU?$context_t@$0A@@detail@execution@12@@impl@boost_asio_query_fn@@QEBAAEAVexecution_context@asio@boost@@AEBVany_io_executor@34@AEBU?$context_t@$0A@@detail@execution@34@@Z
	??$?RC@?$get_visitor@V?$basic_string@DU?$char_traits@D@std@@V?$allocator@D@2@@std@@@variant@detail@boost@@QEBAPEAV?$basic_string@DU?$char_traits@D@std@@V?$allocator@D@2@@std@@AEBC@Z
	??$?RD@?$bind_t@Uunspecified@_bi@boost@@V?$mf@P8?$standard_callbacks@V?$basic_ptree@V?$basic_string@DU?$char_traits@D@std@@V?$allocator@D@2@@std@@V12@U?$less@V?$basic_string@DU?$char_traits@D@std@@V?$allocator@D@2@@std@@@2@@property_tree@boost@@@detail@json_parser@property_tree@boost@@EAAXD@ZXV12345@D@_mfi@3@V?$list@V?$reference_wrapper@V?$standard_callbacks@V?$basic_ptree@V?$basic_string@DU?$char_traits@D@std@@V?$allocator@D@2@@std@@V12@U?$less@V?$basic_string@DU?$char_traits@D@std@@V?$allocator@D@2@@std@@@2@@property_tree@boost@@@detail@json_parser@property_tree@boost@@@boost@@U?$arg@$00@2@@23@@_bi@boost@@QEAAX$$QEAD@Z
	??$?RD@is_classifiedF@detail@algorithm@boost@@QEBA_ND@Z
	??$?RU?$pair@$$CBV?$basic_string@DU?$char_traits@D@std@@V?$allocator@D@2@@std@@V?$basic_ptree@V?$basic_string@DU?$char_traits@D@std@@V?$allocator@D@2@@std@@V12@U?$less@V?$basic_string@DU?$char_traits@D@std@@V?$allocator@D@2@@std@@@2@@property_tree@boost@@@std@@@copy_map_value_copier@detail@multi_index@boost@@QEBAAEBU?$pair@$$CBV?$basic_string@DU?$char_traits@D@std@@V?$allocator@D@2@@std@@V?$basic_ptree@V?$basic_string@DU?$char_traits@D@std@@V?$allocator@D@2@@std@@V12@U?$less@V?$basic_string@DU?$char_traits@D@std@@V?$allocator@D@2@@std@@@2@@property_tree@boost@@@std@@AEAU45@@Z
	??$?RV?$basic_resolver_entry@Vtcp@ip@asio@boost@@@ip@asio@boost@@@default_connect_condition@detail@asio@boost@@QEAA_NAEBVerror_code@system@3@AEBV?$basic_resolver_entry@Vtcp@ip@asio@boost@@@ip@23@@Z
	??$?RV?$basic_string@DU?$char_traits@D@std@@V?$allocator@D@2@@std@@@?$_Uhash_compare@V?$basic_string@DU?$char_traits@D@std@@V?$allocator@D@2@@std@@U?$hash@V?$basic_string@DU?$char_traits@D@std@@V?$allocator@D@2@@std@@@2@U?$equal_to@V?$basic_string@DU?$char_traits@D@std@@V?$allocator@D@2@@std@@@2@@std@@QEBA_KAEBV?$basic_string@DU?$char_traits@D@std@@V?$allocator@D@2@@1@@Z
	??$?RV?$basic_string@DU?$char_traits@D@std@@V?$allocator@D@2@@std@@@?$get_visitor@V?$shared_ptr@VInputFile@TgBot@@@std@@@variant@detail@boost@@QEBAPEAV?$shared_ptr@VInputFile@TgBot@@@std@@AEBV?$basic_string@DU?$char_traits@D@std@@V?$allocator@D@2@@5@@Z
	??$?RV?$basic_string@DU?$char_traits@D@std@@V?$allocator@D@2@@std@@@?$get_visitor@_J@variant@detail@boost@@QEBAPEA_JAEBV?$basic_string@DU?$char_traits@D@std@@V?$allocator@D@2@@std@@@Z
	??$?RV?$basic_string@DU?$char_traits@D@std@@V?$allocator@D@2@@std@@@?$printer@V?$basic_ostream@DU?$char_traits@D@std@@@std@@@variant@detail@boost@@QEBAXAEBV?$basic_string@DU?$char_traits@D@std@@V?$allocator@D@2@@std@@@Z
	??$?RV?$basic_string@DU?$char_traits@D@std@@V?$allocator@D@2@@std@@V01@@?$_Uhash_compare@V?$basic_string@DU?$char_traits@D@std@@V?$allocator@D@2@@std@@U?$hash@V?$basic_string@DU?$char_traits@D@std@@V?$allocator@D@2@@std@@@2@U?$equal_to@V?$basic_string@DU?$char_traits@D@std@@V?$allocator@D@2@@std@@@2@@std@@QEBA_NAEBV?$basic_string@DU?$char_traits@D@std@@V?$allocator@D@2@@1@0@Z
	??$?RV?$mersenne_twister_engine@I$0CA@$0CHA@$0BIN@$0BP@$0JJAILANP@$0L@$0PPPPPPPP@$06$0JNCMFGIA@$0P@$0OPMGAAAA@$0BC@$0GMAHIJGF@@std@@@?$uniform_int@_K@std@@QEAA_KAEAV?$mersenne_twister_engine@I$0CA@$0CHA@$0BIN@$0BP@$0JJAILANP@$0L@$0PPPPPPPP@$06$0JNCMFGIA@$0P@$0OPMGAAAA@$0BC@$0GMAHIJGF@@1@@Z
	??$?RV?$mersenne_twister_engine@I$0CA@$0CHA@$0BIN@$0BP@$0JJAILANP@$0L@$0PPPPPPPP@$06$0JNCMFGIA@$0P@$0OPMGAAAA@$0BC@$0GMAHIJGF@@std@@@?$uniform_int_distribution@_K@std@@QEAA_KAEAV?$mersenne_twister_engine@I$0CA@$0CHA@$0BIN@$0BP@$0JJAILANP@$0L@$0PPPPPPPP@$06$0JNCMFGIA@$0P@$0OPMGAAAA@$0BC@$0GMAHIJGF@@1@@Z
	??$?RV?$shared_ptr@VInputFile@TgBot@@@std@@@?$get_visitor@V?$basic_string@DU?$char_traits@D@std@@V?$allocator@D@2@@std@@@variant@detail@boost@@QEBAPEAV?$basic_string@DU?$char_traits@D@std@@V?$allocator@D@2@@std@@AEBV?$shared_ptr@VInputFile@TgBot@@@5@@Z
	??$?RVerror_code@system@boost@@@transfer_all_t@detail@asio@boost@@QEAA_KAEBVerror_code@system@3@_K@Z
	??$?RXV?$mf@P8?$parser@V?$standard_callbacks@V?$basic_ptree@V?$basic_string@DU?$char_traits@D@std@@V?$allocator@D@2@@std@@V12@U?$less@V?$basic_string@DU?$char_traits@D@std@@V?$allocator@D@2@@std@@@2@@property_tree@boost@@@detail@json_parser@property_tree@boost@@U?$encoding@D@2345@V?$istreambuf_iterator@DU?$char_traits@D@std@@@std@@V78@@detail@json_parser@property_tree@boost@@EAAXPEBD@ZXV12345@PEBD@_mfi@boost@@V?$rrlist@$$V@_bi@2@@?$list@V?$value@PEAV?$parser@V?$standard_callbacks@V?$basic_ptree@V?$basic_string@DU?$char_traits@D@std@@V?$allocator@D@2@@std@@V12@U?$less@V?$basic_string@DU?$char_traits@D@std@@V?$allocator@D@2@@std@@@2@@property_tree@boost@@@detail@json_parser@property_tree@boost@@U?$encoding@D@2345@V?$istreambuf_iterator@DU?$char_traits@D@std@@@std@@V78@@detail@json_parser@property_tree@boost@@@_bi@boost@@V?$value@PEBD@23@@_bi@boost@@QEAAXV?$type@X@12@AEAV?$mf@P8?$parser@V?$standard_callbacks@V?$basic_ptree@V?$basic_string@DU?$char_traits@D@std@@V?$allocator@D@2@@std@@V12@U?$less@V?$basic_string@DU?$char_traits@D@std@@V?$allocator@D@2@@std@@@2@@property_tree@boost@@@detail@json_parser@property_tree@boost@@U?$encoding@D@2345@V?$istreambuf_iterator@DU?$char_traits@D@std@@@std@@V78@@detail@json_parser@property_tree@boost@@EAAXPEBD@ZXV12345@PEBD@_mfi@2@AEAV?$rrlist@$$V@12@@Z
	??$?RXV?$mf@P8?$standard_callbacks@V?$basic_ptree@V?$basic_string@DU?$char_traits@D@std@@V?$allocator@D@2@@std@@V12@U?$less@V?$basic_string@DU?$char_traits@D@std@@V?$allocator@D@2@@std@@@2@@property_tree@boost@@@detail@json_parser@property_tree@boost@@EAAXD@ZXV12345@D@_mfi@boost@@V?$rrlist@AEAE@_bi@2@@?$list@V?$reference_wrapper@V?$standard_callbacks@V?$basic_ptree@V?$basic_string@DU?$char_traits@D@std@@V?$allocator@D@2@@std@@V12@U?$less@V?$basic_string@DU?$char_traits@D@std@@V?$allocator@D@2@@std@@@2@@property_tree@boost@@@detail@json_parser@property_tree@boost@@@boost@@U?$arg@$00@2@@_bi@boost@@QEAAXV?$type@X@12@AEAV?$mf@P8?$standard_callbacks@V?$basic_ptree@V?$basic_string@DU?$char_traits@D@std@@V?$allocator@D@2@@std@@V12@U?$less@V?$basic_string@DU?$char_traits@D@std@@V?$allocator@D@2@@std@@@2@@property_tree@boost@@@detail@json_parser@property_tree@boost@@EAAXD@ZXV12345@D@_mfi@2@AEAV?$rrlist@AEAE@12@@Z
	??$?RXV?$mf@P8?$standard_callbacks@V?$basic_ptree@V?$basic_string@DU?$char_traits@D@std@@V?$allocator@D@2@@std@@V12@U?$less@V?$basic_string@DU?$char_traits@D@std@@V?$allocator@D@2@@std@@@2@@property_tree@boost@@@detail@json_parser@property_tree@boost@@EAAXD@ZXV12345@D@_mfi@boost@@V?$rrlist@D@_bi@2@@?$list@V?$reference_wrapper@V?$standard_callbacks@V?$basic_ptree@V?$basic_string@DU?$char_traits@D@std@@V?$allocator@D@2@@std@@V12@U?$less@V?$basic_string@DU?$char_traits@D@std@@V?$allocator@D@2@@std@@@2@@property_tree@boost@@@detail@json_parser@property_tree@boost@@@boost@@U?$arg@$00@2@@_bi@boost@@QEAAXV?$type@X@12@AEAV?$mf@P8?$standard_callbacks@V?$basic_ptree@V?$basic_string@DU?$char_traits@D@std@@V?$allocator@D@2@@std@@V12@U?$less@V?$basic_string@DU?$char_traits@D@std@@V?$allocator@D@2@@std@@@2@@property_tree@boost@@@detail@json_parser@property_tree@boost@@EAAXD@ZXV12345@D@_mfi@2@AEAV?$rrlist@D@12@@Z
	??$?R_J@?$get_visitor@V?$basic_string@DU?$char_traits@D@std@@V?$allocator@D@2@@std@@@variant@detail@boost@@QEBAPEAV?$basic_string@DU?$char_traits@D@std@@V?$allocator@D@2@@std@@AEB_J@Z
	??$?R_J@?$printer@V?$basic_ostream@DU?$char_traits@D@std@@@std@@@variant@detail@boost@@QEBAXAEB_J@Z
	??$_Adl_verify_range@PEADPEAD@std@@YAXAEBQEAD0@Z
	??$_Adl_verify_range@PEAU?$copy_map_entry@U?$sequenced_index_node@U?$ordered_index_node@Unull_augment_policy@detail@multi_index@boost@@U?$index_node_base@U?$pair@$$CBV?$basic_string@DU?$char_traits@D@std@@V?$allocator@D@2@@std@@V?$basic_ptree@V?$basic_string@DU?$char_traits@D@std@@V?$allocator@D@2@@std@@V12@U?$less@V?$basic_string@DU?$char_traits@D@std@@V?$allocator@D@2@@std@@@2@@property_tree@boost@@@std@@V?$allocator@U?$pair@$$CBV?$basic_string@DU?$char_traits@D@std@@V?$allocator@D@2@@std@@V?$basic_ptree@V?$basic_string@DU?$char_traits@D@std@@V?$allocator@D@2@@std@@V12@U?$less@V?$basic_string@DU?$char_traits@D@std@@V?$allocator@D@2@@std@@@2@@property_tree@boost@@@std@@@2@@234@@detail@multi_index@boost@@@detail@multi_index@boost@@@detail@multi_index@boost@@PEAU1234@@std@@YAXAEBQEAU?$copy_map_entry@U?$sequenced_index_node@U?$ordered_index_node@Unull_augment_policy@detail@multi_index@boost@@U?$index_node_base@U?$pair@$$CBV?$basic_string@DU?$char_traits@D@std@@V?$allocator@D@2@@std@@V?$basic_ptree@V?$basic_string@DU?$char_traits@D@std@@V?$allocator@D@2@@std@@V12@U?$less@V?$basic_string@DU?$char_traits@D@std@@V?$allocator@D@2@@std@@@2@@property_tree@boost@@@std@@V?$allocator@U?$pair@$$CBV?$basic_string@DU?$char_traits@D@std@@V?$allocator@D@2@@std@@V?$basic_ptree@V?$basic_string@DU?$char_traits@D@std@@V?$allocator@D@2@@std@@V12@U?$less@V?$basic_string@DU?$char_traits@D@std@@V?$allocator@D@2@@std@@@2@@property_tree@boost@@@std@@@2@@234@@detail@multi_index@boost@@@detail@multi_index@boost@@@detail@multi_index@boost@@0@Z
	??$_Adl_verify_range@PEAV?$_List_unchecked_iterator@V?$_List_val@U?$_List_simple_types@U?$pair@$$CBV?$basic_string@DU?$char_traits@D@std@@V?$allocator@D@2@@std@@V12@@std@@@std@@@std@@@std@@PEAV12@@std@@YAXAEBQEAV?$_List_unchecked_iterator@V?$_List_val@U?$_List_simple_types@U?$pair@$$CBV?$basic_string@DU?$char_traits@D@std@@V?$allocator@D@2@@std@@V12@@std@@@std@@@std@@@0@0@Z
	??$_Adl_verify_range@PEAV?$_List_unchecked_iterator@V?$_List_val@U?$_List_simple_types@U?$pair@$$CBV?$basic_string@DU?$char_traits@D@std@@V?$allocator@D@2@@std@@V?$function@$$A6AXV?$shared_ptr@VMessage@TgBot@@@std@@@Z@2@@std@@@std@@@std@@@std@@PEAV12@@std@@YAXAEBQEAV?$_List_unchecked_iterator@V?$_List_val@U?$_List_simple_types@U?$pair@$$CBV?$basic_string@DU?$char_traits@D@std@@V?$allocator@D@2@@std@@V?$function@$$A6AXV?$shared_ptr@VMessage@TgBot@@@std@@@Z@2@@std@@@std@@@std@@@0@0@Z
	??$_Adl_verify_range@PEBDPEBD@std@@YAXAEBQEBD0@Z
	??$_Adl_verify_range@PEBU?$copy_map_entry@U?$sequenced_index_node@U?$ordered_index_node@Unull_augment_policy@detail@multi_index@boost@@U?$index_node_base@U?$pair@$$CBV?$basic_string@DU?$char_traits@D@std@@V?$allocator@D@2@@std@@V?$basic_ptree@V?$basic_string@DU?$char_traits@D@std@@V?$allocator@D@2@@std@@V12@U?$less@V?$basic_string@DU?$char_traits@D@std@@V?$allocator@D@2@@std@@@2@@property_tree@boost@@@std@@V?$allocator@U?$pair@$$CBV?$basic_string@DU?$char_traits@D@std@@V?$allocator@D@2@@std@@V?$basic_ptree@V?$basic_string@DU?$char_traits@D@std@@V?$allocator@D@2@@std@@V12@U?$less@V?$basic_string@DU?$char_traits@D@std@@V?$allocator@D@2@@std@@@2@@property_tree@boost@@@std@@@2@@234@@detail@multi_index@boost@@@detail@multi_index@boost@@@detail@multi_index@boost@@PEBU1234@@std@@YAXAEBQEBU?$copy_map_entry@U?$sequenced_index_node@U?$ordered_index_node@Unull_augment_policy@detail@multi_index@boost@@U?$index_node_base@U?$pair@$$CBV?$basic_string@DU?$char_traits@D@std@@V?$allocator@D@2@@std@@V?$basic_ptree@V?$basic_string@DU?$char_traits@D@std@@V?$allocator@D@2@@std@@V12@U?$less@V?$basic_string@DU?$char_traits@D@std@@V?$allocator@D@2@@std@@@2@@property_tree@boost@@@std@@V?$allocator@U?$pair@$$CBV?$basic_string@DU?$char_traits@D@std@@V?$allocator@D@2@@std@@V?$basic_ptree@V?$basic_string@DU?$char_traits@D@std@@V?$allocator@D@2@@std@@V12@U?$less@V?$basic_string@DU?$char_traits@D@std@@V?$allocator@D@2@@std@@@2@@property_tree@boost@@@std@@@2@@234@@detail@multi_index@boost@@@detail@multi_index@boost@@@detail@multi_index@boost@@0@Z
	??$_Adl_verify_range@PEB_WPEB_W@std@@YAXAEBQEB_W0@Z
	??$_Adl_verify_range@V?$_String_const_iterator@V?$_String_val@U?$_Simple_types@D@std@@@std@@@std@@V12@@std@@YAXAEBV?$_String_const_iterator@V?$_String_val@U?$_Simple_types@D@std@@@std@@@0@0@Z
	??$_Adl_verify_range@V?$_String_iterator@V?$_String_val@U?$_Simple_types@D@std@@@std@@@std@@V12@@std@@YAXAEBV?$_String_iterator@V?$_String_val@U?$_Simple_types@D@std@@@std@@@0@0@Z
	??$_Alias_construct_from@VBotCommandScope@TgBot@@@?$_Ptr_base@VBotCommandScopeAllChatAdministrators@TgBot@@@std@@IEAAXAEBV?$shared_ptr@VBotCommandScope@TgBot@@@1@PEAVBotCommandScopeAllChatAdministrators@TgBot@@@Z
	??$_Alias_construct_from@VBotCommandScope@TgBot@@@?$_Ptr_base@VBotCommandScopeAllGroupChats@TgBot@@@std@@IEAAXAEBV?$shared_ptr@VBotCommandScope@TgBot@@@1@PEAVBotCommandScopeAllGroupChats@TgBot@@@Z
	??$_Alias_construct_from@VBotCommandScope@TgBot@@@?$_Ptr_base@VBotCommandScopeAllPrivateChats@TgBot@@@std@@IEAAXAEBV?$shared_ptr@VBotCommandScope@TgBot@@@1@PEAVBotCommandScopeAllPrivateChats@TgBot@@@Z
	??$_Alias_construct_from@VBotCommandScope@TgBot@@@?$_Ptr_base@VBotCommandScopeChat@TgBot@@@std@@IEAAXAEBV?$shared_ptr@VBotCommandScope@TgBot@@@1@PEAVBotCommandScopeChat@TgBot@@@Z
	??$_Alias_construct_from@VBotCommandScope@TgBot@@@?$_Ptr_base@VBotCommandScopeChatAdministrators@TgBot@@@std@@IEAAXAEBV?$shared_ptr@VBotCommandScope@TgBot@@@1@PEAVBotCommandScopeChatAdministrators@TgBot@@@Z
	??$_Alias_construct_from@VBotCommandScope@TgBot@@@?$_Ptr_base@VBotCommandScopeChatMember@TgBot@@@std@@IEAAXAEBV?$shared_ptr@VBotCommandScope@TgBot@@@1@PEAVBotCommandScopeChatMember@TgBot@@@Z
	??$_Alias_construct_from@VBotCommandScope@TgBot@@@?$_Ptr_base@VBotCommandScopeDefault@TgBot@@@std@@IEAAXAEBV?$shared_ptr@VBotCommandScope@TgBot@@@1@PEAVBotCommandScopeDefault@TgBot@@@Z
	??$_Alias_construct_from@VChatMember@TgBot@@@?$_Ptr_base@VChatMemberAdministrator@TgBot@@@std@@IEAAXAEBV?$shared_ptr@VChatMember@TgBot@@@1@PEAVChatMemberAdministrator@TgBot@@@Z
	??$_Alias_construct_from@VChatMember@TgBot@@@?$_Ptr_base@VChatMemberBanned@TgBot@@@std@@IEAAXAEBV?$shared_ptr@VChatMember@TgBot@@@1@PEAVChatMemberBanned@TgBot@@@Z
	??$_Alias_construct_from@VChatMember@TgBot@@@?$_Ptr_base@VChatMemberLeft@TgBot@@@std@@IEAAXAEBV?$shared_ptr@VChatMember@TgBot@@@1@PEAVChatMemberLeft@TgBot@@@Z
	??$_Alias_construct_from@VChatMember@TgBot@@@?$_Ptr_base@VChatMemberMember@TgBot@@@std@@IEAAXAEBV?$shared_ptr@VChatMember@TgBot@@@1@PEAVChatMemberMember@TgBot@@@Z
	??$_Alias_construct_from@VChatMember@TgBot@@@?$_Ptr_base@VChatMemberOwner@TgBot@@@std@@IEAAXAEBV?$shared_ptr@VChatMember@TgBot@@@1@PEAVChatMemberOwner@TgBot@@@Z
	??$_Alias_construct_from@VChatMember@TgBot@@@?$_Ptr_base@VChatMemberRestricted@TgBot@@@std@@IEAAXAEBV?$shared_ptr@VChatMember@TgBot@@@1@PEAVChatMemberRestricted@TgBot@@@Z
	??$_Alias_construct_from@VGenericReply@TgBot@@@?$_Ptr_base@VForceReply@TgBot@@@std@@IEAAXAEBV?$shared_ptr@VGenericReply@TgBot@@@1@PEAVForceReply@TgBot@@@Z
	??$_Alias_construct_from@VGenericReply@TgBot@@@?$_Ptr_base@VInlineKeyboardMarkup@TgBot@@@std@@IEAAXAEBV?$shared_ptr@VGenericReply@TgBot@@@1@PEAVInlineKeyboardMarkup@TgBot@@@Z
	??$_Alias_construct_from@VGenericReply@TgBot@@@?$_Ptr_base@VReplyKeyboardMarkup@TgBot@@@std@@IEAAXAEBV?$shared_ptr@VGenericReply@TgBot@@@1@PEAVReplyKeyboardMarkup@TgBot@@@Z
	??$_Alias_construct_from@VGenericReply@TgBot@@@?$_Ptr_base@VReplyKeyboardRemove@TgBot@@@std@@IEAAXAEBV?$shared_ptr@VGenericReply@TgBot@@@1@PEAVReplyKeyboardRemove@TgBot@@@Z
	??$_Alias_construct_from@VInlineQueryResult@TgBot@@@?$_Ptr_base@VInlineQueryResultArticle@TgBot@@@std@@IEAAXAEBV?$shared_ptr@VInlineQueryResult@TgBot@@@1@PEAVInlineQueryResultArticle@TgBot@@@Z
	??$_Alias_construct_from@VInlineQueryResult@TgBot@@@?$_Ptr_base@VInlineQueryResultAudio@TgBot@@@std@@IEAAXAEBV?$shared_ptr@VInlineQueryResult@TgBot@@@1@PEAVInlineQueryResultAudio@TgBot@@@Z
	??$_Alias_construct_from@VInlineQueryResult@TgBot@@@?$_Ptr_base@VInlineQueryResultCachedAudio@TgBot@@@std@@IEAAXAEBV?$shared_ptr@VInlineQueryResult@TgBot@@@1@PEAVInlineQueryResultCachedAudio@TgBot@@@Z
	??$_Alias_construct_from@VInlineQueryResult@TgBot@@@?$_Ptr_base@VInlineQueryResultCachedDocument@TgBot@@@std@@IEAAXAEBV?$shared_ptr@VInlineQueryResult@TgBot@@@1@PEAVInlineQueryResultCachedDocument@TgBot@@@Z
	??$_Alias_construct_from@VInlineQueryResult@TgBot@@@?$_Ptr_base@VInlineQueryResultCachedGif@TgBot@@@std@@IEAAXAEBV?$shared_ptr@VInlineQueryResult@TgBot@@@1@PEAVInlineQueryResultCachedGif@TgBot@@@Z
	??$_Alias_construct_from@VInlineQueryResult@TgBot@@@?$_Ptr_base@VInlineQueryResultCachedMpeg4Gif@TgBot@@@std@@IEAAXAEBV?$shared_ptr@VInlineQueryResult@TgBot@@@1@PEAVInlineQueryResultCachedMpeg4Gif@TgBot@@@Z
	??$_Alias_construct_from@VInlineQueryResult@TgBot@@@?$_Ptr_base@VInlineQueryResultCachedPhoto@TgBot@@@std@@IEAAXAEBV?$shared_ptr@VInlineQueryResult@TgBot@@@1@PEAVInlineQueryResultCachedPhoto@TgBot@@@Z
	??$_Alias_construct_from@VInlineQueryResult@TgBot@@@?$_Ptr_base@VInlineQueryResultCachedSticker@TgBot@@@std@@IEAAXAEBV?$shared_ptr@VInlineQueryResult@TgBot@@@1@PEAVInlineQueryResultCachedSticker@TgBot@@@Z
	??$_Alias_construct_from@VInlineQueryResult@TgBot@@@?$_Ptr_base@VInlineQueryResultCachedVideo@TgBot@@@std@@IEAAXAEBV?$shared_ptr@VInlineQueryResult@TgBot@@@1@PEAVInlineQueryResultCachedVideo@TgBot@@@Z
	??$_Alias_construct_from@VInlineQueryResult@TgBot@@@?$_Ptr_base@VInlineQueryResultCachedVoice@TgBot@@@std@@IEAAXAEBV?$shared_ptr@VInlineQueryResult@TgBot@@@1@PEAVInlineQueryResultCachedVoice@TgBot@@@Z
	??$_Alias_construct_from@VInlineQueryResult@TgBot@@@?$_Ptr_base@VInlineQueryResultContact@TgBot@@@std@@IEAAXAEBV?$shared_ptr@VInlineQueryResult@TgBot@@@1@PEAVInlineQueryResultContact@TgBot@@@Z
	??$_Alias_construct_from@VInlineQueryResult@TgBot@@@?$_Ptr_base@VInlineQueryResultDocument@TgBot@@@std@@IEAAXAEBV?$shared_ptr@VInlineQueryResult@TgBot@@@1@PEAVInlineQueryResultDocument@TgBot@@@Z
	??$_Alias_construct_from@VInlineQueryResult@TgBot@@@?$_Ptr_base@VInlineQueryResultGame@TgBot@@@std@@IEAAXAEBV?$shared_ptr@VInlineQueryResult@TgBot@@@1@PEAVInlineQueryResultGame@TgBot@@@Z
	??$_Alias_construct_from@VInlineQueryResult@TgBot@@@?$_Ptr_base@VInlineQueryResultGif@TgBot@@@std@@IEAAXAEBV?$shared_ptr@VInlineQueryResult@TgBot@@@1@PEAVInlineQueryResultGif@TgBot@@@Z
	??$_Alias_construct_from@VInlineQueryResult@TgBot@@@?$_Ptr_base@VInlineQueryResultLocation@TgBot@@@std@@IEAAXAEBV?$shared_ptr@VInlineQueryResult@TgBot@@@1@PEAVInlineQueryResultLocation@TgBot@@@Z
	??$_Alias_construct_from@VInlineQueryResult@TgBot@@@?$_Ptr_base@VInlineQueryResultMpeg4Gif@TgBot@@@std@@IEAAXAEBV?$shared_ptr@VInlineQueryResult@TgBot@@@1@PEAVInlineQueryResultMpeg4Gif@TgBot@@@Z
	??$_Alias_construct_from@VInlineQueryResult@TgBot@@@?$_Ptr_base@VInlineQueryResultPhoto@TgBot@@@std@@IEAAXAEBV?$shared_ptr@VInlineQueryResult@TgBot@@@1@PEAVInlineQueryResultPhoto@TgBot@@@Z
	??$_Alias_construct_from@VInlineQueryResult@TgBot@@@?$_Ptr_base@VInlineQueryResultVenue@TgBot@@@std@@IEAAXAEBV?$shared_ptr@VInlineQueryResult@TgBot@@@1@PEAVInlineQueryResultVenue@TgBot@@@Z
	??$_Alias_construct_from@VInlineQueryResult@TgBot@@@?$_Ptr_base@VInlineQueryResultVideo@TgBot@@@std@@IEAAXAEBV?$shared_ptr@VInlineQueryResult@TgBot@@@1@PEAVInlineQueryResultVideo@TgBot@@@Z
	??$_Alias_construct_from@VInlineQueryResult@TgBot@@@?$_Ptr_base@VInlineQueryResultVoice@TgBot@@@std@@IEAAXAEBV?$shared_ptr@VInlineQueryResult@TgBot@@@1@PEAVInlineQueryResultVoice@TgBot@@@Z
	??$_Alias_construct_from@VInputMedia@TgBot@@@?$_Ptr_base@VInputMediaAnimation@TgBot@@@std@@IEAAXAEBV?$shared_ptr@VInputMedia@TgBot@@@1@PEAVInputMediaAnimation@TgBot@@@Z
	??$_Alias_construct_from@VInputMedia@TgBot@@@?$_Ptr_base@VInputMediaAudio@TgBot@@@std@@IEAAXAEBV?$shared_ptr@VInputMedia@TgBot@@@1@PEAVInputMediaAudio@TgBot@@@Z
	??$_Alias_construct_from@VInputMedia@TgBot@@@?$_Ptr_base@VInputMediaDocument@TgBot@@@std@@IEAAXAEBV?$shared_ptr@VInputMedia@TgBot@@@1@PEAVInputMediaDocument@TgBot@@@Z
	??$_Alias_construct_from@VInputMedia@TgBot@@@?$_Ptr_base@VInputMediaPhoto@TgBot@@@std@@IEAAXAEBV?$shared_ptr@VInputMedia@TgBot@@@1@PEAVInputMediaPhoto@TgBot@@@Z
	??$_Alias_construct_from@VInputMedia@TgBot@@@?$_Ptr_base@VInputMediaVideo@TgBot@@@std@@IEAAXAEBV?$shared_ptr@VInputMedia@TgBot@@@1@PEAVInputMediaVideo@TgBot@@@Z
	??$_Alias_construct_from@VInputMessageContent@TgBot@@@?$_Ptr_base@VInputContactMessageContent@TgBot@@@std@@IEAAXAEBV?$shared_ptr@VInputMessageContent@TgBot@@@1@PEAVInputContactMessageContent@TgBot@@@Z
	??$_Alias_construct_from@VInputMessageContent@TgBot@@@?$_Ptr_base@VInputInvoiceMessageContent@TgBot@@@std@@IEAAXAEBV?$shared_ptr@VInputMessageContent@TgBot@@@1@PEAVInputInvoiceMessageContent@TgBot@@@Z
	??$_Alias_construct_from@VInputMessageContent@TgBot@@@?$_Ptr_base@VInputLocationMessageContent@TgBot@@@std@@IEAAXAEBV?$shared_ptr@VInputMessageContent@TgBot@@@1@PEAVInputLocationMessageContent@TgBot@@@Z
	??$_Alias_construct_from@VInputMessageContent@TgBot@@@?$_Ptr_base@VInputTextMessageContent@TgBot@@@std@@IEAAXAEBV?$shared_ptr@VInputMessageContent@TgBot@@@1@PEAVInputTextMessageContent@TgBot@@@Z
	??$_Alias_construct_from@VInputMessageContent@TgBot@@@?$_Ptr_base@VInputVenueMessageContent@TgBot@@@std@@IEAAXAEBV?$shared_ptr@VInputMessageContent@TgBot@@@1@PEAVInputVenueMessageContent@TgBot@@@Z
	??$_Alias_construct_from@VMenuButton@TgBot@@@?$_Ptr_base@VMenuButtonCommands@TgBot@@@std@@IEAAXAEBV?$shared_ptr@VMenuButton@TgBot@@@1@PEAVMenuButtonCommands@TgBot@@@Z
	??$_Alias_construct_from@VMenuButton@TgBot@@@?$_Ptr_base@VMenuButtonDefault@TgBot@@@std@@IEAAXAEBV?$shared_ptr@VMenuButton@TgBot@@@1@PEAVMenuButtonDefault@TgBot@@@Z
	??$_Alias_construct_from@VMenuButton@TgBot@@@?$_Ptr_base@VMenuButtonWebApp@TgBot@@@std@@IEAAXAEBV?$shared_ptr@VMenuButton@TgBot@@@1@PEAVMenuButtonWebApp@TgBot@@@Z
	??$_Alias_construct_from@VPassportElementError@TgBot@@@?$_Ptr_base@VPassportElementErrorDataField@TgBot@@@std@@IEAAXAEBV?$shared_ptr@VPassportElementError@TgBot@@@1@PEAVPassportElementErrorDataField@TgBot@@@Z
	??$_Alias_construct_from@VPassportElementError@TgBot@@@?$_Ptr_base@VPassportElementErrorFile@TgBot@@@std@@IEAAXAEBV?$shared_ptr@VPassportElementError@TgBot@@@1@PEAVPassportElementErrorFile@TgBot@@@Z
	??$_Alias_construct_from@VPassportElementError@TgBot@@@?$_Ptr_base@VPassportElementErrorFiles@TgBot@@@std@@IEAAXAEBV?$shared_ptr@VPassportElementError@TgBot@@@1@PEAVPassportElementErrorFiles@TgBot@@@Z
	??$_Alias_construct_from@VPassportElementError@TgBot@@@?$_Ptr_base@VPassportElementErrorFrontSide@TgBot@@@std@@IEAAXAEBV?$shared_ptr@VPassportElementError@TgBot@@@1@PEAVPassportElementErrorFrontSide@TgBot@@@Z
	??$_Alias_construct_from@VPassportElementError@TgBot@@@?$_Ptr_base@VPassportElementErrorReverseSide@TgBot@@@std@@IEAAXAEBV?$shared_ptr@VPassportElementError@TgBot@@@1@PEAVPassportElementErrorReverseSide@TgBot@@@Z
	??$_Alias_construct_from@VPassportElementError@TgBot@@@?$_Ptr_base@VPassportElementErrorSelfie@TgBot@@@std@@IEAAXAEBV?$shared_ptr@VPassportElementError@TgBot@@@1@PEAVPassportElementErrorSelfie@TgBot@@@Z
	??$_Alias_construct_from@VPassportElementError@TgBot@@@?$_Ptr_base@VPassportElementErrorTranslationFile@TgBot@@@std@@IEAAXAEBV?$shared_ptr@VPassportElementError@TgBot@@@1@PEAVPassportElementErrorTranslationFile@TgBot@@@Z
	??$_Alias_construct_from@VPassportElementError@TgBot@@@?$_Ptr_base@VPassportElementErrorTranslationFiles@TgBot@@@std@@IEAAXAEBV?$shared_ptr@VPassportElementError@TgBot@@@1@PEAVPassportElementErrorTranslationFiles@TgBot@@@Z
	??$_Alias_construct_from@VPassportElementError@TgBot@@@?$_Ptr_base@VPassportElementErrorUnspecified@TgBot@@@std@@IEAAXAEBV?$shared_ptr@VPassportElementError@TgBot@@@1@PEAVPassportElementErrorUnspecified@TgBot@@@Z
	??$_Alias_move_construct_from@VBotCommandScopeAllChatAdministrators@TgBot@@@?$_Ptr_base@VBotCommandScope@TgBot@@@std@@IEAAX$$QEAV?$shared_ptr@VBotCommandScopeAllChatAdministrators@TgBot@@@1@PEAVBotCommandScope@TgBot@@@Z
	??$_Alias_move_construct_from@VBotCommandScopeAllGroupChats@TgBot@@@?$_Ptr_base@VBotCommandScope@TgBot@@@std@@IEAAX$$QEAV?$shared_ptr@VBotCommandScopeAllGroupChats@TgBot@@@1@PEAVBotCommandScope@TgBot@@@Z
	??$_Alias_move_construct_from@VBotCommandScopeAllPrivateChats@TgBot@@@?$_Ptr_base@VBotCommandScope@TgBot@@@std@@IEAAX$$QEAV?$shared_ptr@VBotCommandScopeAllPrivateChats@TgBot@@@1@PEAVBotCommandScope@TgBot@@@Z
	??$_Alias_move_construct_from@VBotCommandScopeChat@TgBot@@@?$_Ptr_base@VBotCommandScope@TgBot@@@std@@IEAAX$$QEAV?$shared_ptr@VBotCommandScopeChat@TgBot@@@1@PEAVBotCommandScope@TgBot@@@Z
	??$_Alias_move_construct_from@VBotCommandScopeChatAdministrators@TgBot@@@?$_Ptr_base@VBotCommandScope@TgBot@@@std@@IEAAX$$QEAV?$shared_ptr@VBotCommandScopeChatAdministrators@TgBot@@@1@PEAVBotCommandScope@TgBot@@@Z
	??$_Alias_move_construct_from@VBotCommandScopeChatMember@TgBot@@@?$_Ptr_base@VBotCommandScope@TgBot@@@std@@IEAAX$$QEAV?$shared_ptr@VBotCommandScopeChatMember@TgBot@@@1@PEAVBotCommandScope@TgBot@@@Z
	??$_Alias_move_construct_from@VBotCommandScopeDefault@TgBot@@@?$_Ptr_base@VBotCommandScope@TgBot@@@std@@IEAAX$$QEAV?$shared_ptr@VBotCommandScopeDefault@TgBot@@@1@PEAVBotCommandScope@TgBot@@@Z
	??$_Alias_move_construct_from@VChatMemberAdministrator@TgBot@@@?$_Ptr_base@VChatMember@TgBot@@@std@@IEAAX$$QEAV?$shared_ptr@VChatMemberAdministrator@TgBot@@@1@PEAVChatMember@TgBot@@@Z
	??$_Alias_move_construct_from@VChatMemberBanned@TgBot@@@?$_Ptr_base@VChatMember@TgBot@@@std@@IEAAX$$QEAV?$shared_ptr@VChatMemberBanned@TgBot@@@1@PEAVChatMember@TgBot@@@Z
	??$_Alias_move_construct_from@VChatMemberLeft@TgBot@@@?$_Ptr_base@VChatMember@TgBot@@@std@@IEAAX$$QEAV?$shared_ptr@VChatMemberLeft@TgBot@@@1@PEAVChatMember@TgBot@@@Z
	??$_Alias_move_construct_from@VChatMemberMember@TgBot@@@?$_Ptr_base@VChatMember@TgBot@@@std@@IEAAX$$QEAV?$shared_ptr@VChatMemberMember@TgBot@@@1@PEAVChatMember@TgBot@@@Z
	??$_Alias_move_construct_from@VChatMemberOwner@TgBot@@@?$_Ptr_base@VChatMember@TgBot@@@std@@IEAAX$$QEAV?$shared_ptr@VChatMemberOwner@TgBot@@@1@PEAVChatMember@TgBot@@@Z
	??$_Alias_move_construct_from@VChatMemberRestricted@TgBot@@@?$_Ptr_base@VChatMember@TgBot@@@std@@IEAAX$$QEAV?$shared_ptr@VChatMemberRestricted@TgBot@@@1@PEAVChatMember@TgBot@@@Z
	??$_Alias_move_construct_from@VForceReply@TgBot@@@?$_Ptr_base@VGenericReply@TgBot@@@std@@IEAAX$$QEAV?$shared_ptr@VForceReply@TgBot@@@1@PEAVGenericReply@TgBot@@@Z
	??$_Alias_move_construct_from@VInlineKeyboardMarkup@TgBot@@@?$_Ptr_base@VGenericReply@TgBot@@@std@@IEAAX$$QEAV?$shared_ptr@VInlineKeyboardMarkup@TgBot@@@1@PEAVGenericReply@TgBot@@@Z
	??$_Alias_move_construct_from@VInlineQueryResultArticle@TgBot@@@?$_Ptr_base@VInlineQueryResult@TgBot@@@std@@IEAAX$$QEAV?$shared_ptr@VInlineQueryResultArticle@TgBot@@@1@PEAVInlineQueryResult@TgBot@@@Z
	??$_Alias_move_construct_from@VInlineQueryResultAudio@TgBot@@@?$_Ptr_base@VInlineQueryResult@TgBot@@@std@@IEAAX$$QEAV?$shared_ptr@VInlineQueryResultAudio@TgBot@@@1@PEAVInlineQueryResult@TgBot@@@Z
	??$_Alias_move_construct_from@VInlineQueryResultCachedAudio@TgBot@@@?$_Ptr_base@VInlineQueryResult@TgBot@@@std@@IEAAX$$QEAV?$shared_ptr@VInlineQueryResultCachedAudio@TgBot@@@1@PEAVInlineQueryResult@TgBot@@@Z
	??$_Alias_move_construct_from@VInlineQueryResultCachedDocument@TgBot@@@?$_Ptr_base@VInlineQueryResult@TgBot@@@std@@IEAAX$$QEAV?$shared_ptr@VInlineQueryResultCachedDocument@TgBot@@@1@PEAVInlineQueryResult@TgBot@@@Z
	??$_Alias_move_construct_from@VInlineQueryResultCachedGif@TgBot@@@?$_Ptr_base@VInlineQueryResult@TgBot@@@std@@IEAAX$$QEAV?$shared_ptr@VInlineQueryResultCachedGif@TgBot@@@1@PEAVInlineQueryResult@TgBot@@@Z
	??$_Alias_move_construct_from@VInlineQueryResultCachedMpeg4Gif@TgBot@@@?$_Ptr_base@VInlineQueryResult@TgBot@@@std@@IEAAX$$QEAV?$shared_ptr@VInlineQueryResultCachedMpeg4Gif@TgBot@@@1@PEAVInlineQueryResult@TgBot@@@Z
	??$_Alias_move_construct_from@VInlineQueryResultCachedPhoto@TgBot@@@?$_Ptr_base@VInlineQueryResult@TgBot@@@std@@IEAAX$$QEAV?$shared_ptr@VInlineQueryResultCachedPhoto@TgBot@@@1@PEAVInlineQueryResult@TgBot@@@Z
	??$_Alias_move_construct_from@VInlineQueryResultCachedSticker@TgBot@@@?$_Ptr_base@VInlineQueryResult@TgBot@@@std@@IEAAX$$QEAV?$shared_ptr@VInlineQueryResultCachedSticker@TgBot@@@1@PEAVInlineQueryResult@TgBot@@@Z
	??$_Alias_move_construct_from@VInlineQueryResultCachedVideo@TgBot@@@?$_Ptr_base@VInlineQueryResult@TgBot@@@std@@IEAAX$$QEAV?$shared_ptr@VInlineQueryResultCachedVideo@TgBot@@@1@PEAVInlineQueryResult@TgBot@@@Z
	??$_Alias_move_construct_from@VInlineQueryResultCachedVoice@TgBot@@@?$_Ptr_base@VInlineQueryResult@TgBot@@@std@@IEAAX$$QEAV?$shared_ptr@VInlineQueryResultCachedVoice@TgBot@@@1@PEAVInlineQueryResult@TgBot@@@Z
	??$_Alias_move_construct_from@VInlineQueryResultContact@TgBot@@@?$_Ptr_base@VInlineQueryResult@TgBot@@@std@@IEAAX$$QEAV?$shared_ptr@VInlineQueryResultContact@TgBot@@@1@PEAVInlineQueryResult@TgBot@@@Z
	??$_Alias_move_construct_from@VInlineQueryResultDocument@TgBot@@@?$_Ptr_base@VInlineQueryResult@TgBot@@@std@@IEAAX$$QEAV?$shared_ptr@VInlineQueryResultDocument@TgBot@@@1@PEAVInlineQueryResult@TgBot@@@Z
	??$_Alias_move_construct_from@VInlineQueryResultGame@TgBot@@@?$_Ptr_base@VInlineQueryResult@TgBot@@@std@@IEAAX$$QEAV?$shared_ptr@VInlineQueryResultGame@TgBot@@@1@PEAVInlineQueryResult@TgBot@@@Z
	??$_Alias_move_construct_from@VInlineQueryResultGif@TgBot@@@?$_Ptr_base@VInlineQueryResult@TgBot@@@std@@IEAAX$$QEAV?$shared_ptr@VInlineQueryResultGif@TgBot@@@1@PEAVInlineQueryResult@TgBot@@@Z
	??$_Alias_move_construct_from@VInlineQueryResultLocation@TgBot@@@?$_Ptr_base@VInlineQueryResult@TgBot@@@std@@IEAAX$$QEAV?$shared_ptr@VInlineQueryResultLocation@TgBot@@@1@PEAVInlineQueryResult@TgBot@@@Z
	??$_Alias_move_construct_from@VInlineQueryResultMpeg4Gif@TgBot@@@?$_Ptr_base@VInlineQueryResult@TgBot@@@std@@IEAAX$$QEAV?$shared_ptr@VInlineQueryResultMpeg4Gif@TgBot@@@1@PEAVInlineQueryResult@TgBot@@@Z
	??$_Alias_move_construct_from@VInlineQueryResultPhoto@TgBot@@@?$_Ptr_base@VInlineQueryResult@TgBot@@@std@@IEAAX$$QEAV?$shared_ptr@VInlineQueryResultPhoto@TgBot@@@1@PEAVInlineQueryResult@TgBot@@@Z
	??$_Alias_move_construct_from@VInlineQueryResultVenue@TgBot@@@?$_Ptr_base@VInlineQueryResult@TgBot@@@std@@IEAAX$$QEAV?$shared_ptr@VInlineQueryResultVenue@TgBot@@@1@PEAVInlineQueryResult@TgBot@@@Z
	??$_Alias_move_construct_from@VInlineQueryResultVideo@TgBot@@@?$_Ptr_base@VInlineQueryResult@TgBot@@@std@@IEAAX$$QEAV?$shared_ptr@VInlineQueryResultVideo@TgBot@@@1@PEAVInlineQueryResult@TgBot@@@Z
	??$_Alias_move_construct_from@VInlineQueryResultVoice@TgBot@@@?$_Ptr_base@VInlineQueryResult@TgBot@@@std@@IEAAX$$QEAV?$shared_ptr@VInlineQueryResultVoice@TgBot@@@1@PEAVInlineQueryResult@TgBot@@@Z
	??$_Alias_move_construct_from@VInputContactMessageContent@TgBot@@@?$_Ptr_base@VInputMessageContent@TgBot@@@std@@IEAAX$$QEAV?$shared_ptr@VInputContactMessageContent@TgBot@@@1@PEAVInputMessageContent@TgBot@@@Z
	??$_Alias_move_construct_from@VInputInvoiceMessageContent@TgBot@@@?$_Ptr_base@VInputMessageContent@TgBot@@@std@@IEAAX$$QEAV?$shared_ptr@VInputInvoiceMessageContent@TgBot@@@1@PEAVInputMessageContent@TgBot@@@Z
	??$_Alias_move_construct_from@VInputLocationMessageContent@TgBot@@@?$_Ptr_base@VInputMessageContent@TgBot@@@std@@IEAAX$$QEAV?$shared_ptr@VInputLocationMessageContent@TgBot@@@1@PEAVInputMessageContent@TgBot@@@Z
	??$_Alias_move_construct_from@VInputMediaAnimation@TgBot@@@?$_Ptr_base@VInputMedia@TgBot@@@std@@IEAAX$$QEAV?$shared_ptr@VInputMediaAnimation@TgBot@@@1@PEAVInputMedia@TgBot@@@Z
	??$_Alias_move_construct_from@VInputMediaAudio@TgBot@@@?$_Ptr_base@VInputMedia@TgBot@@@std@@IEAAX$$QEAV?$shared_ptr@VInputMediaAudio@TgBot@@@1@PEAVInputMedia@TgBot@@@Z
	??$_Alias_move_construct_from@VInputMediaDocument@TgBot@@@?$_Ptr_base@VInputMedia@TgBot@@@std@@IEAAX$$QEAV?$shared_ptr@VInputMediaDocument@TgBot@@@1@PEAVInputMedia@TgBot@@@Z
	??$_Alias_move_construct_from@VInputMediaPhoto@TgBot@@@?$_Ptr_base@VInputMedia@TgBot@@@std@@IEAAX$$QEAV?$shared_ptr@VInputMediaPhoto@TgBot@@@1@PEAVInputMedia@TgBot@@@Z
	??$_Alias_move_construct_from@VInputMediaVideo@TgBot@@@?$_Ptr_base@VInputMedia@TgBot@@@std@@IEAAX$$QEAV?$shared_ptr@VInputMediaVideo@TgBot@@@1@PEAVInputMedia@TgBot@@@Z
	??$_Alias_move_construct_from@VInputTextMessageContent@TgBot@@@?$_Ptr_base@VInputMessageContent@TgBot@@@std@@IEAAX$$QEAV?$shared_ptr@VInputTextMessageContent@TgBot@@@1@PEAVInputMessageContent@TgBot@@@Z
	??$_Alias_move_construct_from@VInputVenueMessageContent@TgBot@@@?$_Ptr_base@VInputMessageContent@TgBot@@@std@@IEAAX$$QEAV?$shared_ptr@VInputVenueMessageContent@TgBot@@@1@PEAVInputMessageContent@TgBot@@@Z
	??$_Alias_move_construct_from@VMenuButtonCommands@TgBot@@@?$_Ptr_base@VMenuButton@TgBot@@@std@@IEAAX$$QEAV?$shared_ptr@VMenuButtonCommands@TgBot@@@1@PEAVMenuButton@TgBot@@@Z
	??$_Alias_move_construct_from@VMenuButtonDefault@TgBot@@@?$_Ptr_base@VMenuButton@TgBot@@@std@@IEAAX$$QEAV?$shared_ptr@VMenuButtonDefault@TgBot@@@1@PEAVMenuButton@TgBot@@@Z
	??$_Alias_move_construct_from@VMenuButtonWebApp@TgBot@@@?$_Ptr_base@VMenuButton@TgBot@@@std@@IEAAX$$QEAV?$shared_ptr@VMenuButtonWebApp@TgBot@@@1@PEAVMenuButton@TgBot@@@Z
	??$_Alias_move_construct_from@VPassportElementErrorDataField@TgBot@@@?$_Ptr_base@VPassportElementError@TgBot@@@std@@IEAAX$$QEAV?$shared_ptr@VPassportElementErrorDataField@TgBot@@@1@PEAVPassportElementError@TgBot@@@Z
	??$_Alias_move_construct_from@VPassportElementErrorFile@TgBot@@@?$_Ptr_base@VPassportElementError@TgBot@@@std@@IEAAX$$QEAV?$shared_ptr@VPassportElementErrorFile@TgBot@@@1@PEAVPassportElementError@TgBot@@@Z
	??$_Alias_move_construct_from@VPassportElementErrorFiles@TgBot@@@?$_Ptr_base@VPassportElementError@TgBot@@@std@@IEAAX$$QEAV?$shared_ptr@VPassportElementErrorFiles@TgBot@@@1@PEAVPassportElementError@TgBot@@@Z
	??$_Alias_move_construct_from@VPassportElementErrorFrontSide@TgBot@@@?$_Ptr_base@VPassportElementError@TgBot@@@std@@IEAAX$$QEAV?$shared_ptr@VPassportElementErrorFrontSide@TgBot@@@1@PEAVPassportElementError@TgBot@@@Z
	??$_Alias_move_construct_from@VPassportElementErrorReverseSide@TgBot@@@?$_Ptr_base@VPassportElementError@TgBot@@@std@@IEAAX$$QEAV?$shared_ptr@VPassportElementErrorReverseSide@TgBot@@@1@PEAVPassportElementError@TgBot@@@Z
	??$_Alias_move_construct_from@VPassportElementErrorSelfie@TgBot@@@?$_Ptr_base@VPassportElementError@TgBot@@@std@@IEAAX$$QEAV?$shared_ptr@VPassportElementErrorSelfie@TgBot@@@1@PEAVPassportElementError@TgBot@@@Z
	??$_Alias_move_construct_from@VPassportElementErrorTranslationFile@TgBot@@@?$_Ptr_base@VPassportElementError@TgBot@@@std@@IEAAX$$QEAV?$shared_ptr@VPassportElementErrorTranslationFile@TgBot@@@1@PEAVPassportElementError@TgBot@@@Z
	??$_Alias_move_construct_from@VPassportElementErrorTranslationFiles@TgBot@@@?$_Ptr_base@VPassportElementError@TgBot@@@std@@IEAAX$$QEAV?$shared_ptr@VPassportElementErrorTranslationFiles@TgBot@@@1@PEAVPassportElementError@TgBot@@@Z
	??$_Alias_move_construct_from@VPassportElementErrorUnspecified@TgBot@@@?$_Ptr_base@VPassportElementError@TgBot@@@std@@IEAAX$$QEAV?$shared_ptr@VPassportElementErrorUnspecified@TgBot@@@1@PEAVPassportElementError@TgBot@@@Z
	??$_Alias_move_construct_from@VReplyKeyboardMarkup@TgBot@@@?$_Ptr_base@VGenericReply@TgBot@@@std@@IEAAX$$QEAV?$shared_ptr@VReplyKeyboardMarkup@TgBot@@@1@PEAVGenericReply@TgBot@@@Z
	??$_Alias_move_construct_from@VReplyKeyboardRemove@TgBot@@@?$_Ptr_base@VGenericReply@TgBot@@@std@@IEAAX$$QEAV?$shared_ptr@VReplyKeyboardRemove@TgBot@@@1@PEAVGenericReply@TgBot@@@Z
	??$_Alloc_proxy@V?$allocator@U_Container_proxy@std@@@std@@@_Container_base12@std@@QEAAX$$QEAV?$allocator@U_Container_proxy@std@@@1@@Z
	??$_Allocate@$0BA@U_Default_allocate_traits@std@@@std@@YAPEAX_K@Z
	??$_Allocate_at_least_helper@V?$allocator@D@std@@@std@@YAPEADAEAV?$allocator@D@0@AEA_K@Z
	??$_Allocate_at_least_helper@V?$allocator@E@std@@@std@@YAPEAEAEAV?$allocator@E@0@AEA_K@Z
	??$_Allocate_at_least_helper@V?$allocator@H@std@@@std@@YAPEAHAEAV?$allocator@H@0@AEA_K@Z
	??$_Allocate_at_least_helper@V?$allocator@Ulayer@?$standard_callbacks@V?$basic_ptree@V?$basic_string@DU?$char_traits@D@std@@V?$allocator@D@2@@std@@V12@U?$less@V?$basic_string@DU?$char_traits@D@std@@V?$allocator@D@2@@std@@@2@@property_tree@boost@@@detail@json_parser@property_tree@boost@@@std@@@std@@YAPEAUlayer@?$standard_callbacks@V?$basic_ptree@V?$basic_string@DU?$char_traits@D@std@@V?$allocator@D@2@@std@@V12@U?$less@V?$basic_string@DU?$char_traits@D@std@@V?$allocator@D@2@@std@@@2@@property_tree@boost@@@detail@json_parser@property_tree@boost@@AEAV?$allocator@Ulayer@?$standard_callbacks@V?$basic_ptree@V?$basic_string@DU?$char_traits@D@std@@V?$allocator@D@2@@std@@V12@U?$less@V?$basic_string@DU?$char_traits@D@std@@V?$allocator@D@2@@std@@@2@@property_tree@boost@@@detail@json_parser@property_tree@boost@@@0@AEA_K@Z
	??$_Allocate_at_least_helper@V?$allocator@V?$basic_resolver_entry@Vtcp@ip@asio@boost@@@ip@asio@boost@@@std@@@std@@YAPEAV?$basic_resolver_entry@Vtcp@ip@asio@boost@@@ip@asio@boost@@AEAV?$allocator@V?$basic_resolver_entry@Vtcp@ip@asio@boost@@@ip@asio@boost@@@0@AEA_K@Z
	??$_Allocate_at_least_helper@V?$allocator@V?$basic_string@DU?$char_traits@D@std@@V?$allocator@D@2@@std@@@std@@@std@@YAPEAV?$basic_string@DU?$char_traits@D@std@@V?$allocator@D@2@@0@AEAV?$allocator@V?$basic_string@DU?$char_traits@D@std@@V?$allocator@D@2@@std@@@0@AEA_K@Z
	??$_Allocate_at_least_helper@V?$allocator@V?$function@$$A6AXV?$shared_ptr@VCallbackQuery@TgBot@@@std@@@Z@std@@@std@@@std@@YAPEAV?$function@$$A6AXV?$shared_ptr@VCallbackQuery@TgBot@@@std@@@Z@0@AEAV?$allocator@V?$function@$$A6AXV?$shared_ptr@VCallbackQuery@TgBot@@@std@@@Z@std@@@0@AEA_K@Z
	??$_Allocate_at_least_helper@V?$allocator@V?$function@$$A6AXV?$shared_ptr@VChatJoinRequest@TgBot@@@std@@@Z@std@@@std@@@std@@YAPEAV?$function@$$A6AXV?$shared_ptr@VChatJoinRequest@TgBot@@@std@@@Z@0@AEAV?$allocator@V?$function@$$A6AXV?$shared_ptr@VChatJoinRequest@TgBot@@@std@@@Z@std@@@0@AEA_K@Z
	??$_Allocate_at_least_helper@V?$allocator@V?$function@$$A6AXV?$shared_ptr@VChatMemberUpdated@TgBot@@@std@@@Z@std@@@std@@@std@@YAPEAV?$function@$$A6AXV?$shared_ptr@VChatMemberUpdated@TgBot@@@std@@@Z@0@AEAV?$allocator@V?$function@$$A6AXV?$shared_ptr@VChatMemberUpdated@TgBot@@@std@@@Z@std@@@0@AEA_K@Z
	??$_Allocate_at_least_helper@V?$allocator@V?$function@$$A6AXV?$shared_ptr@VChosenInlineResult@TgBot@@@std@@@Z@std@@@std@@@std@@YAPEAV?$function@$$A6AXV?$shared_ptr@VChosenInlineResult@TgBot@@@std@@@Z@0@AEAV?$allocator@V?$function@$$A6AXV?$shared_ptr@VChosenInlineResult@TgBot@@@std@@@Z@std@@@0@AEA_K@Z
	??$_Allocate_at_least_helper@V?$allocator@V?$function@$$A6AXV?$shared_ptr@VInlineQuery@TgBot@@@std@@@Z@std@@@std@@@std@@YAPEAV?$function@$$A6AXV?$shared_ptr@VInlineQuery@TgBot@@@std@@@Z@0@AEAV?$allocator@V?$function@$$A6AXV?$shared_ptr@VInlineQuery@TgBot@@@std@@@Z@std@@@0@AEA_K@Z
	??$_Allocate_at_least_helper@V?$allocator@V?$function@$$A6AXV?$shared_ptr@VMessage@TgBot@@@std@@@Z@std@@@std@@@std@@YAPEAV?$function@$$A6AXV?$shared_ptr@VMessage@TgBot@@@std@@@Z@0@AEAV?$allocator@V?$function@$$A6AXV?$shared_ptr@VMessage@TgBot@@@std@@@Z@std@@@0@AEA_K@Z
	??$_Allocate_at_least_helper@V?$allocator@V?$function@$$A6AXV?$shared_ptr@VPoll@TgBot@@@std@@@Z@std@@@std@@@std@@YAPEAV?$function@$$A6AXV?$shared_ptr@VPoll@TgBot@@@std@@@Z@0@AEAV?$allocator@V?$function@$$A6AXV?$shared_ptr@VPoll@TgBot@@@std@@@Z@std@@@0@AEA_K@Z
	??$_Allocate_at_least_helper@V?$allocator@V?$function@$$A6AXV?$shared_ptr@VPollAnswer@TgBot@@@std@@@Z@std@@@std@@@std@@YAPEAV?$function@$$A6AXV?$shared_ptr@VPollAnswer@TgBot@@@std@@@Z@0@AEAV?$allocator@V?$function@$$A6AXV?$shared_ptr@VPollAnswer@TgBot@@@std@@@Z@std@@@0@AEA_K@Z
	??$_Allocate_at_least_helper@V?$allocator@V?$function@$$A6AXV?$shared_ptr@VPreCheckoutQuery@TgBot@@@std@@@Z@std@@@std@@@std@@YAPEAV?$function@$$A6AXV?$shared_ptr@VPreCheckoutQuery@TgBot@@@std@@@Z@0@AEAV?$allocator@V?$function@$$A6AXV?$shared_ptr@VPreCheckoutQuery@TgBot@@@std@@@Z@std@@@0@AEA_K@Z
	??$_Allocate_at_least_helper@V?$allocator@V?$function@$$A6AXV?$shared_ptr@VShippingQuery@TgBot@@@std@@@Z@std@@@std@@@std@@YAPEAV?$function@$$A6AXV?$shared_ptr@VShippingQuery@TgBot@@@std@@@Z@0@AEAV?$allocator@V?$function@$$A6AXV?$shared_ptr@VShippingQuery@TgBot@@@std@@@Z@std@@@0@AEA_K@Z
	??$_Allocate_at_least_helper@V?$allocator@V?$shared_ptr@VBotCommand@TgBot@@@std@@@std@@@std@@YAPEAV?$shared_ptr@VBotCommand@TgBot@@@0@AEAV?$allocator@V?$shared_ptr@VBotCommand@TgBot@@@std@@@0@AEA_K@Z
	??$_Allocate_at_least_helper@V?$allocator@V?$shared_ptr@VChatMember@TgBot@@@std@@@std@@@std@@YAPEAV?$shared_ptr@VChatMember@TgBot@@@0@AEAV?$allocator@V?$shared_ptr@VChatMember@TgBot@@@std@@@0@AEA_K@Z
	??$_Allocate_at_least_helper@V?$allocator@V?$shared_ptr@VEncryptedPassportElement@TgBot@@@std@@@std@@@std@@YAPEAV?$shared_ptr@VEncryptedPassportElement@TgBot@@@0@AEAV?$allocator@V?$shared_ptr@VEncryptedPassportElement@TgBot@@@std@@@0@AEA_K@Z
	??$_Allocate_at_least_helper@V?$allocator@V?$shared_ptr@VGameHighScore@TgBot@@@std@@@std@@@std@@YAPEAV?$shared_ptr@VGameHighScore@TgBot@@@0@AEAV?$allocator@V?$shared_ptr@VGameHighScore@TgBot@@@std@@@0@AEA_K@Z
	??$_Allocate_at_least_helper@V?$allocator@V?$shared_ptr@VInlineKeyboardButton@TgBot@@@std@@@std@@@std@@YAPEAV?$shared_ptr@VInlineKeyboardButton@TgBot@@@0@AEAV?$allocator@V?$shared_ptr@VInlineKeyboardButton@TgBot@@@std@@@0@AEA_K@Z
	??$_Allocate_at_least_helper@V?$allocator@V?$shared_ptr@VKeyboardButton@TgBot@@@std@@@std@@@std@@YAPEAV?$shared_ptr@VKeyboardButton@TgBot@@@0@AEAV?$allocator@V?$shared_ptr@VKeyboardButton@TgBot@@@std@@@0@AEA_K@Z
	??$_Allocate_at_least_helper@V?$allocator@V?$shared_ptr@VLabeledPrice@TgBot@@@std@@@std@@@std@@YAPEAV?$shared_ptr@VLabeledPrice@TgBot@@@0@AEAV?$allocator@V?$shared_ptr@VLabeledPrice@TgBot@@@std@@@0@AEA_K@Z
	??$_Allocate_at_least_helper@V?$allocator@V?$shared_ptr@VMessage@TgBot@@@std@@@std@@@std@@YAPEAV?$shared_ptr@VMessage@TgBot@@@0@AEAV?$allocator@V?$shared_ptr@VMessage@TgBot@@@std@@@0@AEA_K@Z
	??$_Allocate_at_least_helper@V?$allocator@V?$shared_ptr@VMessageEntity@TgBot@@@std@@@std@@@std@@YAPEAV?$shared_ptr@VMessageEntity@TgBot@@@0@AEAV?$allocator@V?$shared_ptr@VMessageEntity@TgBot@@@std@@@0@AEA_K@Z
	??$_Allocate_at_least_helper@V?$allocator@V?$shared_ptr@VPassportFile@TgBot@@@std@@@std@@@std@@YAPEAV?$shared_ptr@VPassportFile@TgBot@@@0@AEAV?$allocator@V?$shared_ptr@VPassportFile@TgBot@@@std@@@0@AEA_K@Z
	??$_Allocate_at_least_helper@V?$allocator@V?$shared_ptr@VPhotoSize@TgBot@@@std@@@std@@@std@@YAPEAV?$shared_ptr@VPhotoSize@TgBot@@@0@AEAV?$allocator@V?$shared_ptr@VPhotoSize@TgBot@@@std@@@0@AEA_K@Z
	??$_Allocate_at_least_helper@V?$allocator@V?$shared_ptr@VPollOption@TgBot@@@std@@@std@@@std@@YAPEAV?$shared_ptr@VPollOption@TgBot@@@0@AEAV?$allocator@V?$shared_ptr@VPollOption@TgBot@@@std@@@0@AEA_K@Z
	??$_Allocate_at_least_helper@V?$allocator@V?$shared_ptr@VSticker@TgBot@@@std@@@std@@@std@@YAPEAV?$shared_ptr@VSticker@TgBot@@@0@AEAV?$allocator@V?$shared_ptr@VSticker@TgBot@@@std@@@0@AEA_K@Z
	??$_Allocate_at_least_helper@V?$allocator@V?$shared_ptr@VUpdate@TgBot@@@std@@@std@@@std@@YAPEAV?$shared_ptr@VUpdate@TgBot@@@0@AEAV?$allocator@V?$shared_ptr@VUpdate@TgBot@@@std@@@0@AEA_K@Z
	??$_Allocate_at_least_helper@V?$allocator@V?$shared_ptr@VUser@TgBot@@@std@@@std@@@std@@YAPEAV?$shared_ptr@VUser@TgBot@@@0@AEAV?$allocator@V?$shared_ptr@VUser@TgBot@@@std@@@0@AEA_K@Z
	??$_Allocate_at_least_helper@V?$allocator@V?$vector@V?$shared_ptr@VInlineKeyboardButton@TgBot@@@std@@V?$allocator@V?$shared_ptr@VInlineKeyboardButton@TgBot@@@std@@@2@@std@@@std@@@std@@YAPEAV?$vector@V?$shared_ptr@VInlineKeyboardButton@TgBot@@@std@@V?$allocator@V?$shared_ptr@VInlineKeyboardButton@TgBot@@@std@@@2@@0@AEAV?$allocator@V?$vector@V?$shared_ptr@VInlineKeyboardButton@TgBot@@@std@@V?$allocator@V?$shared_ptr@VInlineKeyboardButton@TgBot@@@std@@@2@@std@@@0@AEA_K@Z
	??$_Allocate_at_least_helper@V?$allocator@V?$vector@V?$shared_ptr@VKeyboardButton@TgBot@@@std@@V?$allocator@V?$shared_ptr@VKeyboardButton@TgBot@@@std@@@2@@std@@@std@@@std@@YAPEAV?$vector@V?$shared_ptr@VKeyboardButton@TgBot@@@std@@V?$allocator@V?$shared_ptr@VKeyboardButton@TgBot@@@std@@@2@@0@AEAV?$allocator@V?$vector@V?$shared_ptr@VKeyboardButton@TgBot@@@std@@V?$allocator@V?$shared_ptr@VKeyboardButton@TgBot@@@std@@@2@@std@@@0@AEA_K@Z
	??$_Allocate_at_least_helper@V?$allocator@V?$vector@V?$shared_ptr@VPhotoSize@TgBot@@@std@@V?$allocator@V?$shared_ptr@VPhotoSize@TgBot@@@std@@@2@@std@@@std@@@std@@YAPEAV?$vector@V?$shared_ptr@VPhotoSize@TgBot@@@std@@V?$allocator@V?$shared_ptr@VPhotoSize@TgBot@@@std@@@2@@0@AEAV?$allocator@V?$vector@V?$shared_ptr@VPhotoSize@TgBot@@@std@@V?$allocator@V?$shared_ptr@VPhotoSize@TgBot@@@std@@@2@@std@@@0@AEA_K@Z
	??$_Allocate_at_least_helper@V?$allocator@VHttpReqArg@TgBot@@@std@@@std@@YAPEAVHttpReqArg@TgBot@@AEAV?$allocator@VHttpReqArg@TgBot@@@0@AEA_K@Z
	??$_Allocate_at_least_helper@V?$allocator@_W@std@@@std@@YAPEA_WAEAV?$allocator@_W@0@AEA_K@Z
	??$_Allocate_for_capacity@$0A@@?$basic_string@DU?$char_traits@D@std@@V?$allocator@D@2@@std@@CAPEADAEAV?$allocator@D@1@AEA_K@Z
	??$_Allocate_for_capacity@$0A@@?$basic_string@_WU?$char_traits@_W@std@@V?$allocator@_W@2@@std@@CAPEA_WAEAV?$allocator@_W@1@AEA_K@Z
	??$_Allocate_manually_vector_aligned@U_Default_allocate_traits@std@@@std@@YAPEAX_K@Z
	??$_Allocators_equal@V?$allocator@D@std@@@std@@YA_NAEBV?$allocator@D@0@0@Z
	??$_Append_range_unchecked@V?$_List_unchecked_const_iterator@V?$_List_val@U?$_List_simple_types@U?$pair@$$CBV?$basic_string@DU?$char_traits@D@std@@V?$allocator@D@2@@std@@V?$function@$$A6AXV?$shared_ptr@VMessage@TgBot@@@std@@@Z@2@@std@@@std@@@std@@U_Iterator_base0@2@@std@@V12@@?$_List_node_insert_op2@V?$allocator@U?$_List_node@U?$pair@$$CBV?$basic_string@DU?$char_traits@D@std@@V?$allocator@D@2@@std@@V?$function@$$A6AXV?$shared_ptr@VMessage@TgBot@@@std@@@Z@2@@std@@PEAX@std@@@std@@@std@@QEAAXV?$_List_unchecked_const_iterator@V?$_List_val@U?$_List_simple_types@U?$pair@$$CBV?$basic_string@DU?$char_traits@D@std@@V?$allocator@D@2@@std@@V?$function@$$A6AXV?$shared_ptr@VMessage@TgBot@@@std@@@Z@2@@std@@@std@@@std@@U_Iterator_base0@2@@1@V21@@Z
	??$_Assign_cast@AEAU?$pair@V?$basic_string@DU?$char_traits@D@std@@V?$allocator@D@2@@std@@V?$function@$$A6AXV?$shared_ptr@VMessage@TgBot@@@std@@@Z@2@@std@@V?$_List_unchecked_const_iterator@V?$_List_val@U?$_List_simple_types@U?$pair@$$CBV?$basic_string@DU?$char_traits@D@std@@V?$allocator@D@2@@std@@V?$function@$$A6AXV?$shared_ptr@VMessage@TgBot@@@std@@@Z@2@@std@@@std@@@std@@U_Iterator_base0@2@@2@@?$list@U?$pair@$$CBV?$basic_string@DU?$char_traits@D@std@@V?$allocator@D@2@@std@@V?$function@$$A6AXV?$shared_ptr@VMessage@TgBot@@@std@@@Z@2@@std@@V?$allocator@U?$pair@$$CBV?$basic_string@DU?$char_traits@D@std@@V?$allocator@D@2@@std@@V?$function@$$A6AXV?$shared_ptr@VMessage@TgBot@@@std@@@Z@2@@std@@@2@@std@@AEAAXV?$_List_unchecked_const_iterator@V?$_List_val@U?$_List_simple_types@U?$pair@$$CBV?$basic_string@DU?$char_traits@D@std@@V?$allocator@D@2@@std@@V?$function@$$A6AXV?$shared_ptr@VMessage@TgBot@@@std@@@Z@2@@std@@@std@@@std@@U_Iterator_base0@2@@1@V21@@Z
	??$_Assign_counted_range@PEAV?$function@$$A6AXV?$shared_ptr@VCallbackQuery@TgBot@@@std@@@Z@std@@@?$vector@V?$function@$$A6AXV?$shared_ptr@VCallbackQuery@TgBot@@@std@@@Z@std@@V?$allocator@V?$function@$$A6AXV?$shared_ptr@VCallbackQuery@TgBot@@@std@@@Z@std@@@2@@std@@AEAAXPEAV?$function@$$A6AXV?$shared_ptr@VCallbackQuery@TgBot@@@std@@@Z@1@_K@Z
	??$_Assign_counted_range@PEAV?$function@$$A6AXV?$shared_ptr@VChatJoinRequest@TgBot@@@std@@@Z@std@@@?$vector@V?$function@$$A6AXV?$shared_ptr@VChatJoinRequest@TgBot@@@std@@@Z@std@@V?$allocator@V?$function@$$A6AXV?$shared_ptr@VChatJoinRequest@TgBot@@@std@@@Z@std@@@2@@std@@AEAAXPEAV?$function@$$A6AXV?$shared_ptr@VChatJoinRequest@TgBot@@@std@@@Z@1@_K@Z
	??$_Assign_counted_range@PEAV?$function@$$A6AXV?$shared_ptr@VChatMemberUpdated@TgBot@@@std@@@Z@std@@@?$vector@V?$function@$$A6AXV?$shared_ptr@VChatMemberUpdated@TgBot@@@std@@@Z@std@@V?$allocator@V?$function@$$A6AXV?$shared_ptr@VChatMemberUpdated@TgBot@@@std@@@Z@std@@@2@@std@@AEAAXPEAV?$function@$$A6AXV?$shared_ptr@VChatMemberUpdated@TgBot@@@std@@@Z@1@_K@Z
	??$_Assign_counted_range@PEAV?$function@$$A6AXV?$shared_ptr@VChosenInlineResult@TgBot@@@std@@@Z@std@@@?$vector@V?$function@$$A6AXV?$shared_ptr@VChosenInlineResult@TgBot@@@std@@@Z@std@@V?$allocator@V?$function@$$A6AXV?$shared_ptr@VChosenInlineResult@TgBot@@@std@@@Z@std@@@2@@std@@AEAAXPEAV?$function@$$A6AXV?$shared_ptr@VChosenInlineResult@TgBot@@@std@@@Z@1@_K@Z
	??$_Assign_counted_range@PEAV?$function@$$A6AXV?$shared_ptr@VInlineQuery@TgBot@@@std@@@Z@std@@@?$vector@V?$function@$$A6AXV?$shared_ptr@VInlineQuery@TgBot@@@std@@@Z@std@@V?$allocator@V?$function@$$A6AXV?$shared_ptr@VInlineQuery@TgBot@@@std@@@Z@std@@@2@@std@@AEAAXPEAV?$function@$$A6AXV?$shared_ptr@VInlineQuery@TgBot@@@std@@@Z@1@_K@Z
	??$_Assign_counted_range@PEAV?$function@$$A6AXV?$shared_ptr@VMessage@TgBot@@@std@@@Z@std@@@?$vector@V?$function@$$A6AXV?$shared_ptr@VMessage@TgBot@@@std@@@Z@std@@V?$allocator@V?$function@$$A6AXV?$shared_ptr@VMessage@TgBot@@@std@@@Z@std@@@2@@std@@AEAAXPEAV?$function@$$A6AXV?$shared_ptr@VMessage@TgBot@@@std@@@Z@1@_K@Z
	??$_Assign_counted_range@PEAV?$function@$$A6AXV?$shared_ptr@VPoll@TgBot@@@std@@@Z@std@@@?$vector@V?$function@$$A6AXV?$shared_ptr@VPoll@TgBot@@@std@@@Z@std@@V?$allocator@V?$function@$$A6AXV?$shared_ptr@VPoll@TgBot@@@std@@@Z@std@@@2@@std@@AEAAXPEAV?$function@$$A6AXV?$shared_ptr@VPoll@TgBot@@@std@@@Z@1@_K@Z
	??$_Assign_counted_range@PEAV?$function@$$A6AXV?$shared_ptr@VPollAnswer@TgBot@@@std@@@Z@std@@@?$vector@V?$function@$$A6AXV?$shared_ptr@VPollAnswer@TgBot@@@std@@@Z@std@@V?$allocator@V?$function@$$A6AXV?$shared_ptr@VPollAnswer@TgBot@@@std@@@Z@std@@@2@@std@@AEAAXPEAV?$function@$$A6AXV?$shared_ptr@VPollAnswer@TgBot@@@std@@@Z@1@_K@Z
	??$_Assign_counted_range@PEAV?$function@$$A6AXV?$shared_ptr@VPreCheckoutQuery@TgBot@@@std@@@Z@std@@@?$vector@V?$function@$$A6AXV?$shared_ptr@VPreCheckoutQuery@TgBot@@@std@@@Z@std@@V?$allocator@V?$function@$$A6AXV?$shared_ptr@VPreCheckoutQuery@TgBot@@@std@@@Z@std@@@2@@std@@AEAAXPEAV?$function@$$A6AXV?$shared_ptr@VPreCheckoutQuery@TgBot@@@std@@@Z@1@_K@Z
	??$_Assign_counted_range@PEAV?$function@$$A6AXV?$shared_ptr@VShippingQuery@TgBot@@@std@@@Z@std@@@?$vector@V?$function@$$A6AXV?$shared_ptr@VShippingQuery@TgBot@@@std@@@Z@std@@V?$allocator@V?$function@$$A6AXV?$shared_ptr@VShippingQuery@TgBot@@@std@@@Z@std@@@2@@std@@AEAAXPEAV?$function@$$A6AXV?$shared_ptr@VShippingQuery@TgBot@@@std@@@Z@1@_K@Z
	??$_Assign_counted_range@PEAV?$shared_ptr@VUpdate@TgBot@@@std@@@?$vector@V?$shared_ptr@VUpdate@TgBot@@@std@@V?$allocator@V?$shared_ptr@VUpdate@TgBot@@@std@@@2@@std@@AEAAXPEAV?$shared_ptr@VUpdate@TgBot@@@1@_K@Z
	??$_Attach_at_end@U?$_List_simple_types@U?$pair@$$CBV?$basic_string@DU?$char_traits@D@std@@V?$allocator@D@2@@std@@V?$function@$$A6AXV?$shared_ptr@VMessage@TgBot@@@std@@@Z@2@@std@@@std@@@?$_List_node_insert_op2@V?$allocator@U?$_List_node@U?$pair@$$CBV?$basic_string@DU?$char_traits@D@std@@V?$allocator@D@2@@std@@V?$function@$$A6AXV?$shared_ptr@VMessage@TgBot@@@std@@@Z@2@@std@@PEAX@std@@@std@@@std@@QEAAXAEAV?$_List_val@U?$_List_simple_types@U?$pair@$$CBV?$basic_string@DU?$char_traits@D@std@@V?$allocator@D@2@@std@@V?$function@$$A6AXV?$shared_ptr@VMessage@TgBot@@@std@@@Z@2@@std@@@std@@@1@@Z
	??$_Attach_before@U?$_List_simple_types@U?$pair@$$CBV?$basic_string@DU?$char_traits@D@std@@V?$allocator@D@2@@std@@V?$function@$$A6AXV?$shared_ptr@VMessage@TgBot@@@std@@@Z@2@@std@@@std@@@?$_List_node_insert_op2@V?$allocator@U?$_List_node@U?$pair@$$CBV?$basic_string@DU?$char_traits@D@std@@V?$allocator@D@2@@std@@V?$function@$$A6AXV?$shared_ptr@VMessage@TgBot@@@std@@@Z@2@@std@@PEAX@std@@@std@@@std@@QEAAPEAU?$_List_node@U?$pair@$$CBV?$basic_string@DU?$char_traits@D@std@@V?$allocator@D@2@@std@@V?$function@$$A6AXV?$shared_ptr@VMessage@TgBot@@@std@@@Z@2@@std@@PEAX@1@AEAV?$_List_val@U?$_List_simple_types@U?$pair@$$CBV?$basic_string@DU?$char_traits@D@std@@V?$allocator@D@2@@std@@V?$function@$$A6AXV?$shared_ptr@VMessage@TgBot@@@std@@@Z@2@@std@@@std@@@1@QEAU21@@Z
	??$_Bit_cast@_KT_Addr_storage@error_category@std@@$0A@@std@@YA_KAEBT_Addr_storage@error_category@0@@Z
	??$_Checked_popcount@_K@std@@YAH_K@Z
	??$_Clamped_rel_time_ms_count@V?$duration@_JU?$ratio@$00$0DLJKMKAA@@std@@@chrono@std@@@std@@YA?AU_Clamped_rel_time_ms_count_result@0@AEBV?$duration@_JU?$ratio@$00$0DLJKMKAA@@std@@@chrono@0@@Z
	??$_Construct@$00PEAD@?$basic_string@DU?$char_traits@D@std@@V?$allocator@D@2@@std@@AEAAXQEAD_K@Z
	??$_Construct@$00PEBD@?$basic_string@DU?$char_traits@D@std@@V?$allocator@D@2@@std@@AEAAXQEBD_K@Z
	??$_Construct@$00PEB_W@?$basic_string@_WU?$char_traits@_W@std@@V?$allocator@_W@2@@std@@AEAAXQEB_W_K@Z
	??$_Construct@$01PEBD@?$basic_string@DU?$char_traits@D@std@@V?$allocator@D@2@@std@@AEAAXQEBD_K@Z
	??$_Construct@$0A@D@?$basic_string@DU?$char_traits@D@std@@V?$allocator@D@2@@std@@AEAAXD_K@Z
	??$_Construct_in_place@HH@std@@YAXAEAH$$QEAH@Z
	??$_Construct_in_place@PEADAEAPEAD@std@@YAXAEAPEAD0@Z
	??$_Construct_in_place@PEADAEBQEAD@std@@YAXAEAPEADAEBQEAD@Z
	??$_Construct_in_place@PEAU?$_List_node@U?$pair@$$CBV?$basic_string@DU?$char_traits@D@std@@V?$allocator@D@2@@std@@V12@@std@@PEAX@std@@AEAPEAU12@@std@@YAXAEAPEAU?$_List_node@U?$pair@$$CBV?$basic_string@DU?$char_traits@D@std@@V?$allocator@D@2@@std@@V12@@std@@PEAX@0@0@Z
	??$_Construct_in_place@PEAU?$_List_node@U?$pair@$$CBV?$basic_string@DU?$char_traits@D@std@@V?$allocator@D@2@@std@@V12@@std@@PEAX@std@@AEBQEAU12@@std@@YAXAEAPEAU?$_List_node@U?$pair@$$CBV?$basic_string@DU?$char_traits@D@std@@V?$allocator@D@2@@std@@V12@@std@@PEAX@0@AEBQEAU10@@Z
	??$_Construct_in_place@PEAU?$_List_node@U?$pair@$$CBV?$basic_string@DU?$char_traits@D@std@@V?$allocator@D@2@@std@@V?$function@$$A6AXV?$shared_ptr@VMessage@TgBot@@@std@@@Z@2@@std@@PEAX@std@@AEAPEAU12@@std@@YAXAEAPEAU?$_List_node@U?$pair@$$CBV?$basic_string@DU?$char_traits@D@std@@V?$allocator@D@2@@std@@V?$function@$$A6AXV?$shared_ptr@VMessage@TgBot@@@std@@@Z@2@@std@@PEAX@0@0@Z
	??$_Construct_in_place@PEAU?$_List_node@U?$pair@$$CBV?$basic_string@DU?$char_traits@D@std@@V?$allocator@D@2@@std@@V?$function@$$A6AXV?$shared_ptr@VMessage@TgBot@@@std@@@Z@2@@std@@PEAX@std@@AEBQEAU12@@std@@YAXAEAPEAU?$_List_node@U?$pair@$$CBV?$basic_string@DU?$char_traits@D@std@@V?$allocator@D@2@@std@@V?$function@$$A6AXV?$shared_ptr@VMessage@TgBot@@@std@@@Z@2@@std@@PEAX@0@AEBQEAU10@@Z
	??$_Construct_in_place@PEAU?$_List_node@U?$pair@$$CBV?$basic_string@DU?$char_traits@D@std@@V?$allocator@D@2@@std@@V?$function@$$A6AXV?$shared_ptr@VMessage@TgBot@@@std@@@Z@2@@std@@PEAX@std@@PEAU12@@std@@YAXAEAPEAU?$_List_node@U?$pair@$$CBV?$basic_string@DU?$char_traits@D@std@@V?$allocator@D@2@@std@@V?$function@$$A6AXV?$shared_ptr@VMessage@TgBot@@@std@@@Z@2@@std@@PEAX@0@$$QEAPEAU10@@Z
	??$_Construct_in_place@PEA_WAEAPEA_W@std@@YAXAEAPEA_W0@Z
	??$_Construct_in_place@PEA_WAEBQEA_W@std@@YAXAEAPEA_WAEBQEA_W@Z
	??$_Construct_in_place@U_Container_proxy@std@@PEAU_Container_base12@2@@std@@YAXAEAU_Container_proxy@0@$$QEAPEAU_Container_base12@0@@Z
	??$_Construct_in_place@Ulayer@?$standard_callbacks@V?$basic_ptree@V?$basic_string@DU?$char_traits@D@std@@V?$allocator@D@2@@std@@V12@U?$less@V?$basic_string@DU?$char_traits@D@std@@V?$allocator@D@2@@std@@@2@@property_tree@boost@@@detail@json_parser@property_tree@boost@@AEBU123456@@std@@YAXAEAUlayer@?$standard_callbacks@V?$basic_ptree@V?$basic_string@DU?$char_traits@D@std@@V?$allocator@D@2@@std@@V12@U?$less@V?$basic_string@DU?$char_traits@D@std@@V?$allocator@D@2@@std@@@2@@property_tree@boost@@@detail@json_parser@property_tree@boost@@AEBU123456@@Z
	??$_Construct_in_place@V?$_List_unchecked_iterator@V?$_List_val@U?$_List_simple_types@U?$pair@$$CBV?$basic_string@DU?$char_traits@D@std@@V?$allocator@D@2@@std@@V12@@std@@@std@@@std@@@std@@AEBV12@@std@@YAXAEAV?$_List_unchecked_iterator@V?$_List_val@U?$_List_simple_types@U?$pair@$$CBV?$basic_string@DU?$char_traits@D@std@@V?$allocator@D@2@@std@@V12@@std@@@std@@@std@@@0@AEBV10@@Z
	??$_Construct_in_place@V?$_List_unchecked_iterator@V?$_List_val@U?$_List_simple_types@U?$pair@$$CBV?$basic_string@DU?$char_traits@D@std@@V?$allocator@D@2@@std@@V?$function@$$A6AXV?$shared_ptr@VMessage@TgBot@@@std@@@Z@2@@std@@@std@@@std@@@std@@AEBV12@@std@@YAXAEAV?$_List_unchecked_iterator@V?$_List_val@U?$_List_simple_types@U?$pair@$$CBV?$basic_string@DU?$char_traits@D@std@@V?$allocator@D@2@@std@@V?$function@$$A6AXV?$shared_ptr@VMessage@TgBot@@@std@@@Z@2@@std@@@std@@@std@@@0@AEBV10@@Z
	??$_Construct_in_place@V?$basic_resolver_entry@Vtcp@ip@asio@boost@@@ip@asio@boost@@V1234@@std@@YAXAEAV?$basic_resolver_entry@Vtcp@ip@asio@boost@@@ip@asio@boost@@$$QEAV1234@@Z
	??$_Construct_in_place@V?$basic_string@DU?$char_traits@D@std@@V?$allocator@D@2@@std@@V12@@std@@YAXAEAV?$basic_string@DU?$char_traits@D@std@@V?$allocator@D@2@@0@$$QEAV10@@Z
	??$_Construct_in_place@V?$shared_ptr@VBotCommand@TgBot@@@std@@V12@@std@@YAXAEAV?$shared_ptr@VBotCommand@TgBot@@@0@$$QEAV10@@Z
	??$_Construct_in_place@V?$shared_ptr@VChatMember@TgBot@@@std@@V12@@std@@YAXAEAV?$shared_ptr@VChatMember@TgBot@@@0@$$QEAV10@@Z
	??$_Construct_in_place@V?$shared_ptr@VEncryptedPassportElement@TgBot@@@std@@V12@@std@@YAXAEAV?$shared_ptr@VEncryptedPassportElement@TgBot@@@0@$$QEAV10@@Z
	??$_Construct_in_place@V?$shared_ptr@VGameHighScore@TgBot@@@std@@V12@@std@@YAXAEAV?$shared_ptr@VGameHighScore@TgBot@@@0@$$QEAV10@@Z
	??$_Construct_in_place@V?$shared_ptr@VInlineKeyboardButton@TgBot@@@std@@V12@@std@@YAXAEAV?$shared_ptr@VInlineKeyboardButton@TgBot@@@0@$$QEAV10@@Z
	??$_Construct_in_place@V?$shared_ptr@VKeyboardButton@TgBot@@@std@@V12@@std@@YAXAEAV?$shared_ptr@VKeyboardButton@TgBot@@@0@$$QEAV10@@Z
	??$_Construct_in_place@V?$shared_ptr@VLabeledPrice@TgBot@@@std@@V12@@std@@YAXAEAV?$shared_ptr@VLabeledPrice@TgBot@@@0@$$QEAV10@@Z
	??$_Construct_in_place@V?$shared_ptr@VMessage@TgBot@@@std@@V12@@std@@YAXAEAV?$shared_ptr@VMessage@TgBot@@@0@$$QEAV10@@Z
	??$_Construct_in_place@V?$shared_ptr@VMessageEntity@TgBot@@@std@@V12@@std@@YAXAEAV?$shared_ptr@VMessageEntity@TgBot@@@0@$$QEAV10@@Z
	??$_Construct_in_place@V?$shared_ptr@VPassportFile@TgBot@@@std@@V12@@std@@YAXAEAV?$shared_ptr@VPassportFile@TgBot@@@0@$$QEAV10@@Z
	??$_Construct_in_place@V?$shared_ptr@VPhotoSize@TgBot@@@std@@V12@@std@@YAXAEAV?$shared_ptr@VPhotoSize@TgBot@@@0@$$QEAV10@@Z
	??$_Construct_in_place@V?$shared_ptr@VPollOption@TgBot@@@std@@V12@@std@@YAXAEAV?$shared_ptr@VPollOption@TgBot@@@0@$$QEAV10@@Z
	??$_Construct_in_place@V?$shared_ptr@VSticker@TgBot@@@std@@V12@@std@@YAXAEAV?$shared_ptr@VSticker@TgBot@@@0@$$QEAV10@@Z
	??$_Construct_in_place@V?$shared_ptr@VUpdate@TgBot@@@std@@V12@@std@@YAXAEAV?$shared_ptr@VUpdate@TgBot@@@0@$$QEAV10@@Z
	??$_Construct_in_place@V?$shared_ptr@VUser@TgBot@@@std@@V12@@std@@YAXAEAV?$shared_ptr@VUser@TgBot@@@0@$$QEAV10@@Z
	??$_Construct_in_place@V?$vector@V?$shared_ptr@VInlineKeyboardButton@TgBot@@@std@@V?$allocator@V?$shared_ptr@VInlineKeyboardButton@TgBot@@@std@@@2@@std@@V12@@std@@YAXAEAV?$vector@V?$shared_ptr@VInlineKeyboardButton@TgBot@@@std@@V?$allocator@V?$shared_ptr@VInlineKeyboardButton@TgBot@@@std@@@2@@0@$$QEAV10@@Z
	??$_Construct_in_place@V?$vector@V?$shared_ptr@VKeyboardButton@TgBot@@@std@@V?$allocator@V?$shared_ptr@VKeyboardButton@TgBot@@@std@@@2@@std@@V12@@std@@YAXAEAV?$vector@V?$shared_ptr@VKeyboardButton@TgBot@@@std@@V?$allocator@V?$shared_ptr@VKeyboardButton@TgBot@@@std@@@2@@0@$$QEAV10@@Z
	??$_Construct_in_place@VAnimation@TgBot@@$$V@std@@YAXAEAVAnimation@TgBot@@@Z
	??$_Construct_in_place@VAudio@TgBot@@$$V@std@@YAXAEAVAudio@TgBot@@@Z
	??$_Construct_in_place@VBotCommand@TgBot@@$$V@std@@YAXAEAVBotCommand@TgBot@@@Z
	??$_Construct_in_place@VBotCommandScope@TgBot@@$$V@std@@YAXAEAVBotCommandScope@TgBot@@@Z
	??$_Construct_in_place@VBotCommandScopeAllChatAdministrators@TgBot@@$$V@std@@YAXAEAVBotCommandScopeAllChatAdministrators@TgBot@@@Z
	??$_Construct_in_place@VBotCommandScopeAllGroupChats@TgBot@@$$V@std@@YAXAEAVBotCommandScopeAllGroupChats@TgBot@@@Z
	??$_Construct_in_place@VBotCommandScopeAllPrivateChats@TgBot@@$$V@std@@YAXAEAVBotCommandScopeAllPrivateChats@TgBot@@@Z
	??$_Construct_in_place@VBotCommandScopeChat@TgBot@@$$V@std@@YAXAEAVBotCommandScopeChat@TgBot@@@Z
	??$_Construct_in_place@VBotCommandScopeChatAdministrators@TgBot@@$$V@std@@YAXAEAVBotCommandScopeChatAdministrators@TgBot@@@Z
	??$_Construct_in_place@VBotCommandScopeChatMember@TgBot@@$$V@std@@YAXAEAVBotCommandScopeChatMember@TgBot@@@Z
	??$_Construct_in_place@VBotCommandScopeDefault@TgBot@@$$V@std@@YAXAEAVBotCommandScopeDefault@TgBot@@@Z
	??$_Construct_in_place@VCallbackGame@TgBot@@$$V@std@@YAXAEAVCallbackGame@TgBot@@@Z
	??$_Construct_in_place@VCallbackQuery@TgBot@@$$V@std@@YAXAEAVCallbackQuery@TgBot@@@Z
	??$_Construct_in_place@VChat@TgBot@@$$V@std@@YAXAEAVChat@TgBot@@@Z
	??$_Construct_in_place@VChatAdministratorRights@TgBot@@$$V@std@@YAXAEAVChatAdministratorRights@TgBot@@@Z
	??$_Construct_in_place@VChatInviteLink@TgBot@@$$V@std@@YAXAEAVChatInviteLink@TgBot@@@Z
	??$_Construct_in_place@VChatJoinRequest@TgBot@@$$V@std@@YAXAEAVChatJoinRequest@TgBot@@@Z
	??$_Construct_in_place@VChatLocation@TgBot@@$$V@std@@YAXAEAVChatLocation@TgBot@@@Z
	??$_Construct_in_place@VChatMember@TgBot@@$$V@std@@YAXAEAVChatMember@TgBot@@@Z
	??$_Construct_in_place@VChatMemberAdministrator@TgBot@@$$V@std@@YAXAEAVChatMemberAdministrator@TgBot@@@Z
	??$_Construct_in_place@VChatMemberBanned@TgBot@@$$V@std@@YAXAEAVChatMemberBanned@TgBot@@@Z
	??$_Construct_in_place@VChatMemberLeft@TgBot@@$$V@std@@YAXAEAVChatMemberLeft@TgBot@@@Z
	??$_Construct_in_place@VChatMemberMember@TgBot@@$$V@std@@YAXAEAVChatMemberMember@TgBot@@@Z
	??$_Construct_in_place@VChatMemberOwner@TgBot@@$$V@std@@YAXAEAVChatMemberOwner@TgBot@@@Z
	??$_Construct_in_place@VChatMemberRestricted@TgBot@@$$V@std@@YAXAEAVChatMemberRestricted@TgBot@@@Z
	??$_Construct_in_place@VChatMemberUpdated@TgBot@@$$V@std@@YAXAEAVChatMemberUpdated@TgBot@@@Z
	??$_Construct_in_place@VChatPermissions@TgBot@@$$V@std@@YAXAEAVChatPermissions@TgBot@@@Z
	??$_Construct_in_place@VChatPhoto@TgBot@@$$V@std@@YAXAEAVChatPhoto@TgBot@@@Z
	??$_Construct_in_place@VChatShared@TgBot@@$$V@std@@YAXAEAVChatShared@TgBot@@@Z
	??$_Construct_in_place@VChosenInlineResult@TgBot@@$$V@std@@YAXAEAVChosenInlineResult@TgBot@@@Z
	??$_Construct_in_place@VContact@TgBot@@$$V@std@@YAXAEAVContact@TgBot@@@Z
	??$_Construct_in_place@VDice@TgBot@@$$V@std@@YAXAEAVDice@TgBot@@@Z
	??$_Construct_in_place@VDocument@TgBot@@$$V@std@@YAXAEAVDocument@TgBot@@@Z
	??$_Construct_in_place@VEncryptedCredentials@TgBot@@$$V@std@@YAXAEAVEncryptedCredentials@TgBot@@@Z
	??$_Construct_in_place@VEncryptedPassportElement@TgBot@@$$V@std@@YAXAEAVEncryptedPassportElement@TgBot@@@Z
	??$_Construct_in_place@VFile@TgBot@@$$V@std@@YAXAEAVFile@TgBot@@@Z
	??$_Construct_in_place@VForceReply@TgBot@@$$V@std@@YAXAEAVForceReply@TgBot@@@Z
	??$_Construct_in_place@VForumTopic@TgBot@@$$V@std@@YAXAEAVForumTopic@TgBot@@@Z
	??$_Construct_in_place@VForumTopicClosed@TgBot@@$$V@std@@YAXAEAVForumTopicClosed@TgBot@@@Z
	??$_Construct_in_place@VForumTopicCreated@TgBot@@$$V@std@@YAXAEAVForumTopicCreated@TgBot@@@Z
	??$_Construct_in_place@VForumTopicEdited@TgBot@@$$V@std@@YAXAEAVForumTopicEdited@TgBot@@@Z
	??$_Construct_in_place@VForumTopicReopened@TgBot@@$$V@std@@YAXAEAVForumTopicReopened@TgBot@@@Z
	??$_Construct_in_place@VGame@TgBot@@$$V@std@@YAXAEAVGame@TgBot@@@Z
	??$_Construct_in_place@VGameHighScore@TgBot@@$$V@std@@YAXAEAVGameHighScore@TgBot@@@Z
	??$_Construct_in_place@VGeneralForumTopicHidden@TgBot@@$$V@std@@YAXAEAVGeneralForumTopicHidden@TgBot@@@Z
	??$_Construct_in_place@VGeneralForumTopicUnhidden@TgBot@@$$V@std@@YAXAEAVGeneralForumTopicUnhidden@TgBot@@@Z
	??$_Construct_in_place@VGenericReply@TgBot@@$$V@std@@YAXAEAVGenericReply@TgBot@@@Z
	??$_Construct_in_place@VInlineKeyboardButton@TgBot@@$$V@std@@YAXAEAVInlineKeyboardButton@TgBot@@@Z
	??$_Construct_in_place@VInlineKeyboardMarkup@TgBot@@$$V@std@@YAXAEAVInlineKeyboardMarkup@TgBot@@@Z
	??$_Construct_in_place@VInlineQuery@TgBot@@$$V@std@@YAXAEAVInlineQuery@TgBot@@@Z
	??$_Construct_in_place@VInlineQueryResult@TgBot@@$$V@std@@YAXAEAVInlineQueryResult@TgBot@@@Z
	??$_Construct_in_place@VInlineQueryResultArticle@TgBot@@$$V@std@@YAXAEAVInlineQueryResultArticle@TgBot@@@Z
	??$_Construct_in_place@VInlineQueryResultAudio@TgBot@@$$V@std@@YAXAEAVInlineQueryResultAudio@TgBot@@@Z
	??$_Construct_in_place@VInlineQueryResultCachedAudio@TgBot@@$$V@std@@YAXAEAVInlineQueryResultCachedAudio@TgBot@@@Z
	??$_Construct_in_place@VInlineQueryResultCachedDocument@TgBot@@$$V@std@@YAXAEAVInlineQueryResultCachedDocument@TgBot@@@Z
	??$_Construct_in_place@VInlineQueryResultCachedGif@TgBot@@$$V@std@@YAXAEAVInlineQueryResultCachedGif@TgBot@@@Z
	??$_Construct_in_place@VInlineQueryResultCachedMpeg4Gif@TgBot@@$$V@std@@YAXAEAVInlineQueryResultCachedMpeg4Gif@TgBot@@@Z
	??$_Construct_in_place@VInlineQueryResultCachedPhoto@TgBot@@$$V@std@@YAXAEAVInlineQueryResultCachedPhoto@TgBot@@@Z
	??$_Construct_in_place@VInlineQueryResultCachedSticker@TgBot@@$$V@std@@YAXAEAVInlineQueryResultCachedSticker@TgBot@@@Z
	??$_Construct_in_place@VInlineQueryResultCachedVideo@TgBot@@$$V@std@@YAXAEAVInlineQueryResultCachedVideo@TgBot@@@Z
	??$_Construct_in_place@VInlineQueryResultCachedVoice@TgBot@@$$V@std@@YAXAEAVInlineQueryResultCachedVoice@TgBot@@@Z
	??$_Construct_in_place@VInlineQueryResultContact@TgBot@@$$V@std@@YAXAEAVInlineQueryResultContact@TgBot@@@Z
	??$_Construct_in_place@VInlineQueryResultDocument@TgBot@@$$V@std@@YAXAEAVInlineQueryResultDocument@TgBot@@@Z
	??$_Construct_in_place@VInlineQueryResultGame@TgBot@@$$V@std@@YAXAEAVInlineQueryResultGame@TgBot@@@Z
	??$_Construct_in_place@VInlineQueryResultGif@TgBot@@$$V@std@@YAXAEAVInlineQueryResultGif@TgBot@@@Z
	??$_Construct_in_place@VInlineQueryResultLocation@TgBot@@$$V@std@@YAXAEAVInlineQueryResultLocation@TgBot@@@Z
	??$_Construct_in_place@VInlineQueryResultMpeg4Gif@TgBot@@$$V@std@@YAXAEAVInlineQueryResultMpeg4Gif@TgBot@@@Z
	??$_Construct_in_place@VInlineQueryResultPhoto@TgBot@@$$V@std@@YAXAEAVInlineQueryResultPhoto@TgBot@@@Z
	??$_Construct_in_place@VInlineQueryResultVenue@TgBot@@$$V@std@@YAXAEAVInlineQueryResultVenue@TgBot@@@Z
	??$_Construct_in_place@VInlineQueryResultVideo@TgBot@@$$V@std@@YAXAEAVInlineQueryResultVideo@TgBot@@@Z
	??$_Construct_in_place@VInlineQueryResultVoice@TgBot@@$$V@std@@YAXAEAVInlineQueryResultVoice@TgBot@@@Z
	??$_Construct_in_place@VInputContactMessageContent@TgBot@@$$V@std@@YAXAEAVInputContactMessageContent@TgBot@@@Z
	??$_Construct_in_place@VInputFile@TgBot@@$$V@std@@YAXAEAVInputFile@TgBot@@@Z
	??$_Construct_in_place@VInputInvoiceMessageContent@TgBot@@$$V@std@@YAXAEAVInputInvoiceMessageContent@TgBot@@@Z
	??$_Construct_in_place@VInputLocationMessageContent@TgBot@@$$V@std@@YAXAEAVInputLocationMessageContent@TgBot@@@Z
	??$_Construct_in_place@VInputMedia@TgBot@@$$V@std@@YAXAEAVInputMedia@TgBot@@@Z
	??$_Construct_in_place@VInputMediaAnimation@TgBot@@$$V@std@@YAXAEAVInputMediaAnimation@TgBot@@@Z
	??$_Construct_in_place@VInputMediaAudio@TgBot@@$$V@std@@YAXAEAVInputMediaAudio@TgBot@@@Z
	??$_Construct_in_place@VInputMediaDocument@TgBot@@$$V@std@@YAXAEAVInputMediaDocument@TgBot@@@Z
	??$_Construct_in_place@VInputMediaPhoto@TgBot@@$$V@std@@YAXAEAVInputMediaPhoto@TgBot@@@Z
	??$_Construct_in_place@VInputMediaVideo@TgBot@@$$V@std@@YAXAEAVInputMediaVideo@TgBot@@@Z
	??$_Construct_in_place@VInputMessageContent@TgBot@@$$V@std@@YAXAEAVInputMessageContent@TgBot@@@Z
	??$_Construct_in_place@VInputTextMessageContent@TgBot@@$$V@std@@YAXAEAVInputTextMessageContent@TgBot@@@Z
	??$_Construct_in_place@VInputVenueMessageContent@TgBot@@$$V@std@@YAXAEAVInputVenueMessageContent@TgBot@@@Z
	??$_Construct_in_place@VInvoice@TgBot@@$$V@std@@YAXAEAVInvoice@TgBot@@@Z
	??$_Construct_in_place@VKeyboardButton@TgBot@@$$V@std@@YAXAEAVKeyboardButton@TgBot@@@Z
	??$_Construct_in_place@VKeyboardButtonPollType@TgBot@@$$V@std@@YAXAEAVKeyboardButtonPollType@TgBot@@@Z
	??$_Construct_in_place@VKeyboardButtonRequestChat@TgBot@@$$V@std@@YAXAEAVKeyboardButtonRequestChat@TgBot@@@Z
	??$_Construct_in_place@VKeyboardButtonRequestUser@TgBot@@$$V@std@@YAXAEAVKeyboardButtonRequestUser@TgBot@@@Z
	??$_Construct_in_place@VLabeledPrice@TgBot@@$$V@std@@YAXAEAVLabeledPrice@TgBot@@@Z
	??$_Construct_in_place@VLocation@TgBot@@$$V@std@@YAXAEAVLocation@TgBot@@@Z
	??$_Construct_in_place@VLoginUrl@TgBot@@$$V@std@@YAXAEAVLoginUrl@TgBot@@@Z
	??$_Construct_in_place@VMaskPosition@TgBot@@$$V@std@@YAXAEAVMaskPosition@TgBot@@@Z
	??$_Construct_in_place@VMenuButton@TgBot@@$$V@std@@YAXAEAVMenuButton@TgBot@@@Z
	??$_Construct_in_place@VMenuButtonCommands@TgBot@@$$V@std@@YAXAEAVMenuButtonCommands@TgBot@@@Z
	??$_Construct_in_place@VMenuButtonDefault@TgBot@@$$V@std@@YAXAEAVMenuButtonDefault@TgBot@@@Z
	??$_Construct_in_place@VMenuButtonWebApp@TgBot@@$$V@std@@YAXAEAVMenuButtonWebApp@TgBot@@@Z
	??$_Construct_in_place@VMessage@TgBot@@$$V@std@@YAXAEAVMessage@TgBot@@@Z
	??$_Construct_in_place@VMessageAutoDeleteTimerChanged@TgBot@@$$V@std@@YAXAEAVMessageAutoDeleteTimerChanged@TgBot@@@Z
	??$_Construct_in_place@VMessageEntity@TgBot@@$$V@std@@YAXAEAVMessageEntity@TgBot@@@Z
	??$_Construct_in_place@VMessageId@TgBot@@$$V@std@@YAXAEAVMessageId@TgBot@@@Z
	??$_Construct_in_place@VOrderInfo@TgBot@@$$V@std@@YAXAEAVOrderInfo@TgBot@@@Z
	??$_Construct_in_place@VPassportData@TgBot@@$$V@std@@YAXAEAVPassportData@TgBot@@@Z
	??$_Construct_in_place@VPassportElementError@TgBot@@$$V@std@@YAXAEAVPassportElementError@TgBot@@@Z
	??$_Construct_in_place@VPassportElementErrorDataField@TgBot@@$$V@std@@YAXAEAVPassportElementErrorDataField@TgBot@@@Z
	??$_Construct_in_place@VPassportElementErrorFile@TgBot@@$$V@std@@YAXAEAVPassportElementErrorFile@TgBot@@@Z
	??$_Construct_in_place@VPassportElementErrorFiles@TgBot@@$$V@std@@YAXAEAVPassportElementErrorFiles@TgBot@@@Z
	??$_Construct_in_place@VPassportElementErrorFrontSide@TgBot@@$$V@std@@YAXAEAVPassportElementErrorFrontSide@TgBot@@@Z
	??$_Construct_in_place@VPassportElementErrorReverseSide@TgBot@@$$V@std@@YAXAEAVPassportElementErrorReverseSide@TgBot@@@Z
	??$_Construct_in_place@VPassportElementErrorSelfie@TgBot@@$$V@std@@YAXAEAVPassportElementErrorSelfie@TgBot@@@Z
	??$_Construct_in_place@VPassportElementErrorTranslationFile@TgBot@@$$V@std@@YAXAEAVPassportElementErrorTranslationFile@TgBot@@@Z
	??$_Construct_in_place@VPassportElementErrorTranslationFiles@TgBot@@$$V@std@@YAXAEAVPassportElementErrorTranslationFiles@TgBot@@@Z
	??$_Construct_in_place@VPassportElementErrorUnspecified@TgBot@@$$V@std@@YAXAEAVPassportElementErrorUnspecified@TgBot@@@Z
	??$_Construct_in_place@VPassportFile@TgBot@@$$V@std@@YAXAEAVPassportFile@TgBot@@@Z
	??$_Construct_in_place@VPhotoSize@TgBot@@$$V@std@@YAXAEAVPhotoSize@TgBot@@@Z
	??$_Construct_in_place@VPoll@TgBot@@$$V@std@@YAXAEAVPoll@TgBot@@@Z
	??$_Construct_in_place@VPollAnswer@TgBot@@$$V@std@@YAXAEAVPollAnswer@TgBot@@@Z
	??$_Construct_in_place@VPollOption@TgBot@@$$V@std@@YAXAEAVPollOption@TgBot@@@Z
	??$_Construct_in_place@VPreCheckoutQuery@TgBot@@$$V@std@@YAXAEAVPreCheckoutQuery@TgBot@@@Z
	??$_Construct_in_place@VProximityAlertTriggered@TgBot@@$$V@std@@YAXAEAVProximityAlertTriggered@TgBot@@@Z
	??$_Construct_in_place@VReplyKeyboardMarkup@TgBot@@$$V@std@@YAXAEAVReplyKeyboardMarkup@TgBot@@@Z
	??$_Construct_in_place@VReplyKeyboardRemove@TgBot@@$$V@std@@YAXAEAVReplyKeyboardRemove@TgBot@@@Z
	??$_Construct_in_place@VResponseParameters@TgBot@@$$V@std@@YAXAEAVResponseParameters@TgBot@@@Z
	??$_Construct_in_place@VSentWebAppMessage@TgBot@@$$V@std@@YAXAEAVSentWebAppMessage@TgBot@@@Z
	??$_Construct_in_place@VShippingOption@TgBot@@$$V@std@@YAXAEAVShippingOption@TgBot@@@Z
	??$_Construct_in_place@VShippingQuery@TgBot@@$$V@std@@YAXAEAVShippingQuery@TgBot@@@Z
	??$_Construct_in_place@VSticker@TgBot@@$$V@std@@YAXAEAVSticker@TgBot@@@Z
	??$_Construct_in_place@VStickerSet@TgBot@@$$V@std@@YAXAEAVStickerSet@TgBot@@@Z
	??$_Construct_in_place@VSuccessfulPayment@TgBot@@$$V@std@@YAXAEAVSuccessfulPayment@TgBot@@@Z
	??$_Construct_in_place@VUpdate@TgBot@@$$V@std@@YAXAEAVUpdate@TgBot@@@Z
	??$_Construct_in_place@VUser@TgBot@@$$V@std@@YAXAEAVUser@TgBot@@@Z
	??$_Construct_in_place@VUserProfilePhotos@TgBot@@$$V@std@@YAXAEAVUserProfilePhotos@TgBot@@@Z
	??$_Construct_in_place@VUserShared@TgBot@@$$V@std@@YAXAEAVUserShared@TgBot@@@Z
	??$_Construct_in_place@VVenue@TgBot@@$$V@std@@YAXAEAVVenue@TgBot@@@Z
	??$_Construct_in_place@VVideo@TgBot@@$$V@std@@YAXAEAVVideo@TgBot@@@Z
	??$_Construct_in_place@VVideoChatEnded@TgBot@@$$V@std@@YAXAEAVVideoChatEnded@TgBot@@@Z
	??$_Construct_in_place@VVideoChatParticipantsInvited@TgBot@@$$V@std@@YAXAEAVVideoChatParticipantsInvited@TgBot@@@Z
	??$_Construct_in_place@VVideoChatScheduled@TgBot@@$$V@std@@YAXAEAVVideoChatScheduled@TgBot@@@Z
	??$_Construct_in_place@VVideoChatStarted@TgBot@@$$V@std@@YAXAEAVVideoChatStarted@TgBot@@@Z
	??$_Construct_in_place@VVideoNote@TgBot@@$$V@std@@YAXAEAVVideoNote@TgBot@@@Z
	??$_Construct_in_place@VVoice@TgBot@@$$V@std@@YAXAEAVVoice@TgBot@@@Z
	??$_Construct_in_place@VWebAppData@TgBot@@$$V@std@@YAXAEAVWebAppData@TgBot@@@Z
	??$_Construct_in_place@VWebAppInfo@TgBot@@$$V@std@@YAXAEAVWebAppInfo@TgBot@@@Z
	??$_Construct_in_place@VWebhookInfo@TgBot@@$$V@std@@YAXAEAVWebhookInfo@TgBot@@@Z
	??$_Construct_in_place@VWriteAccessAllowed@TgBot@@$$V@std@@YAXAEAVWriteAccessAllowed@TgBot@@@Z
	??$_Construct_n@$$V@?$vector@EV?$allocator@E@std@@@std@@AEAAX_K@Z
	??$_Construct_n@AEBQEAV?$function@$$A6AXV?$shared_ptr@VCallbackQuery@TgBot@@@std@@@Z@std@@AEBQEAV12@@?$vector@V?$function@$$A6AXV?$shared_ptr@VCallbackQuery@TgBot@@@std@@@Z@std@@V?$allocator@V?$function@$$A6AXV?$shared_ptr@VCallbackQuery@TgBot@@@std@@@Z@std@@@2@@std@@AEAAX_KAEBQEAV?$function@$$A6AXV?$shared_ptr@VCallbackQuery@TgBot@@@std@@@Z@1@1@Z
	??$_Construct_n@AEBQEAV?$function@$$A6AXV?$shared_ptr@VChatJoinRequest@TgBot@@@std@@@Z@std@@AEBQEAV12@@?$vector@V?$function@$$A6AXV?$shared_ptr@VChatJoinRequest@TgBot@@@std@@@Z@std@@V?$allocator@V?$function@$$A6AXV?$shared_ptr@VChatJoinRequest@TgBot@@@std@@@Z@std@@@2@@std@@AEAAX_KAEBQEAV?$function@$$A6AXV?$shared_ptr@VChatJoinRequest@TgBot@@@std@@@Z@1@1@Z
	??$_Construct_n@AEBQEAV?$function@$$A6AXV?$shared_ptr@VChatMemberUpdated@TgBot@@@std@@@Z@std@@AEBQEAV12@@?$vector@V?$function@$$A6AXV?$shared_ptr@VChatMemberUpdated@TgBot@@@std@@@Z@std@@V?$allocator@V?$function@$$A6AXV?$shared_ptr@VChatMemberUpdated@TgBot@@@std@@@Z@std@@@2@@std@@AEAAX_KAEBQEAV?$function@$$A6AXV?$shared_ptr@VChatMemberUpdated@TgBot@@@std@@@Z@1@1@Z
	??$_Construct_n@AEBQEAV?$function@$$A6AXV?$shared_ptr@VChosenInlineResult@TgBot@@@std@@@Z@std@@AEBQEAV12@@?$vector@V?$function@$$A6AXV?$shared_ptr@VChosenInlineResult@TgBot@@@std@@@Z@std@@V?$allocator@V?$function@$$A6AXV?$shared_ptr@VChosenInlineResult@TgBot@@@std@@@Z@std@@@2@@std@@AEAAX_KAEBQEAV?$function@$$A6AXV?$shared_ptr@VChosenInlineResult@TgBot@@@std@@@Z@1@1@Z
	??$_Construct_n@AEBQEAV?$function@$$A6AXV?$shared_ptr@VInlineQuery@TgBot@@@std@@@Z@std@@AEBQEAV12@@?$vector@V?$function@$$A6AXV?$shared_ptr@VInlineQuery@TgBot@@@std@@@Z@std@@V?$allocator@V?$function@$$A6AXV?$shared_ptr@VInlineQuery@TgBot@@@std@@@Z@std@@@2@@std@@AEAAX_KAEBQEAV?$function@$$A6AXV?$shared_ptr@VInlineQuery@TgBot@@@std@@@Z@1@1@Z
	??$_Construct_n@AEBQEAV?$function@$$A6AXV?$shared_ptr@VMessage@TgBot@@@std@@@Z@std@@AEBQEAV12@@?$vector@V?$function@$$A6AXV?$shared_ptr@VMessage@TgBot@@@std@@@Z@std@@V?$allocator@V?$function@$$A6AXV?$shared_ptr@VMessage@TgBot@@@std@@@Z@std@@@2@@std@@AEAAX_KAEBQEAV?$function@$$A6AXV?$shared_ptr@VMessage@TgBot@@@std@@@Z@1@1@Z
	??$_Construct_n@AEBQEAV?$function@$$A6AXV?$shared_ptr@VPoll@TgBot@@@std@@@Z@std@@AEBQEAV12@@?$vector@V?$function@$$A6AXV?$shared_ptr@VPoll@TgBot@@@std@@@Z@std@@V?$allocator@V?$function@$$A6AXV?$shared_ptr@VPoll@TgBot@@@std@@@Z@std@@@2@@std@@AEAAX_KAEBQEAV?$function@$$A6AXV?$shared_ptr@VPoll@TgBot@@@std@@@Z@1@1@Z
	??$_Construct_n@AEBQEAV?$function@$$A6AXV?$shared_ptr@VPollAnswer@TgBot@@@std@@@Z@std@@AEBQEAV12@@?$vector@V?$function@$$A6AXV?$shared_ptr@VPollAnswer@TgBot@@@std@@@Z@std@@V?$allocator@V?$function@$$A6AXV?$shared_ptr@VPollAnswer@TgBot@@@std@@@Z@std@@@2@@std@@AEAAX_KAEBQEAV?$function@$$A6AXV?$shared_ptr@VPollAnswer@TgBot@@@std@@@Z@1@1@Z
	??$_Construct_n@AEBQEAV?$function@$$A6AXV?$shared_ptr@VPreCheckoutQuery@TgBot@@@std@@@Z@std@@AEBQEAV12@@?$vector@V?$function@$$A6AXV?$shared_ptr@VPreCheckoutQuery@TgBot@@@std@@@Z@std@@V?$allocator@V?$function@$$A6AXV?$shared_ptr@VPreCheckoutQuery@TgBot@@@std@@@Z@std@@@2@@std@@AEAAX_KAEBQEAV?$function@$$A6AXV?$shared_ptr@VPreCheckoutQuery@TgBot@@@std@@@Z@1@1@Z
	??$_Construct_n@AEBQEAV?$function@$$A6AXV?$shared_ptr@VShippingQuery@TgBot@@@std@@@Z@std@@AEBQEAV12@@?$vector@V?$function@$$A6AXV?$shared_ptr@VShippingQuery@TgBot@@@std@@@Z@std@@V?$allocator@V?$function@$$A6AXV?$shared_ptr@VShippingQuery@TgBot@@@std@@@Z@std@@@2@@std@@AEAAX_KAEBQEAV?$function@$$A6AXV?$shared_ptr@VShippingQuery@TgBot@@@std@@@Z@1@1@Z
	??$_Construct_n@AEBQEAV?$shared_ptr@VPhotoSize@TgBot@@@std@@AEBQEAV12@@?$vector@V?$shared_ptr@VPhotoSize@TgBot@@@std@@V?$allocator@V?$shared_ptr@VPhotoSize@TgBot@@@std@@@2@@std@@AEAAX_KAEBQEAV?$shared_ptr@VPhotoSize@TgBot@@@1@1@Z
	??$_Construct_n@AEBQEAV?$shared_ptr@VUpdate@TgBot@@@std@@AEBQEAV12@@?$vector@V?$shared_ptr@VUpdate@TgBot@@@std@@V?$allocator@V?$shared_ptr@VUpdate@TgBot@@@std@@@2@@std@@AEAAX_KAEBQEAV?$shared_ptr@VUpdate@TgBot@@@1@1@Z
	??$_Convert_Source_to_wide@V?$basic_string@DU?$char_traits@D@std@@V?$allocator@D@2@@std@@U_Normal_conversion@filesystem@2@@filesystem@std@@YA?AV?$basic_string@_WU?$char_traits@_W@std@@V?$allocator@_W@2@@1@AEBV?$basic_string@DU?$char_traits@D@std@@V?$allocator@D@2@@1@U_Normal_conversion@01@@Z
	??$_Convert_Source_to_wide@V?$basic_string_view@_WU?$char_traits@_W@std@@@std@@U_Normal_conversion@filesystem@2@@filesystem@std@@YA?AV?$basic_string@_WU?$char_traits@_W@std@@V?$allocator@_W@2@@1@AEBV?$basic_string_view@_WU?$char_traits@_W@std@@@1@U_Normal_conversion@01@@Z
	??$_Convert_size@_K_K@std@@YA_K_K@Z
	??$_Convert_stringoid_to_wide@U_Normal_conversion@filesystem@std@@@filesystem@std@@YA?AV?$basic_string@_WU?$char_traits@_W@std@@V?$allocator@_W@2@@1@V?$basic_string_view@DU?$char_traits@D@std@@@1@U_Normal_conversion@01@@Z
	??$_Convert_stringoid_to_wide@U_Normal_conversion@filesystem@std@@@filesystem@std@@YA?AV?$basic_string@_WU?$char_traits@_W@std@@V?$allocator@_W@2@@1@V?$basic_string_view@_WU?$char_traits@_W@std@@@1@U_Normal_conversion@01@@Z
	??$_Convert_wide_to@U?$char_traits@D@std@@V?$allocator@D@2@D@filesystem@std@@YA?AV?$basic_string@DU?$char_traits@D@std@@V?$allocator@D@2@@1@V?$basic_string_view@_WU?$char_traits@_W@std@@@1@AEBV?$allocator@D@1@@Z
	??$_Convert_wide_to_narrow@U?$char_traits@D@std@@V?$allocator@D@2@@std@@YA?AV?$basic_string@DU?$char_traits@D@std@@V?$allocator@D@2@@0@W4__std_code_page@@V?$basic_string_view@_WU?$char_traits@_W@std@@@0@AEBV?$allocator@D@0@@Z
	??$_Copy_backward_memmove@PEAU?$copy_map_entry@U?$sequenced_index_node@U?$ordered_index_node@Unull_augment_policy@detail@multi_index@boost@@U?$index_node_base@U?$pair@$$CBV?$basic_string@DU?$char_traits@D@std@@V?$allocator@D@2@@std@@V?$basic_ptree@V?$basic_string@DU?$char_traits@D@std@@V?$allocator@D@2@@std@@V12@U?$less@V?$basic_string@DU?$char_traits@D@std@@V?$allocator@D@2@@std@@@2@@property_tree@boost@@@std@@V?$allocator@U?$pair@$$CBV?$basic_string@DU?$char_traits@D@std@@V?$allocator@D@2@@std@@V?$basic_ptree@V?$basic_string@DU?$char_traits@D@std@@V?$allocator@D@2@@std@@V12@U?$less@V?$basic_string@DU?$char_traits@D@std@@V?$allocator@D@2@@std@@@2@@property_tree@boost@@@std@@@2@@234@@detail@multi_index@boost@@@detail@multi_index@boost@@@detail@multi_index@boost@@PEAU1234@@std@@YAPEAU?$copy_map_entry@U?$sequenced_index_node@U?$ordered_index_node@Unull_augment_policy@detail@multi_index@boost@@U?$index_node_base@U?$pair@$$CBV?$basic_string@DU?$char_traits@D@std@@V?$allocator@D@2@@std@@V?$basic_ptree@V?$basic_string@DU?$char_traits@D@std@@V?$allocator@D@2@@std@@V12@U?$less@V?$basic_string@DU?$char_traits@D@std@@V?$allocator@D@2@@std@@@2@@property_tree@boost@@@std@@V?$allocator@U?$pair@$$CBV?$basic_string@DU?$char_traits@D@std@@V?$allocator@D@2@@std@@V?$basic_ptree@V?$basic_string@DU?$char_traits@D@std@@V?$allocator@D@2@@std@@V12@U?$less@V?$basic_string@DU?$char_traits@D@std@@V?$allocator@D@2@@std@@@2@@property_tree@boost@@@std@@@2@@234@@detail@multi_index@boost@@@detail@multi_index@boost@@@detail@multi_index@boost@@PEAU1234@00@Z
	??$_Copy_construct_from@V?$vector@V?$basic_resolver_entry@Vtcp@ip@asio@boost@@@ip@asio@boost@@V?$allocator@V?$basic_resolver_entry@Vtcp@ip@asio@boost@@@ip@asio@boost@@@std@@@std@@@?$_Ptr_base@V?$vector@V?$basic_resolver_entry@Vtcp@ip@asio@boost@@@ip@asio@boost@@V?$allocator@V?$basic_resolver_entry@Vtcp@ip@asio@boost@@@ip@asio@boost@@@std@@@std@@@std@@IEAAXAEBV?$shared_ptr@V?$vector@V?$basic_resolver_entry@Vtcp@ip@asio@boost@@@ip@asio@boost@@V?$allocator@V?$basic_resolver_entry@Vtcp@ip@asio@boost@@@ip@asio@boost@@@std@@@std@@@1@@Z
	??$_Copy_construct_from@V?$vector@V?$basic_string@DU?$char_traits@D@std@@V?$allocator@D@2@@std@@V?$allocator@V?$basic_string@DU?$char_traits@D@std@@V?$allocator@D@2@@std@@@2@@std@@@?$_Ptr_base@V?$vector@V?$basic_string@DU?$char_traits@D@std@@V?$allocator@D@2@@std@@V?$allocator@V?$basic_string@DU?$char_traits@D@std@@V?$allocator@D@2@@std@@@2@@std@@@std@@IEAAXAEBV?$shared_ptr@V?$vector@V?$basic_string@DU?$char_traits@D@std@@V?$allocator@D@2@@std@@V?$allocator@V?$basic_string@DU?$char_traits@D@std@@V?$allocator@D@2@@std@@@2@@std@@@1@@Z
	??$_Copy_construct_from@VCallbackQuery@TgBot@@@?$_Ptr_base@VCallbackQuery@TgBot@@@std@@IEAAXAEBV?$shared_ptr@VCallbackQuery@TgBot@@@1@@Z
	??$_Copy_construct_from@VChatJoinRequest@TgBot@@@?$_Ptr_base@VChatJoinRequest@TgBot@@@std@@IEAAXAEBV?$shared_ptr@VChatJoinRequest@TgBot@@@1@@Z
	??$_Copy_construct_from@VChatMemberUpdated@TgBot@@@?$_Ptr_base@VChatMemberUpdated@TgBot@@@std@@IEAAXAEBV?$shared_ptr@VChatMemberUpdated@TgBot@@@1@@Z
	??$_Copy_construct_from@VChosenInlineResult@TgBot@@@?$_Ptr_base@VChosenInlineResult@TgBot@@@std@@IEAAXAEBV?$shared_ptr@VChosenInlineResult@TgBot@@@1@@Z
	??$_Copy_construct_from@VInlineKeyboardMarkup@TgBot@@@?$_Ptr_base@VGenericReply@TgBot@@@std@@IEAAXAEBV?$shared_ptr@VInlineKeyboardMarkup@TgBot@@@1@@Z
	??$_Copy_construct_from@VInlineQuery@TgBot@@@?$_Ptr_base@VInlineQuery@TgBot@@@std@@IEAAXAEBV?$shared_ptr@VInlineQuery@TgBot@@@1@@Z
	??$_Copy_construct_from@VInputFile@TgBot@@@?$_Ptr_base@VInputFile@TgBot@@@std@@IEAAXAEBV?$shared_ptr@VInputFile@TgBot@@@1@@Z
	??$_Copy_construct_from@VMessage@TgBot@@@?$_Ptr_base@VMessage@TgBot@@@std@@IEAAXAEBV?$shared_ptr@VMessage@TgBot@@@1@@Z
	??$_Copy_construct_from@VPhotoSize@TgBot@@@?$_Ptr_base@VPhotoSize@TgBot@@@std@@IEAAXAEBV?$shared_ptr@VPhotoSize@TgBot@@@1@@Z
	??$_Copy_construct_from@VPoll@TgBot@@@?$_Ptr_base@VPoll@TgBot@@@std@@IEAAXAEBV?$shared_ptr@VPoll@TgBot@@@1@@Z
	??$_Copy_construct_from@VPollAnswer@TgBot@@@?$_Ptr_base@VPollAnswer@TgBot@@@std@@IEAAXAEBV?$shared_ptr@VPollAnswer@TgBot@@@1@@Z
	??$_Copy_construct_from@VPreCheckoutQuery@TgBot@@@?$_Ptr_base@VPreCheckoutQuery@TgBot@@@std@@IEAAXAEBV?$shared_ptr@VPreCheckoutQuery@TgBot@@@1@@Z
	??$_Copy_construct_from@VShippingQuery@TgBot@@@?$_Ptr_base@VShippingQuery@TgBot@@@std@@IEAAXAEBV?$shared_ptr@VShippingQuery@TgBot@@@1@@Z
	??$_Copy_construct_from@VUpdate@TgBot@@@?$_Ptr_base@VUpdate@TgBot@@@std@@IEAAXAEBV?$shared_ptr@VUpdate@TgBot@@@1@@Z
	??$_Copy_construct_from@Vdo_init@openssl_init_base@detail@ssl@asio@boost@@@?$_Ptr_base@Vdo_init@openssl_init_base@detail@ssl@asio@boost@@@std@@IEAAXAEBV?$shared_ptr@Vdo_init@openssl_init_base@detail@ssl@asio@boost@@@1@@Z
	??$_Copy_memmove@PEAHPEAH@std@@YAPEAHPEAH00@Z
	??$_Copy_memmove@PEAUlayer@?$standard_callbacks@V?$basic_ptree@V?$basic_string@DU?$char_traits@D@std@@V?$allocator@D@2@@std@@V12@U?$less@V?$basic_string@DU?$char_traits@D@std@@V?$allocator@D@2@@std@@@2@@property_tree@boost@@@detail@json_parser@property_tree@boost@@PEAU123456@@std@@YAPEAUlayer@?$standard_callbacks@V?$basic_ptree@V?$basic_string@DU?$char_traits@D@std@@V?$allocator@D@2@@std@@V12@U?$less@V?$basic_string@DU?$char_traits@D@std@@V?$allocator@D@2@@std@@@2@@property_tree@boost@@@detail@json_parser@property_tree@boost@@PEAU123456@00@Z
	??$_Copy_memmove_tail@PEAH@std@@YAPEAHQEBDQEAH_K2@Z
	??$_Copy_memmove_tail@PEAUlayer@?$standard_callbacks@V?$basic_ptree@V?$basic_string@DU?$char_traits@D@std@@V?$allocator@D@2@@std@@V12@U?$less@V?$basic_string@DU?$char_traits@D@std@@V?$allocator@D@2@@std@@@2@@property_tree@boost@@@detail@json_parser@property_tree@boost@@@std@@YAPEAUlayer@?$standard_callbacks@V?$basic_ptree@V?$basic_string@DU?$char_traits@D@std@@V?$allocator@D@2@@std@@V12@U?$less@V?$basic_string@DU?$char_traits@D@std@@V?$allocator@D@2@@std@@@2@@property_tree@boost@@@detail@json_parser@property_tree@boost@@QEBDQEAU123456@_K2@Z
	??$_Copy_n_unchecked4@PEAV?$function@$$A6AXV?$shared_ptr@VCallbackQuery@TgBot@@@std@@@Z@std@@_KPEAV12@@std@@YAPEAV?$function@$$A6AXV?$shared_ptr@VCallbackQuery@TgBot@@@std@@@Z@0@PEAV10@_K0@Z
	??$_Copy_n_unchecked4@PEAV?$function@$$A6AXV?$shared_ptr@VChatJoinRequest@TgBot@@@std@@@Z@std@@_KPEAV12@@std@@YAPEAV?$function@$$A6AXV?$shared_ptr@VChatJoinRequest@TgBot@@@std@@@Z@0@PEAV10@_K0@Z
	??$_Copy_n_unchecked4@PEAV?$function@$$A6AXV?$shared_ptr@VChatMemberUpdated@TgBot@@@std@@@Z@std@@_KPEAV12@@std@@YAPEAV?$function@$$A6AXV?$shared_ptr@VChatMemberUpdated@TgBot@@@std@@@Z@0@PEAV10@_K0@Z
	??$_Copy_n_unchecked4@PEAV?$function@$$A6AXV?$shared_ptr@VChosenInlineResult@TgBot@@@std@@@Z@std@@_KPEAV12@@std@@YAPEAV?$function@$$A6AXV?$shared_ptr@VChosenInlineResult@TgBot@@@std@@@Z@0@PEAV10@_K0@Z
	??$_Copy_n_unchecked4@PEAV?$function@$$A6AXV?$shared_ptr@VInlineQuery@TgBot@@@std@@@Z@std@@_KPEAV12@@std@@YAPEAV?$function@$$A6AXV?$shared_ptr@VInlineQuery@TgBot@@@std@@@Z@0@PEAV10@_K0@Z
	??$_Copy_n_unchecked4@PEAV?$function@$$A6AXV?$shared_ptr@VMessage@TgBot@@@std@@@Z@std@@_KPEAV12@@std@@YAPEAV?$function@$$A6AXV?$shared_ptr@VMessage@TgBot@@@std@@@Z@0@PEAV10@_K0@Z
	??$_Copy_n_unchecked4@PEAV?$function@$$A6AXV?$shared_ptr@VPoll@TgBot@@@std@@@Z@std@@_KPEAV12@@std@@YAPEAV?$function@$$A6AXV?$shared_ptr@VPoll@TgBot@@@std@@@Z@0@PEAV10@_K0@Z
	??$_Copy_n_unchecked4@PEAV?$function@$$A6AXV?$shared_ptr@VPollAnswer@TgBot@@@std@@@Z@std@@_KPEAV12@@std@@YAPEAV?$function@$$A6AXV?$shared_ptr@VPollAnswer@TgBot@@@std@@@Z@0@PEAV10@_K0@Z
	??$_Copy_n_unchecked4@PEAV?$function@$$A6AXV?$shared_ptr@VPreCheckoutQuery@TgBot@@@std@@@Z@std@@_KPEAV12@@std@@YAPEAV?$function@$$A6AXV?$shared_ptr@VPreCheckoutQuery@TgBot@@@std@@@Z@0@PEAV10@_K0@Z
	??$_Copy_n_unchecked4@PEAV?$function@$$A6AXV?$shared_ptr@VShippingQuery@TgBot@@@std@@@Z@std@@_KPEAV12@@std@@YAPEAV?$function@$$A6AXV?$shared_ptr@VShippingQuery@TgBot@@@std@@@Z@0@PEAV10@_K0@Z
	??$_Copy_n_unchecked4@PEAV?$shared_ptr@VUpdate@TgBot@@@std@@_KPEAV12@@std@@YAPEAV?$shared_ptr@VUpdate@TgBot@@@0@PEAV10@_K0@Z
	??$_Could_compare_equal_to_value_type@PEADD@std@@YA_NAEBD@Z
	??$_Deallocate@$07@std@@YAXPEAX_K@Z
	??$_Deallocate@$0BA@@std@@YAXPEAX_K@Z
	??$_Deallocate_plain@V?$allocator@U_Container_proxy@std@@@std@@@std@@YAXAEAV?$allocator@U_Container_proxy@std@@@0@QEAU_Container_proxy@0@@Z
	??$_Debug_lt_pred@AEAU?$less@X@std@@AEAU?$copy_map_entry@U?$sequenced_index_node@U?$ordered_index_node@Unull_augment_policy@detail@multi_index@boost@@U?$index_node_base@U?$pair@$$CBV?$basic_string@DU?$char_traits@D@std@@V?$allocator@D@2@@std@@V?$basic_ptree@V?$basic_string@DU?$char_traits@D@std@@V?$allocator@D@2@@std@@V12@U?$less@V?$basic_string@DU?$char_traits@D@std@@V?$allocator@D@2@@std@@@2@@property_tree@boost@@@std@@V?$allocator@U?$pair@$$CBV?$basic_string@DU?$char_traits@D@std@@V?$allocator@D@2@@std@@V?$basic_ptree@V?$basic_string@DU?$char_traits@D@std@@V?$allocator@D@2@@std@@V12@U?$less@V?$basic_string@DU?$char_traits@D@std@@V?$allocator@D@2@@std@@@2@@property_tree@boost@@@std@@@2@@234@@detail@multi_index@boost@@@detail@multi_index@boost@@@detail@multi_index@boost@@AEAU3456@@std@@YA_NAEAU?$less@X@0@AEAU?$copy_map_entry@U?$sequenced_index_node@U?$ordered_index_node@Unull_augment_policy@detail@multi_index@boost@@U?$index_node_base@U?$pair@$$CBV?$basic_string@DU?$char_traits@D@std@@V?$allocator@D@2@@std@@V?$basic_ptree@V?$basic_string@DU?$char_traits@D@std@@V?$allocator@D@2@@std@@V12@U?$less@V?$basic_string@DU?$char_traits@D@std@@V?$allocator@D@2@@std@@@2@@property_tree@boost@@@std@@V?$allocator@U?$pair@$$CBV?$basic_string@DU?$char_traits@D@std@@V?$allocator@D@2@@std@@V?$basic_ptree@V?$basic_string@DU?$char_traits@D@std@@V?$allocator@D@2@@std@@V12@U?$less@V?$basic_string@DU?$char_traits@D@std@@V?$allocator@D@2@@std@@@2@@property_tree@boost@@@std@@@2@@234@@detail@multi_index@boost@@@detail@multi_index@boost@@@detail@multi_index@boost@@1@Z
	??$_Delete_plain_internal@V?$allocator@U_Container_proxy@std@@@std@@@std@@YAXAEAV?$allocator@U_Container_proxy@std@@@0@QEAU_Container_proxy@0@@Z
	??$_Destroy_in_place@PEAD@std@@YAXAEAPEAD@Z
	??$_Destroy_in_place@PEAU?$_List_node@U?$pair@$$CBV?$basic_string@DU?$char_traits@D@std@@V?$allocator@D@2@@std@@V12@@std@@PEAX@std@@@std@@YAXAEAPEAU?$_List_node@U?$pair@$$CBV?$basic_string@DU?$char_traits@D@std@@V?$allocator@D@2@@std@@V12@@std@@PEAX@0@@Z
	??$_Destroy_in_place@PEAU?$_List_node@U?$pair@$$CBV?$basic_string@DU?$char_traits@D@std@@V?$allocator@D@2@@std@@V?$function@$$A6AXV?$shared_ptr@VMessage@TgBot@@@std@@@Z@2@@std@@PEAX@std@@@std@@YAXAEAPEAU?$_List_node@U?$pair@$$CBV?$basic_string@DU?$char_traits@D@std@@V?$allocator@D@2@@std@@V?$function@$$A6AXV?$shared_ptr@VMessage@TgBot@@@std@@@Z@2@@std@@PEAX@0@@Z
	??$_Destroy_in_place@PEA_W@std@@YAXAEAPEA_W@Z
	??$_Destroy_in_place@VAnimation@TgBot@@@std@@YAXAEAVAnimation@TgBot@@@Z
	??$_Destroy_in_place@VAudio@TgBot@@@std@@YAXAEAVAudio@TgBot@@@Z
	??$_Destroy_in_place@VBotCommand@TgBot@@@std@@YAXAEAVBotCommand@TgBot@@@Z
	??$_Destroy_in_place@VBotCommandScope@TgBot@@@std@@YAXAEAVBotCommandScope@TgBot@@@Z
	??$_Destroy_in_place@VBotCommandScopeAllChatAdministrators@TgBot@@@std@@YAXAEAVBotCommandScopeAllChatAdministrators@TgBot@@@Z
	??$_Destroy_in_place@VBotCommandScopeAllGroupChats@TgBot@@@std@@YAXAEAVBotCommandScopeAllGroupChats@TgBot@@@Z
	??$_Destroy_in_place@VBotCommandScopeAllPrivateChats@TgBot@@@std@@YAXAEAVBotCommandScopeAllPrivateChats@TgBot@@@Z
	??$_Destroy_in_place@VBotCommandScopeChat@TgBot@@@std@@YAXAEAVBotCommandScopeChat@TgBot@@@Z
	??$_Destroy_in_place@VBotCommandScopeChatAdministrators@TgBot@@@std@@YAXAEAVBotCommandScopeChatAdministrators@TgBot@@@Z
	??$_Destroy_in_place@VBotCommandScopeChatMember@TgBot@@@std@@YAXAEAVBotCommandScopeChatMember@TgBot@@@Z
	??$_Destroy_in_place@VBotCommandScopeDefault@TgBot@@@std@@YAXAEAVBotCommandScopeDefault@TgBot@@@Z
	??$_Destroy_in_place@VCallbackGame@TgBot@@@std@@YAXAEAVCallbackGame@TgBot@@@Z
	??$_Destroy_in_place@VCallbackQuery@TgBot@@@std@@YAXAEAVCallbackQuery@TgBot@@@Z
	??$_Destroy_in_place@VChat@TgBot@@@std@@YAXAEAVChat@TgBot@@@Z
	??$_Destroy_in_place@VChatAdministratorRights@TgBot@@@std@@YAXAEAVChatAdministratorRights@TgBot@@@Z
	??$_Destroy_in_place@VChatInviteLink@TgBot@@@std@@YAXAEAVChatInviteLink@TgBot@@@Z
	??$_Destroy_in_place@VChatJoinRequest@TgBot@@@std@@YAXAEAVChatJoinRequest@TgBot@@@Z
	??$_Destroy_in_place@VChatLocation@TgBot@@@std@@YAXAEAVChatLocation@TgBot@@@Z
	??$_Destroy_in_place@VChatMember@TgBot@@@std@@YAXAEAVChatMember@TgBot@@@Z
	??$_Destroy_in_place@VChatMemberAdministrator@TgBot@@@std@@YAXAEAVChatMemberAdministrator@TgBot@@@Z
	??$_Destroy_in_place@VChatMemberBanned@TgBot@@@std@@YAXAEAVChatMemberBanned@TgBot@@@Z
	??$_Destroy_in_place@VChatMemberLeft@TgBot@@@std@@YAXAEAVChatMemberLeft@TgBot@@@Z
	??$_Destroy_in_place@VChatMemberMember@TgBot@@@std@@YAXAEAVChatMemberMember@TgBot@@@Z
	??$_Destroy_in_place@VChatMemberOwner@TgBot@@@std@@YAXAEAVChatMemberOwner@TgBot@@@Z
	??$_Destroy_in_place@VChatMemberRestricted@TgBot@@@std@@YAXAEAVChatMemberRestricted@TgBot@@@Z
	??$_Destroy_in_place@VChatMemberUpdated@TgBot@@@std@@YAXAEAVChatMemberUpdated@TgBot@@@Z
	??$_Destroy_in_place@VChatPermissions@TgBot@@@std@@YAXAEAVChatPermissions@TgBot@@@Z
	??$_Destroy_in_place@VChatPhoto@TgBot@@@std@@YAXAEAVChatPhoto@TgBot@@@Z
	??$_Destroy_in_place@VChatShared@TgBot@@@std@@YAXAEAVChatShared@TgBot@@@Z
	??$_Destroy_in_place@VChosenInlineResult@TgBot@@@std@@YAXAEAVChosenInlineResult@TgBot@@@Z
	??$_Destroy_in_place@VContact@TgBot@@@std@@YAXAEAVContact@TgBot@@@Z
	??$_Destroy_in_place@VDice@TgBot@@@std@@YAXAEAVDice@TgBot@@@Z
	??$_Destroy_in_place@VDocument@TgBot@@@std@@YAXAEAVDocument@TgBot@@@Z
	??$_Destroy_in_place@VEncryptedCredentials@TgBot@@@std@@YAXAEAVEncryptedCredentials@TgBot@@@Z
	??$_Destroy_in_place@VEncryptedPassportElement@TgBot@@@std@@YAXAEAVEncryptedPassportElement@TgBot@@@Z
	??$_Destroy_in_place@VFile@TgBot@@@std@@YAXAEAVFile@TgBot@@@Z
	??$_Destroy_in_place@VForceReply@TgBot@@@std@@YAXAEAVForceReply@TgBot@@@Z
	??$_Destroy_in_place@VForumTopic@TgBot@@@std@@YAXAEAVForumTopic@TgBot@@@Z
	??$_Destroy_in_place@VForumTopicClosed@TgBot@@@std@@YAXAEAVForumTopicClosed@TgBot@@@Z
	??$_Destroy_in_place@VForumTopicCreated@TgBot@@@std@@YAXAEAVForumTopicCreated@TgBot@@@Z
	??$_Destroy_in_place@VForumTopicEdited@TgBot@@@std@@YAXAEAVForumTopicEdited@TgBot@@@Z
	??$_Destroy_in_place@VForumTopicReopened@TgBot@@@std@@YAXAEAVForumTopicReopened@TgBot@@@Z
	??$_Destroy_in_place@VGame@TgBot@@@std@@YAXAEAVGame@TgBot@@@Z
	??$_Destroy_in_place@VGameHighScore@TgBot@@@std@@YAXAEAVGameHighScore@TgBot@@@Z
	??$_Destroy_in_place@VGeneralForumTopicHidden@TgBot@@@std@@YAXAEAVGeneralForumTopicHidden@TgBot@@@Z
	??$_Destroy_in_place@VGeneralForumTopicUnhidden@TgBot@@@std@@YAXAEAVGeneralForumTopicUnhidden@TgBot@@@Z
	??$_Destroy_in_place@VGenericReply@TgBot@@@std@@YAXAEAVGenericReply@TgBot@@@Z
	??$_Destroy_in_place@VInlineKeyboardButton@TgBot@@@std@@YAXAEAVInlineKeyboardButton@TgBot@@@Z
	??$_Destroy_in_place@VInlineKeyboardMarkup@TgBot@@@std@@YAXAEAVInlineKeyboardMarkup@TgBot@@@Z
	??$_Destroy_in_place@VInlineQuery@TgBot@@@std@@YAXAEAVInlineQuery@TgBot@@@Z
	??$_Destroy_in_place@VInlineQueryResult@TgBot@@@std@@YAXAEAVInlineQueryResult@TgBot@@@Z
	??$_Destroy_in_place@VInlineQueryResultArticle@TgBot@@@std@@YAXAEAVInlineQueryResultArticle@TgBot@@@Z
	??$_Destroy_in_place@VInlineQueryResultAudio@TgBot@@@std@@YAXAEAVInlineQueryResultAudio@TgBot@@@Z
	??$_Destroy_in_place@VInlineQueryResultCachedAudio@TgBot@@@std@@YAXAEAVInlineQueryResultCachedAudio@TgBot@@@Z
	??$_Destroy_in_place@VInlineQueryResultCachedDocument@TgBot@@@std@@YAXAEAVInlineQueryResultCachedDocument@TgBot@@@Z
	??$_Destroy_in_place@VInlineQueryResultCachedGif@TgBot@@@std@@YAXAEAVInlineQueryResultCachedGif@TgBot@@@Z
	??$_Destroy_in_place@VInlineQueryResultCachedMpeg4Gif@TgBot@@@std@@YAXAEAVInlineQueryResultCachedMpeg4Gif@TgBot@@@Z
	??$_Destroy_in_place@VInlineQueryResultCachedPhoto@TgBot@@@std@@YAXAEAVInlineQueryResultCachedPhoto@TgBot@@@Z
	??$_Destroy_in_place@VInlineQueryResultCachedSticker@TgBot@@@std@@YAXAEAVInlineQueryResultCachedSticker@TgBot@@@Z
	??$_Destroy_in_place@VInlineQueryResultCachedVideo@TgBot@@@std@@YAXAEAVInlineQueryResultCachedVideo@TgBot@@@Z
	??$_Destroy_in_place@VInlineQueryResultCachedVoice@TgBot@@@std@@YAXAEAVInlineQueryResultCachedVoice@TgBot@@@Z
	??$_Destroy_in_place@VInlineQueryResultContact@TgBot@@@std@@YAXAEAVInlineQueryResultContact@TgBot@@@Z
	??$_Destroy_in_place@VInlineQueryResultDocument@TgBot@@@std@@YAXAEAVInlineQueryResultDocument@TgBot@@@Z
	??$_Destroy_in_place@VInlineQueryResultGame@TgBot@@@std@@YAXAEAVInlineQueryResultGame@TgBot@@@Z
	??$_Destroy_in_place@VInlineQueryResultGif@TgBot@@@std@@YAXAEAVInlineQueryResultGif@TgBot@@@Z
	??$_Destroy_in_place@VInlineQueryResultLocation@TgBot@@@std@@YAXAEAVInlineQueryResultLocation@TgBot@@@Z
	??$_Destroy_in_place@VInlineQueryResultMpeg4Gif@TgBot@@@std@@YAXAEAVInlineQueryResultMpeg4Gif@TgBot@@@Z
	??$_Destroy_in_place@VInlineQueryResultPhoto@TgBot@@@std@@YAXAEAVInlineQueryResultPhoto@TgBot@@@Z
	??$_Destroy_in_place@VInlineQueryResultVenue@TgBot@@@std@@YAXAEAVInlineQueryResultVenue@TgBot@@@Z
	??$_Destroy_in_place@VInlineQueryResultVideo@TgBot@@@std@@YAXAEAVInlineQueryResultVideo@TgBot@@@Z
	??$_Destroy_in_place@VInlineQueryResultVoice@TgBot@@@std@@YAXAEAVInlineQueryResultVoice@TgBot@@@Z
	??$_Destroy_in_place@VInputContactMessageContent@TgBot@@@std@@YAXAEAVInputContactMessageContent@TgBot@@@Z
	??$_Destroy_in_place@VInputFile@TgBot@@@std@@YAXAEAVInputFile@TgBot@@@Z
	??$_Destroy_in_place@VInputInvoiceMessageContent@TgBot@@@std@@YAXAEAVInputInvoiceMessageContent@TgBot@@@Z
	??$_Destroy_in_place@VInputLocationMessageContent@TgBot@@@std@@YAXAEAVInputLocationMessageContent@TgBot@@@Z
	??$_Destroy_in_place@VInputMedia@TgBot@@@std@@YAXAEAVInputMedia@TgBot@@@Z
	??$_Destroy_in_place@VInputMediaAnimation@TgBot@@@std@@YAXAEAVInputMediaAnimation@TgBot@@@Z
	??$_Destroy_in_place@VInputMediaAudio@TgBot@@@std@@YAXAEAVInputMediaAudio@TgBot@@@Z
	??$_Destroy_in_place@VInputMediaDocument@TgBot@@@std@@YAXAEAVInputMediaDocument@TgBot@@@Z
	??$_Destroy_in_place@VInputMediaPhoto@TgBot@@@std@@YAXAEAVInputMediaPhoto@TgBot@@@Z
	??$_Destroy_in_place@VInputMediaVideo@TgBot@@@std@@YAXAEAVInputMediaVideo@TgBot@@@Z
	??$_Destroy_in_place@VInputMessageContent@TgBot@@@std@@YAXAEAVInputMessageContent@TgBot@@@Z
	??$_Destroy_in_place@VInputTextMessageContent@TgBot@@@std@@YAXAEAVInputTextMessageContent@TgBot@@@Z
	??$_Destroy_in_place@VInputVenueMessageContent@TgBot@@@std@@YAXAEAVInputVenueMessageContent@TgBot@@@Z
	??$_Destroy_in_place@VInvoice@TgBot@@@std@@YAXAEAVInvoice@TgBot@@@Z
	??$_Destroy_in_place@VKeyboardButton@TgBot@@@std@@YAXAEAVKeyboardButton@TgBot@@@Z
	??$_Destroy_in_place@VKeyboardButtonPollType@TgBot@@@std@@YAXAEAVKeyboardButtonPollType@TgBot@@@Z
	??$_Destroy_in_place@VKeyboardButtonRequestChat@TgBot@@@std@@YAXAEAVKeyboardButtonRequestChat@TgBot@@@Z
	??$_Destroy_in_place@VKeyboardButtonRequestUser@TgBot@@@std@@YAXAEAVKeyboardButtonRequestUser@TgBot@@@Z
	??$_Destroy_in_place@VLabeledPrice@TgBot@@@std@@YAXAEAVLabeledPrice@TgBot@@@Z
	??$_Destroy_in_place@VLocation@TgBot@@@std@@YAXAEAVLocation@TgBot@@@Z
	??$_Destroy_in_place@VLoginUrl@TgBot@@@std@@YAXAEAVLoginUrl@TgBot@@@Z
	??$_Destroy_in_place@VMaskPosition@TgBot@@@std@@YAXAEAVMaskPosition@TgBot@@@Z
	??$_Destroy_in_place@VMenuButton@TgBot@@@std@@YAXAEAVMenuButton@TgBot@@@Z
	??$_Destroy_in_place@VMenuButtonCommands@TgBot@@@std@@YAXAEAVMenuButtonCommands@TgBot@@@Z
	??$_Destroy_in_place@VMenuButtonDefault@TgBot@@@std@@YAXAEAVMenuButtonDefault@TgBot@@@Z
	??$_Destroy_in_place@VMenuButtonWebApp@TgBot@@@std@@YAXAEAVMenuButtonWebApp@TgBot@@@Z
	??$_Destroy_in_place@VMessage@TgBot@@@std@@YAXAEAVMessage@TgBot@@@Z
	??$_Destroy_in_place@VMessageAutoDeleteTimerChanged@TgBot@@@std@@YAXAEAVMessageAutoDeleteTimerChanged@TgBot@@@Z
	??$_Destroy_in_place@VMessageEntity@TgBot@@@std@@YAXAEAVMessageEntity@TgBot@@@Z
	??$_Destroy_in_place@VMessageId@TgBot@@@std@@YAXAEAVMessageId@TgBot@@@Z
	??$_Destroy_in_place@VOrderInfo@TgBot@@@std@@YAXAEAVOrderInfo@TgBot@@@Z
	??$_Destroy_in_place@VPassportData@TgBot@@@std@@YAXAEAVPassportData@TgBot@@@Z
	??$_Destroy_in_place@VPassportElementError@TgBot@@@std@@YAXAEAVPassportElementError@TgBot@@@Z
	??$_Destroy_in_place@VPassportElementErrorDataField@TgBot@@@std@@YAXAEAVPassportElementErrorDataField@TgBot@@@Z
	??$_Destroy_in_place@VPassportElementErrorFile@TgBot@@@std@@YAXAEAVPassportElementErrorFile@TgBot@@@Z
	??$_Destroy_in_place@VPassportElementErrorFiles@TgBot@@@std@@YAXAEAVPassportElementErrorFiles@TgBot@@@Z
	??$_Destroy_in_place@VPassportElementErrorFrontSide@TgBot@@@std@@YAXAEAVPassportElementErrorFrontSide@TgBot@@@Z
	??$_Destroy_in_place@VPassportElementErrorReverseSide@TgBot@@@std@@YAXAEAVPassportElementErrorReverseSide@TgBot@@@Z
	??$_Destroy_in_place@VPassportElementErrorSelfie@TgBot@@@std@@YAXAEAVPassportElementErrorSelfie@TgBot@@@Z
	??$_Destroy_in_place@VPassportElementErrorTranslationFile@TgBot@@@std@@YAXAEAVPassportElementErrorTranslationFile@TgBot@@@Z
	??$_Destroy_in_place@VPassportElementErrorTranslationFiles@TgBot@@@std@@YAXAEAVPassportElementErrorTranslationFiles@TgBot@@@Z
	??$_Destroy_in_place@VPassportElementErrorUnspecified@TgBot@@@std@@YAXAEAVPassportElementErrorUnspecified@TgBot@@@Z
	??$_Destroy_in_place@VPassportFile@TgBot@@@std@@YAXAEAVPassportFile@TgBot@@@Z
	??$_Destroy_in_place@VPhotoSize@TgBot@@@std@@YAXAEAVPhotoSize@TgBot@@@Z
	??$_Destroy_in_place@VPoll@TgBot@@@std@@YAXAEAVPoll@TgBot@@@Z
	??$_Destroy_in_place@VPollAnswer@TgBot@@@std@@YAXAEAVPollAnswer@TgBot@@@Z
	??$_Destroy_in_place@VPollOption@TgBot@@@std@@YAXAEAVPollOption@TgBot@@@Z
	??$_Destroy_in_place@VPreCheckoutQuery@TgBot@@@std@@YAXAEAVPreCheckoutQuery@TgBot@@@Z
	??$_Destroy_in_place@VProximityAlertTriggered@TgBot@@@std@@YAXAEAVProximityAlertTriggered@TgBot@@@Z
	??$_Destroy_in_place@VReplyKeyboardMarkup@TgBot@@@std@@YAXAEAVReplyKeyboardMarkup@TgBot@@@Z
	??$_Destroy_in_place@VReplyKeyboardRemove@TgBot@@@std@@YAXAEAVReplyKeyboardRemove@TgBot@@@Z
	??$_Destroy_in_place@VResponseParameters@TgBot@@@std@@YAXAEAVResponseParameters@TgBot@@@Z
	??$_Destroy_in_place@VSentWebAppMessage@TgBot@@@std@@YAXAEAVSentWebAppMessage@TgBot@@@Z
	??$_Destroy_in_place@VShippingOption@TgBot@@@std@@YAXAEAVShippingOption@TgBot@@@Z
	??$_Destroy_in_place@VShippingQuery@TgBot@@@std@@YAXAEAVShippingQuery@TgBot@@@Z
	??$_Destroy_in_place@VSticker@TgBot@@@std@@YAXAEAVSticker@TgBot@@@Z
	??$_Destroy_in_place@VStickerSet@TgBot@@@std@@YAXAEAVStickerSet@TgBot@@@Z
	??$_Destroy_in_place@VSuccessfulPayment@TgBot@@@std@@YAXAEAVSuccessfulPayment@TgBot@@@Z
	??$_Destroy_in_place@VUpdate@TgBot@@@std@@YAXAEAVUpdate@TgBot@@@Z
	??$_Destroy_in_place@VUser@TgBot@@@std@@YAXAEAVUser@TgBot@@@Z
	??$_Destroy_in_place@VUserProfilePhotos@TgBot@@@std@@YAXAEAVUserProfilePhotos@TgBot@@@Z
	??$_Destroy_in_place@VUserShared@TgBot@@@std@@YAXAEAVUserShared@TgBot@@@Z
	??$_Destroy_in_place@VVenue@TgBot@@@std@@YAXAEAVVenue@TgBot@@@Z
	??$_Destroy_in_place@VVideo@TgBot@@@std@@YAXAEAVVideo@TgBot@@@Z
	??$_Destroy_in_place@VVideoChatEnded@TgBot@@@std@@YAXAEAVVideoChatEnded@TgBot@@@Z
	??$_Destroy_in_place@VVideoChatParticipantsInvited@TgBot@@@std@@YAXAEAVVideoChatParticipantsInvited@TgBot@@@Z
	??$_Destroy_in_place@VVideoChatScheduled@TgBot@@@std@@YAXAEAVVideoChatScheduled@TgBot@@@Z
	??$_Destroy_in_place@VVideoChatStarted@TgBot@@@std@@YAXAEAVVideoChatStarted@TgBot@@@Z
	??$_Destroy_in_place@VVideoNote@TgBot@@@std@@YAXAEAVVideoNote@TgBot@@@Z
	??$_Destroy_in_place@VVoice@TgBot@@@std@@YAXAEAVVoice@TgBot@@@Z
	??$_Destroy_in_place@VWebAppData@TgBot@@@std@@YAXAEAVWebAppData@TgBot@@@Z
	??$_Destroy_in_place@VWebAppInfo@TgBot@@@std@@YAXAEAVWebAppInfo@TgBot@@@Z
	??$_Destroy_in_place@VWebhookInfo@TgBot@@@std@@YAXAEAVWebhookInfo@TgBot@@@Z
	??$_Destroy_in_place@VWriteAccessAllowed@TgBot@@@std@@YAXAEAVWriteAccessAllowed@TgBot@@@Z
	??$_Destroy_range@PEAV?$_List_unchecked_iterator@V?$_List_val@U?$_List_simple_types@U?$pair@$$CBV?$basic_string@DU?$char_traits@D@std@@V?$allocator@D@2@@std@@V12@@std@@@std@@@std@@@std@@PEAV12@@std@@YAXPEAV?$_List_unchecked_iterator@V?$_List_val@U?$_List_simple_types@U?$pair@$$CBV?$basic_string@DU?$char_traits@D@std@@V?$allocator@D@2@@std@@V12@@std@@@std@@@std@@@0@QEAV10@@Z
	??$_Destroy_range@PEAV?$_List_unchecked_iterator@V?$_List_val@U?$_List_simple_types@U?$pair@$$CBV?$basic_string@DU?$char_traits@D@std@@V?$allocator@D@2@@std@@V?$function@$$A6AXV?$shared_ptr@VMessage@TgBot@@@std@@@Z@2@@std@@@std@@@std@@@std@@PEAV12@@std@@YAXPEAV?$_List_unchecked_iterator@V?$_List_val@U?$_List_simple_types@U?$pair@$$CBV?$basic_string@DU?$char_traits@D@std@@V?$allocator@D@2@@std@@V?$function@$$A6AXV?$shared_ptr@VMessage@TgBot@@@std@@@Z@2@@std@@@std@@@std@@@0@QEAV10@@Z
	??$_Destroy_range@V?$allocator@E@std@@@std@@YAXPEAEQEAEAEAV?$allocator@E@0@@Z
	??$_Destroy_range@V?$allocator@H@std@@@std@@YAXPEAHQEAHAEAV?$allocator@H@0@@Z
	??$_Destroy_range@V?$allocator@Uheap_entry@?$timer_queue@Uforwarding_posix_time_traits@detail@asio@boost@@@detail@asio@boost@@@std@@@std@@YAXPEAUheap_entry@?$timer_queue@Uforwarding_posix_time_traits@detail@asio@boost@@@detail@asio@boost@@QEAU12345@AEAV?$allocator@Uheap_entry@?$timer_queue@Uforwarding_posix_time_traits@detail@asio@boost@@@detail@asio@boost@@@0@@Z
	??$_Destroy_range@V?$allocator@Ulayer@?$standard_callbacks@V?$basic_ptree@V?$basic_string@DU?$char_traits@D@std@@V?$allocator@D@2@@std@@V12@U?$less@V?$basic_string@DU?$char_traits@D@std@@V?$allocator@D@2@@std@@@2@@property_tree@boost@@@detail@json_parser@property_tree@boost@@@std@@@std@@YAXPEAUlayer@?$standard_callbacks@V?$basic_ptree@V?$basic_string@DU?$char_traits@D@std@@V?$allocator@D@2@@std@@V12@U?$less@V?$basic_string@DU?$char_traits@D@std@@V?$allocator@D@2@@std@@@2@@property_tree@boost@@@detail@json_parser@property_tree@boost@@QEAU123456@AEAV?$allocator@Ulayer@?$standard_callbacks@V?$basic_ptree@V?$basic_string@DU?$char_traits@D@std@@V?$allocator@D@2@@std@@V12@U?$less@V?$basic_string@DU?$char_traits@D@std@@V?$allocator@D@2@@std@@@2@@property_tree@boost@@@detail@json_parser@property_tree@boost@@@0@@Z
	??$_Destroy_range@V?$allocator@V?$basic_resolver_entry@Vtcp@ip@asio@boost@@@ip@asio@boost@@@std@@@std@@YAXPEAV?$basic_resolver_entry@Vtcp@ip@asio@boost@@@ip@asio@boost@@QEAV1234@AEAV?$allocator@V?$basic_resolver_entry@Vtcp@ip@asio@boost@@@ip@asio@boost@@@0@@Z
	??$_Destroy_range@V?$allocator@V?$basic_string@DU?$char_traits@D@std@@V?$allocator@D@2@@std@@@std@@@std@@YAXPEAV?$basic_string@DU?$char_traits@D@std@@V?$allocator@D@2@@0@QEAV10@AEAV?$allocator@V?$basic_string@DU?$char_traits@D@std@@V?$allocator@D@2@@std@@@0@@Z
	??$_Destroy_range@V?$allocator@V?$function@$$A6AXV?$shared_ptr@VCallbackQuery@TgBot@@@std@@@Z@std@@@std@@@std@@YAXPEAV?$function@$$A6AXV?$shared_ptr@VCallbackQuery@TgBot@@@std@@@Z@0@QEAV10@AEAV?$allocator@V?$function@$$A6AXV?$shared_ptr@VCallbackQuery@TgBot@@@std@@@Z@std@@@0@@Z
	??$_Destroy_range@V?$allocator@V?$function@$$A6AXV?$shared_ptr@VChatJoinRequest@TgBot@@@std@@@Z@std@@@std@@@std@@YAXPEAV?$function@$$A6AXV?$shared_ptr@VChatJoinRequest@TgBot@@@std@@@Z@0@QEAV10@AEAV?$allocator@V?$function@$$A6AXV?$shared_ptr@VChatJoinRequest@TgBot@@@std@@@Z@std@@@0@@Z
	??$_Destroy_range@V?$allocator@V?$function@$$A6AXV?$shared_ptr@VChatMemberUpdated@TgBot@@@std@@@Z@std@@@std@@@std@@YAXPEAV?$function@$$A6AXV?$shared_ptr@VChatMemberUpdated@TgBot@@@std@@@Z@0@QEAV10@AEAV?$allocator@V?$function@$$A6AXV?$shared_ptr@VChatMemberUpdated@TgBot@@@std@@@Z@std@@@0@@Z
	??$_Destroy_range@V?$allocator@V?$function@$$A6AXV?$shared_ptr@VChosenInlineResult@TgBot@@@std@@@Z@std@@@std@@@std@@YAXPEAV?$function@$$A6AXV?$shared_ptr@VChosenInlineResult@TgBot@@@std@@@Z@0@QEAV10@AEAV?$allocator@V?$function@$$A6AXV?$shared_ptr@VChosenInlineResult@TgBot@@@std@@@Z@std@@@0@@Z
	??$_Destroy_range@V?$allocator@V?$function@$$A6AXV?$shared_ptr@VInlineQuery@TgBot@@@std@@@Z@std@@@std@@@std@@YAXPEAV?$function@$$A6AXV?$shared_ptr@VInlineQuery@TgBot@@@std@@@Z@0@QEAV10@AEAV?$allocator@V?$function@$$A6AXV?$shared_ptr@VInlineQuery@TgBot@@@std@@@Z@std@@@0@@Z
	??$_Destroy_range@V?$allocator@V?$function@$$A6AXV?$shared_ptr@VMessage@TgBot@@@std@@@Z@std@@@std@@@std@@YAXPEAV?$function@$$A6AXV?$shared_ptr@VMessage@TgBot@@@std@@@Z@0@QEAV10@AEAV?$allocator@V?$function@$$A6AXV?$shared_ptr@VMessage@TgBot@@@std@@@Z@std@@@0@@Z
	??$_Destroy_range@V?$allocator@V?$function@$$A6AXV?$shared_ptr@VPoll@TgBot@@@std@@@Z@std@@@std@@@std@@YAXPEAV?$function@$$A6AXV?$shared_ptr@VPoll@TgBot@@@std@@@Z@0@QEAV10@AEAV?$allocator@V?$function@$$A6AXV?$shared_ptr@VPoll@TgBot@@@std@@@Z@std@@@0@@Z
	??$_Destroy_range@V?$allocator@V?$function@$$A6AXV?$shared_ptr@VPollAnswer@TgBot@@@std@@@Z@std@@@std@@@std@@YAXPEAV?$function@$$A6AXV?$shared_ptr@VPollAnswer@TgBot@@@std@@@Z@0@QEAV10@AEAV?$allocator@V?$function@$$A6AXV?$shared_ptr@VPollAnswer@TgBot@@@std@@@Z@std@@@0@@Z
	??$_Destroy_range@V?$allocator@V?$function@$$A6AXV?$shared_ptr@VPreCheckoutQuery@TgBot@@@std@@@Z@std@@@std@@@std@@YAXPEAV?$function@$$A6AXV?$shared_ptr@VPreCheckoutQuery@TgBot@@@std@@@Z@0@QEAV10@AEAV?$allocator@V?$function@$$A6AXV?$shared_ptr@VPreCheckoutQuery@TgBot@@@std@@@Z@std@@@0@@Z
	??$_Destroy_range@V?$allocator@V?$function@$$A6AXV?$shared_ptr@VShippingQuery@TgBot@@@std@@@Z@std@@@std@@@std@@YAXPEAV?$function@$$A6AXV?$shared_ptr@VShippingQuery@TgBot@@@std@@@Z@0@QEAV10@AEAV?$allocator@V?$function@$$A6AXV?$shared_ptr@VShippingQuery@TgBot@@@std@@@Z@std@@@0@@Z
	??$_Destroy_range@V?$allocator@V?$shared_ptr@VBotCommand@TgBot@@@std@@@std@@@std@@YAXPEAV?$shared_ptr@VBotCommand@TgBot@@@0@QEAV10@AEAV?$allocator@V?$shared_ptr@VBotCommand@TgBot@@@std@@@0@@Z
	??$_Destroy_range@V?$allocator@V?$shared_ptr@VChatMember@TgBot@@@std@@@std@@@std@@YAXPEAV?$shared_ptr@VChatMember@TgBot@@@0@QEAV10@AEAV?$allocator@V?$shared_ptr@VChatMember@TgBot@@@std@@@0@@Z
	??$_Destroy_range@V?$allocator@V?$shared_ptr@VEncryptedPassportElement@TgBot@@@std@@@std@@@std@@YAXPEAV?$shared_ptr@VEncryptedPassportElement@TgBot@@@0@QEAV10@AEAV?$allocator@V?$shared_ptr@VEncryptedPassportElement@TgBot@@@std@@@0@@Z
	??$_Destroy_range@V?$allocator@V?$shared_ptr@VGameHighScore@TgBot@@@std@@@std@@@std@@YAXPEAV?$shared_ptr@VGameHighScore@TgBot@@@0@QEAV10@AEAV?$allocator@V?$shared_ptr@VGameHighScore@TgBot@@@std@@@0@@Z
	??$_Destroy_range@V?$allocator@V?$shared_ptr@VInlineKeyboardButton@TgBot@@@std@@@std@@@std@@YAXPEAV?$shared_ptr@VInlineKeyboardButton@TgBot@@@0@QEAV10@AEAV?$allocator@V?$shared_ptr@VInlineKeyboardButton@TgBot@@@std@@@0@@Z
	??$_Destroy_range@V?$allocator@V?$shared_ptr@VKeyboardButton@TgBot@@@std@@@std@@@std@@YAXPEAV?$shared_ptr@VKeyboardButton@TgBot@@@0@QEAV10@AEAV?$allocator@V?$shared_ptr@VKeyboardButton@TgBot@@@std@@@0@@Z
	??$_Destroy_range@V?$allocator@V?$shared_ptr@VLabeledPrice@TgBot@@@std@@@std@@@std@@YAXPEAV?$shared_ptr@VLabeledPrice@TgBot@@@0@QEAV10@AEAV?$allocator@V?$shared_ptr@VLabeledPrice@TgBot@@@std@@@0@@Z
	??$_Destroy_range@V?$allocator@V?$shared_ptr@VMessage@TgBot@@@std@@@std@@@std@@YAXPEAV?$shared_ptr@VMessage@TgBot@@@0@QEAV10@AEAV?$allocator@V?$shared_ptr@VMessage@TgBot@@@std@@@0@@Z
	??$_Destroy_range@V?$allocator@V?$shared_ptr@VMessageEntity@TgBot@@@std@@@std@@@std@@YAXPEAV?$shared_ptr@VMessageEntity@TgBot@@@0@QEAV10@AEAV?$allocator@V?$shared_ptr@VMessageEntity@TgBot@@@std@@@0@@Z
	??$_Destroy_range@V?$allocator@V?$shared_ptr@VPassportFile@TgBot@@@std@@@std@@@std@@YAXPEAV?$shared_ptr@VPassportFile@TgBot@@@0@QEAV10@AEAV?$allocator@V?$shared_ptr@VPassportFile@TgBot@@@std@@@0@@Z
	??$_Destroy_range@V?$allocator@V?$shared_ptr@VPhotoSize@TgBot@@@std@@@std@@@std@@YAXPEAV?$shared_ptr@VPhotoSize@TgBot@@@0@QEAV10@AEAV?$allocator@V?$shared_ptr@VPhotoSize@TgBot@@@std@@@0@@Z
	??$_Destroy_range@V?$allocator@V?$shared_ptr@VPollOption@TgBot@@@std@@@std@@@std@@YAXPEAV?$shared_ptr@VPollOption@TgBot@@@0@QEAV10@AEAV?$allocator@V?$shared_ptr@VPollOption@TgBot@@@std@@@0@@Z
	??$_Destroy_range@V?$allocator@V?$shared_ptr@VSticker@TgBot@@@std@@@std@@@std@@YAXPEAV?$shared_ptr@VSticker@TgBot@@@0@QEAV10@AEAV?$allocator@V?$shared_ptr@VSticker@TgBot@@@std@@@0@@Z
	??$_Destroy_range@V?$allocator@V?$shared_ptr@VUpdate@TgBot@@@std@@@std@@@std@@YAXPEAV?$shared_ptr@VUpdate@TgBot@@@0@QEAV10@AEAV?$allocator@V?$shared_ptr@VUpdate@TgBot@@@std@@@0@@Z
	??$_Destroy_range@V?$allocator@V?$shared_ptr@VUser@TgBot@@@std@@@std@@@std@@YAXPEAV?$shared_ptr@VUser@TgBot@@@0@QEAV10@AEAV?$allocator@V?$shared_ptr@VUser@TgBot@@@std@@@0@@Z
	??$_Destroy_range@V?$allocator@V?$vector@V?$shared_ptr@VInlineKeyboardButton@TgBot@@@std@@V?$allocator@V?$shared_ptr@VInlineKeyboardButton@TgBot@@@std@@@2@@std@@@std@@@std@@YAXPEAV?$vector@V?$shared_ptr@VInlineKeyboardButton@TgBot@@@std@@V?$allocator@V?$shared_ptr@VInlineKeyboardButton@TgBot@@@std@@@2@@0@QEAV10@AEAV?$allocator@V?$vector@V?$shared_ptr@VInlineKeyboardButton@TgBot@@@std@@V?$allocator@V?$shared_ptr@VInlineKeyboardButton@TgBot@@@std@@@2@@std@@@0@@Z
	??$_Destroy_range@V?$allocator@V?$vector@V?$shared_ptr@VKeyboardButton@TgBot@@@std@@V?$allocator@V?$shared_ptr@VKeyboardButton@TgBot@@@std@@@2@@std@@@std@@@std@@YAXPEAV?$vector@V?$shared_ptr@VKeyboardButton@TgBot@@@std@@V?$allocator@V?$shared_ptr@VKeyboardButton@TgBot@@@std@@@2@@0@QEAV10@AEAV?$allocator@V?$vector@V?$shared_ptr@VKeyboardButton@TgBot@@@std@@V?$allocator@V?$shared_ptr@VKeyboardButton@TgBot@@@std@@@2@@std@@@0@@Z
	??$_Destroy_range@V?$allocator@V?$vector@V?$shared_ptr@VPhotoSize@TgBot@@@std@@V?$allocator@V?$shared_ptr@VPhotoSize@TgBot@@@std@@@2@@std@@@std@@@std@@YAXPEAV?$vector@V?$shared_ptr@VPhotoSize@TgBot@@@std@@V?$allocator@V?$shared_ptr@VPhotoSize@TgBot@@@std@@@2@@0@QEAV10@AEAV?$allocator@V?$vector@V?$shared_ptr@VPhotoSize@TgBot@@@std@@V?$allocator@V?$shared_ptr@VPhotoSize@TgBot@@@std@@@2@@std@@@0@@Z
	??$_Destroy_range@V?$allocator@VHttpReqArg@TgBot@@@std@@@std@@YAXPEAVHttpReqArg@TgBot@@QEAV12@AEAV?$allocator@VHttpReqArg@TgBot@@@0@@Z
	??$_Emplace_back@$$V@?$_Uninitialized_backout_al@V?$allocator@E@std@@@std@@QEAAXXZ
	??$_Emplace_back@AEAV?$function@$$A6AXV?$shared_ptr@VCallbackQuery@TgBot@@@std@@@Z@std@@@?$_Uninitialized_backout_al@V?$allocator@V?$function@$$A6AXV?$shared_ptr@VCallbackQuery@TgBot@@@std@@@Z@std@@@std@@@std@@QEAAXAEAV?$function@$$A6AXV?$shared_ptr@VCallbackQuery@TgBot@@@std@@@Z@1@@Z
	??$_Emplace_back@AEAV?$function@$$A6AXV?$shared_ptr@VChatJoinRequest@TgBot@@@std@@@Z@std@@@?$_Uninitialized_backout_al@V?$allocator@V?$function@$$A6AXV?$shared_ptr@VChatJoinRequest@TgBot@@@std@@@Z@std@@@std@@@std@@QEAAXAEAV?$function@$$A6AXV?$shared_ptr@VChatJoinRequest@TgBot@@@std@@@Z@1@@Z
	??$_Emplace_back@AEAV?$function@$$A6AXV?$shared_ptr@VChatMemberUpdated@TgBot@@@std@@@Z@std@@@?$_Uninitialized_backout_al@V?$allocator@V?$function@$$A6AXV?$shared_ptr@VChatMemberUpdated@TgBot@@@std@@@Z@std@@@std@@@std@@QEAAXAEAV?$function@$$A6AXV?$shared_ptr@VChatMemberUpdated@TgBot@@@std@@@Z@1@@Z
	??$_Emplace_back@AEAV?$function@$$A6AXV?$shared_ptr@VChosenInlineResult@TgBot@@@std@@@Z@std@@@?$_Uninitialized_backout_al@V?$allocator@V?$function@$$A6AXV?$shared_ptr@VChosenInlineResult@TgBot@@@std@@@Z@std@@@std@@@std@@QEAAXAEAV?$function@$$A6AXV?$shared_ptr@VChosenInlineResult@TgBot@@@std@@@Z@1@@Z
	??$_Emplace_back@AEAV?$function@$$A6AXV?$shared_ptr@VInlineQuery@TgBot@@@std@@@Z@std@@@?$_Uninitialized_backout_al@V?$allocator@V?$function@$$A6AXV?$shared_ptr@VInlineQuery@TgBot@@@std@@@Z@std@@@std@@@std@@QEAAXAEAV?$function@$$A6AXV?$shared_ptr@VInlineQuery@TgBot@@@std@@@Z@1@@Z
	??$_Emplace_back@AEAV?$function@$$A6AXV?$shared_ptr@VMessage@TgBot@@@std@@@Z@std@@@?$_Uninitialized_backout_al@V?$allocator@V?$function@$$A6AXV?$shared_ptr@VMessage@TgBot@@@std@@@Z@std@@@std@@@std@@QEAAXAEAV?$function@$$A6AXV?$shared_ptr@VMessage@TgBot@@@std@@@Z@1@@Z
	??$_Emplace_back@AEAV?$function@$$A6AXV?$shared_ptr@VPoll@TgBot@@@std@@@Z@std@@@?$_Uninitialized_backout_al@V?$allocator@V?$function@$$A6AXV?$shared_ptr@VPoll@TgBot@@@std@@@Z@std@@@std@@@std@@QEAAXAEAV?$function@$$A6AXV?$shared_ptr@VPoll@TgBot@@@std@@@Z@1@@Z
	??$_Emplace_back@AEAV?$function@$$A6AXV?$shared_ptr@VPollAnswer@TgBot@@@std@@@Z@std@@@?$_Uninitialized_backout_al@V?$allocator@V?$function@$$A6AXV?$shared_ptr@VPollAnswer@TgBot@@@std@@@Z@std@@@std@@@std@@QEAAXAEAV?$function@$$A6AXV?$shared_ptr@VPollAnswer@TgBot@@@std@@@Z@1@@Z
	??$_Emplace_back@AEAV?$function@$$A6AXV?$shared_ptr@VPreCheckoutQuery@TgBot@@@std@@@Z@std@@@?$_Uninitialized_backout_al@V?$allocator@V?$function@$$A6AXV?$shared_ptr@VPreCheckoutQuery@TgBot@@@std@@@Z@std@@@std@@@std@@QEAAXAEAV?$function@$$A6AXV?$shared_ptr@VPreCheckoutQuery@TgBot@@@std@@@Z@1@@Z
	??$_Emplace_back@AEAV?$function@$$A6AXV?$shared_ptr@VShippingQuery@TgBot@@@std@@@Z@std@@@?$_Uninitialized_backout_al@V?$allocator@V?$function@$$A6AXV?$shared_ptr@VShippingQuery@TgBot@@@std@@@Z@std@@@std@@@std@@QEAAXAEAV?$function@$$A6AXV?$shared_ptr@VShippingQuery@TgBot@@@std@@@Z@1@@Z
	??$_Emplace_back@AEAV?$shared_ptr@VPhotoSize@TgBot@@@std@@@?$_Uninitialized_backout_al@V?$allocator@V?$shared_ptr@VPhotoSize@TgBot@@@std@@@std@@@std@@QEAAXAEAV?$shared_ptr@VPhotoSize@TgBot@@@1@@Z
	??$_Emplace_back@AEAV?$shared_ptr@VUpdate@TgBot@@@std@@@?$_Uninitialized_backout_al@V?$allocator@V?$shared_ptr@VUpdate@TgBot@@@std@@@std@@@std@@QEAAXAEAV?$shared_ptr@VUpdate@TgBot@@@1@@Z
	??$_Emplace_back@AEBV?$_List_unchecked_iterator@V?$_List_val@U?$_List_simple_types@U?$pair@$$CBV?$basic_string@DU?$char_traits@D@std@@V?$allocator@D@2@@std@@V12@@std@@@std@@@std@@@std@@@?$_Uninitialized_backout@PEAV?$_List_unchecked_iterator@V?$_List_val@U?$_List_simple_types@U?$pair@$$CBV?$basic_string@DU?$char_traits@D@std@@V?$allocator@D@2@@std@@V12@@std@@@std@@@std@@@std@@@std@@QEAAXAEBV?$_List_unchecked_iterator@V?$_List_val@U?$_List_simple_types@U?$pair@$$CBV?$basic_string@DU?$char_traits@D@std@@V?$allocator@D@2@@std@@V12@@std@@@std@@@std@@@1@@Z
	??$_Emplace_back@AEBV?$_List_unchecked_iterator@V?$_List_val@U?$_List_simple_types@U?$pair@$$CBV?$basic_string@DU?$char_traits@D@std@@V?$allocator@D@2@@std@@V?$function@$$A6AXV?$shared_ptr@VMessage@TgBot@@@std@@@Z@2@@std@@@std@@@std@@@std@@@?$_Uninitialized_backout@PEAV?$_List_unchecked_iterator@V?$_List_val@U?$_List_simple_types@U?$pair@$$CBV?$basic_string@DU?$char_traits@D@std@@V?$allocator@D@2@@std@@V?$function@$$A6AXV?$shared_ptr@VMessage@TgBot@@@std@@@Z@2@@std@@@std@@@std@@@std@@@std@@QEAAXAEBV?$_List_unchecked_iterator@V?$_List_val@U?$_List_simple_types@U?$pair@$$CBV?$basic_string@DU?$char_traits@D@std@@V?$allocator@D@2@@std@@V?$function@$$A6AXV?$shared_ptr@VMessage@TgBot@@@std@@@Z@2@@std@@@std@@@std@@@1@@Z
	??$_Emplace_back@H@?$_Uninitialized_backout_al@V?$allocator@H@std@@@std@@QEAAX$$QEAH@Z
	??$_Emplace_back@Ulayer@?$standard_callbacks@V?$basic_ptree@V?$basic_string@DU?$char_traits@D@std@@V?$allocator@D@2@@std@@V12@U?$less@V?$basic_string@DU?$char_traits@D@std@@V?$allocator@D@2@@std@@@2@@property_tree@boost@@@detail@json_parser@property_tree@boost@@@?$_Uninitialized_backout_al@V?$allocator@Ulayer@?$standard_callbacks@V?$basic_ptree@V?$basic_string@DU?$char_traits@D@std@@V?$allocator@D@2@@std@@V12@U?$less@V?$basic_string@DU?$char_traits@D@std@@V?$allocator@D@2@@std@@@2@@property_tree@boost@@@detail@json_parser@property_tree@boost@@@std@@@std@@QEAAX$$QEAUlayer@?$standard_callbacks@V?$basic_ptree@V?$basic_string@DU?$char_traits@D@std@@V?$allocator@D@2@@std@@V12@U?$less@V?$basic_string@DU?$char_traits@D@std@@V?$allocator@D@2@@std@@@2@@property_tree@boost@@@detail@json_parser@property_tree@boost@@@Z
	??$_Emplace_back@V?$basic_resolver_entry@Vtcp@ip@asio@boost@@@ip@asio@boost@@@?$_Uninitialized_backout_al@V?$allocator@V?$basic_resolver_entry@Vtcp@ip@asio@boost@@@ip@asio@boost@@@std@@@std@@QEAAX$$QEAV?$basic_resolver_entry@Vtcp@ip@asio@boost@@@ip@asio@boost@@@Z
	??$_Emplace_back@V?$basic_string@DU?$char_traits@D@std@@V?$allocator@D@2@@std@@@?$_Uninitialized_backout_al@V?$allocator@V?$basic_string@DU?$char_traits@D@std@@V?$allocator@D@2@@std@@@std@@@std@@QEAAX$$QEAV?$basic_string@DU?$char_traits@D@std@@V?$allocator@D@2@@1@@Z
	??$_Emplace_back@V?$function@$$A6AXV?$shared_ptr@VCallbackQuery@TgBot@@@std@@@Z@std@@@?$_Uninitialized_backout_al@V?$allocator@V?$function@$$A6AXV?$shared_ptr@VCallbackQuery@TgBot@@@std@@@Z@std@@@std@@@std@@QEAAX$$QEAV?$function@$$A6AXV?$shared_ptr@VCallbackQuery@TgBot@@@std@@@Z@1@@Z
	??$_Emplace_back@V?$function@$$A6AXV?$shared_ptr@VChatJoinRequest@TgBot@@@std@@@Z@std@@@?$_Uninitialized_backout_al@V?$allocator@V?$function@$$A6AXV?$shared_ptr@VChatJoinRequest@TgBot@@@std@@@Z@std@@@std@@@std@@QEAAX$$QEAV?$function@$$A6AXV?$shared_ptr@VChatJoinRequest@TgBot@@@std@@@Z@1@@Z
	??$_Emplace_back@V?$function@$$A6AXV?$shared_ptr@VChatMemberUpdated@TgBot@@@std@@@Z@std@@@?$_Uninitialized_backout_al@V?$allocator@V?$function@$$A6AXV?$shared_ptr@VChatMemberUpdated@TgBot@@@std@@@Z@std@@@std@@@std@@QEAAX$$QEAV?$function@$$A6AXV?$shared_ptr@VChatMemberUpdated@TgBot@@@std@@@Z@1@@Z
	??$_Emplace_back@V?$function@$$A6AXV?$shared_ptr@VChosenInlineResult@TgBot@@@std@@@Z@std@@@?$_Uninitialized_backout_al@V?$allocator@V?$function@$$A6AXV?$shared_ptr@VChosenInlineResult@TgBot@@@std@@@Z@std@@@std@@@std@@QEAAX$$QEAV?$function@$$A6AXV?$shared_ptr@VChosenInlineResult@TgBot@@@std@@@Z@1@@Z
	??$_Emplace_back@V?$function@$$A6AXV?$shared_ptr@VInlineQuery@TgBot@@@std@@@Z@std@@@?$_Uninitialized_backout_al@V?$allocator@V?$function@$$A6AXV?$shared_ptr@VInlineQuery@TgBot@@@std@@@Z@std@@@std@@@std@@QEAAX$$QEAV?$function@$$A6AXV?$shared_ptr@VInlineQuery@TgBot@@@std@@@Z@1@@Z
	??$_Emplace_back@V?$function@$$A6AXV?$shared_ptr@VMessage@TgBot@@@std@@@Z@std@@@?$_Uninitialized_backout_al@V?$allocator@V?$function@$$A6AXV?$shared_ptr@VMessage@TgBot@@@std@@@Z@std@@@std@@@std@@QEAAX$$QEAV?$function@$$A6AXV?$shared_ptr@VMessage@TgBot@@@std@@@Z@1@@Z
	??$_Emplace_back@V?$function@$$A6AXV?$shared_ptr@VPoll@TgBot@@@std@@@Z@std@@@?$_Uninitialized_backout_al@V?$allocator@V?$function@$$A6AXV?$shared_ptr@VPoll@TgBot@@@std@@@Z@std@@@std@@@std@@QEAAX$$QEAV?$function@$$A6AXV?$shared_ptr@VPoll@TgBot@@@std@@@Z@1@@Z
	??$_Emplace_back@V?$function@$$A6AXV?$shared_ptr@VPollAnswer@TgBot@@@std@@@Z@std@@@?$_Uninitialized_backout_al@V?$allocator@V?$function@$$A6AXV?$shared_ptr@VPollAnswer@TgBot@@@std@@@Z@std@@@std@@@std@@QEAAX$$QEAV?$function@$$A6AXV?$shared_ptr@VPollAnswer@TgBot@@@std@@@Z@1@@Z
	??$_Emplace_back@V?$function@$$A6AXV?$shared_ptr@VPreCheckoutQuery@TgBot@@@std@@@Z@std@@@?$_Uninitialized_backout_al@V?$allocator@V?$function@$$A6AXV?$shared_ptr@VPreCheckoutQuery@TgBot@@@std@@@Z@std@@@std@@@std@@QEAAX$$QEAV?$function@$$A6AXV?$shared_ptr@VPreCheckoutQuery@TgBot@@@std@@@Z@1@@Z
	??$_Emplace_back@V?$function@$$A6AXV?$shared_ptr@VShippingQuery@TgBot@@@std@@@Z@std@@@?$_Uninitialized_backout_al@V?$allocator@V?$function@$$A6AXV?$shared_ptr@VShippingQuery@TgBot@@@std@@@Z@std@@@std@@@std@@QEAAX$$QEAV?$function@$$A6AXV?$shared_ptr@VShippingQuery@TgBot@@@std@@@Z@1@@Z
	??$_Emplace_back@V?$shared_ptr@VBotCommand@TgBot@@@std@@@?$_Uninitialized_backout_al@V?$allocator@V?$shared_ptr@VBotCommand@TgBot@@@std@@@std@@@std@@QEAAX$$QEAV?$shared_ptr@VBotCommand@TgBot@@@1@@Z
	??$_Emplace_back@V?$shared_ptr@VChatMember@TgBot@@@std@@@?$_Uninitialized_backout_al@V?$allocator@V?$shared_ptr@VChatMember@TgBot@@@std@@@std@@@std@@QEAAX$$QEAV?$shared_ptr@VChatMember@TgBot@@@1@@Z
	??$_Emplace_back@V?$shared_ptr@VEncryptedPassportElement@TgBot@@@std@@@?$_Uninitialized_backout_al@V?$allocator@V?$shared_ptr@VEncryptedPassportElement@TgBot@@@std@@@std@@@std@@QEAAX$$QEAV?$shared_ptr@VEncryptedPassportElement@TgBot@@@1@@Z
	??$_Emplace_back@V?$shared_ptr@VGameHighScore@TgBot@@@std@@@?$_Uninitialized_backout_al@V?$allocator@V?$shared_ptr@VGameHighScore@TgBot@@@std@@@std@@@std@@QEAAX$$QEAV?$shared_ptr@VGameHighScore@TgBot@@@1@@Z
	??$_Emplace_back@V?$shared_ptr@VInlineKeyboardButton@TgBot@@@std@@@?$_Uninitialized_backout_al@V?$allocator@V?$shared_ptr@VInlineKeyboardButton@TgBot@@@std@@@std@@@std@@QEAAX$$QEAV?$shared_ptr@VInlineKeyboardButton@TgBot@@@1@@Z
	??$_Emplace_back@V?$shared_ptr@VKeyboardButton@TgBot@@@std@@@?$_Uninitialized_backout_al@V?$allocator@V?$shared_ptr@VKeyboardButton@TgBot@@@std@@@std@@@std@@QEAAX$$QEAV?$shared_ptr@VKeyboardButton@TgBot@@@1@@Z
	??$_Emplace_back@V?$shared_ptr@VLabeledPrice@TgBot@@@std@@@?$_Uninitialized_backout_al@V?$allocator@V?$shared_ptr@VLabeledPrice@TgBot@@@std@@@std@@@std@@QEAAX$$QEAV?$shared_ptr@VLabeledPrice@TgBot@@@1@@Z
	??$_Emplace_back@V?$shared_ptr@VMessage@TgBot@@@std@@@?$_Uninitialized_backout_al@V?$allocator@V?$shared_ptr@VMessage@TgBot@@@std@@@std@@@std@@QEAAX$$QEAV?$shared_ptr@VMessage@TgBot@@@1@@Z
	??$_Emplace_back@V?$shared_ptr@VMessageEntity@TgBot@@@std@@@?$_Uninitialized_backout_al@V?$allocator@V?$shared_ptr@VMessageEntity@TgBot@@@std@@@std@@@std@@QEAAX$$QEAV?$shared_ptr@VMessageEntity@TgBot@@@1@@Z
	??$_Emplace_back@V?$shared_ptr@VPassportFile@TgBot@@@std@@@?$_Uninitialized_backout_al@V?$allocator@V?$shared_ptr@VPassportFile@TgBot@@@std@@@std@@@std@@QEAAX$$QEAV?$shared_ptr@VPassportFile@TgBot@@@1@@Z
	??$_Emplace_back@V?$shared_ptr@VPhotoSize@TgBot@@@std@@@?$_Uninitialized_backout_al@V?$allocator@V?$shared_ptr@VPhotoSize@TgBot@@@std@@@std@@@std@@QEAAX$$QEAV?$shared_ptr@VPhotoSize@TgBot@@@1@@Z
	??$_Emplace_back@V?$shared_ptr@VPollOption@TgBot@@@std@@@?$_Uninitialized_backout_al@V?$allocator@V?$shared_ptr@VPollOption@TgBot@@@std@@@std@@@std@@QEAAX$$QEAV?$shared_ptr@VPollOption@TgBot@@@1@@Z
	??$_Emplace_back@V?$shared_ptr@VSticker@TgBot@@@std@@@?$_Uninitialized_backout_al@V?$allocator@V?$shared_ptr@VSticker@TgBot@@@std@@@std@@@std@@QEAAX$$QEAV?$shared_ptr@VSticker@TgBot@@@1@@Z
	??$_Emplace_back@V?$shared_ptr@VUpdate@TgBot@@@std@@@?$_Uninitialized_backout_al@V?$allocator@V?$shared_ptr@VUpdate@TgBot@@@std@@@std@@@std@@QEAAX$$QEAV?$shared_ptr@VUpdate@TgBot@@@1@@Z
	??$_Emplace_back@V?$shared_ptr@VUser@TgBot@@@std@@@?$_Uninitialized_backout_al@V?$allocator@V?$shared_ptr@VUser@TgBot@@@std@@@std@@@std@@QEAAX$$QEAV?$shared_ptr@VUser@TgBot@@@1@@Z
	??$_Emplace_back@V?$vector@V?$shared_ptr@VInlineKeyboardButton@TgBot@@@std@@V?$allocator@V?$shared_ptr@VInlineKeyboardButton@TgBot@@@std@@@2@@std@@@?$_Uninitialized_backout_al@V?$allocator@V?$vector@V?$shared_ptr@VInlineKeyboardButton@TgBot@@@std@@V?$allocator@V?$shared_ptr@VInlineKeyboardButton@TgBot@@@std@@@2@@std@@@std@@@std@@QEAAX$$QEAV?$vector@V?$shared_ptr@VInlineKeyboardButton@TgBot@@@std@@V?$allocator@V?$shared_ptr@VInlineKeyboardButton@TgBot@@@std@@@2@@1@@Z
	??$_Emplace_back@V?$vector@V?$shared_ptr@VKeyboardButton@TgBot@@@std@@V?$allocator@V?$shared_ptr@VKeyboardButton@TgBot@@@std@@@2@@std@@@?$_Uninitialized_backout_al@V?$allocator@V?$vector@V?$shared_ptr@VKeyboardButton@TgBot@@@std@@V?$allocator@V?$shared_ptr@VKeyboardButton@TgBot@@@std@@@2@@std@@@std@@@std@@QEAAX$$QEAV?$vector@V?$shared_ptr@VKeyboardButton@TgBot@@@std@@V?$allocator@V?$shared_ptr@VKeyboardButton@TgBot@@@std@@@2@@1@@Z
	??$_Emplace_back@V?$vector@V?$shared_ptr@VPhotoSize@TgBot@@@std@@V?$allocator@V?$shared_ptr@VPhotoSize@TgBot@@@std@@@2@@std@@@?$_Uninitialized_backout_al@V?$allocator@V?$vector@V?$shared_ptr@VPhotoSize@TgBot@@@std@@V?$allocator@V?$shared_ptr@VPhotoSize@TgBot@@@std@@@2@@std@@@std@@@std@@QEAAX$$QEAV?$vector@V?$shared_ptr@VPhotoSize@TgBot@@@std@@V?$allocator@V?$shared_ptr@VPhotoSize@TgBot@@@std@@@2@@1@@Z
	??$_Emplace_back@VHttpReqArg@TgBot@@@?$_Uninitialized_backout_al@V?$allocator@VHttpReqArg@TgBot@@@std@@@std@@QEAAX$$QEAVHttpReqArg@TgBot@@@Z
	??$_Emplace_back_with_unused_capacity@AEAY02$$CBDAEA_N@?$vector@VHttpReqArg@TgBot@@V?$allocator@VHttpReqArg@TgBot@@@std@@@std@@AEAAAEAVHttpReqArg@TgBot@@AEAY02$$CBDAEA_N@Z
	??$_Emplace_back_with_unused_capacity@AEAY03$$CBDAEBV?$basic_string@DU?$char_traits@D@std@@V?$allocator@D@2@@std@@@?$vector@VHttpReqArg@TgBot@@V?$allocator@VHttpReqArg@TgBot@@@std@@@std@@AEAAAEAVHttpReqArg@TgBot@@AEAY03$$CBDAEBV?$basic_string@DU?$char_traits@D@std@@V?$allocator@D@2@@1@@Z
	??$_Emplace_back_with_unused_capacity@AEAY04$$CBDAEAV?$basic_string@DU?$char_traits@D@std@@V?$allocator@D@2@@std@@@?$vector@VHttpReqArg@TgBot@@V?$allocator@VHttpReqArg@TgBot@@@std@@@std@@AEAAAEAVHttpReqArg@TgBot@@AEAY04$$CBDAEAV?$basic_string@DU?$char_traits@D@std@@V?$allocator@D@2@@1@@Z
	??$_Emplace_back_with_unused_capacity@AEAY04$$CBDAEBV?$basic_string@DU?$char_traits@D@std@@V?$allocator@D@2@@std@@@?$vector@VHttpReqArg@TgBot@@V?$allocator@VHttpReqArg@TgBot@@@std@@@std@@AEAAAEAVHttpReqArg@TgBot@@AEAY04$$CBDAEBV?$basic_string@DU?$char_traits@D@std@@V?$allocator@D@2@@1@@Z
	??$_Emplace_back_with_unused_capacity@AEAY05$$CBDAEAH@?$vector@VHttpReqArg@TgBot@@V?$allocator@VHttpReqArg@TgBot@@@std@@@std@@AEAAAEAVHttpReqArg@TgBot@@AEAY05$$CBDAEAH@Z
	??$_Emplace_back_with_unused_capacity@AEAY05$$CBDAEAV?$basic_string@DU?$char_traits@D@std@@V?$allocator@D@2@@std@@@?$vector@VHttpReqArg@TgBot@@V?$allocator@VHttpReqArg@TgBot@@@std@@@std@@AEAAAEAVHttpReqArg@TgBot@@AEAY05$$CBDAEAV?$basic_string@DU?$char_traits@D@std@@V?$allocator@D@2@@1@@Z
	??$_Emplace_back_with_unused_capacity@AEAY05$$CBDAEAV?$basic_string@DU?$char_traits@D@std@@V?$allocator@D@2@@std@@_NAEAV12@AEAV12@@?$vector@VHttpReqArg@TgBot@@V?$allocator@VHttpReqArg@TgBot@@@std@@@std@@AEAAAEAVHttpReqArg@TgBot@@AEAY05$$CBDAEAV?$basic_string@DU?$char_traits@D@std@@V?$allocator@D@2@@1@$$QEA_N11@Z
	??$_Emplace_back_with_unused_capacity@AEAY05$$CBDAEA_N@?$vector@VHttpReqArg@TgBot@@V?$allocator@VHttpReqArg@TgBot@@@std@@@std@@AEAAAEAVHttpReqArg@TgBot@@AEAY05$$CBDAEA_N@Z
	??$_Emplace_back_with_unused_capacity@AEAY05$$CBDAEBH@?$vector@VHttpReqArg@TgBot@@V?$allocator@VHttpReqArg@TgBot@@@std@@@std@@AEAAAEAVHttpReqArg@TgBot@@AEAY05$$CBDAEBH@Z
	??$_Emplace_back_with_unused_capacity@AEAY05$$CBDAEBV?$basic_string@DU?$char_traits@D@std@@V?$allocator@D@2@@std@@@?$vector@VHttpReqArg@TgBot@@V?$allocator@VHttpReqArg@TgBot@@@std@@@std@@AEAAAEAVHttpReqArg@TgBot@@AEAY05$$CBDAEBV?$basic_string@DU?$char_traits@D@std@@V?$allocator@D@2@@1@@Z
	??$_Emplace_back_with_unused_capacity@AEAY05$$CBDV?$basic_string@DU?$char_traits@D@std@@V?$allocator@D@2@@std@@@?$vector@VHttpReqArg@TgBot@@V?$allocator@VHttpReqArg@TgBot@@@std@@@std@@AEAAAEAVHttpReqArg@TgBot@@AEAY05$$CBD$$QEAV?$basic_string@DU?$char_traits@D@std@@V?$allocator@D@2@@1@@Z
	??$_Emplace_back_with_unused_capacity@AEAY06$$CBDAEAH@?$vector@VHttpReqArg@TgBot@@V?$allocator@VHttpReqArg@TgBot@@@std@@@std@@AEAAAEAVHttpReqArg@TgBot@@AEAY06$$CBDAEAH@Z
	??$_Emplace_back_with_unused_capacity@AEAY06$$CBDAEBV?$basic_string@DU?$char_traits@D@std@@V?$allocator@D@2@@std@@@?$vector@VHttpReqArg@TgBot@@V?$allocator@VHttpReqArg@TgBot@@@std@@@std@@AEAAAEAVHttpReqArg@TgBot@@AEAY06$$CBDAEBV?$basic_string@DU?$char_traits@D@std@@V?$allocator@D@2@@1@@Z
	??$_Emplace_back_with_unused_capacity@AEAY06$$CBDV?$basic_string@DU?$char_traits@D@std@@V?$allocator@D@2@@std@@@?$vector@VHttpReqArg@TgBot@@V?$allocator@VHttpReqArg@TgBot@@@std@@@std@@AEAAAEAVHttpReqArg@TgBot@@AEAY06$$CBD$$QEAV?$basic_string@DU?$char_traits@D@std@@V?$allocator@D@2@@1@@Z
	??$_Emplace_back_with_unused_capacity@AEAY07$$CBDAEAH@?$vector@VHttpReqArg@TgBot@@V?$allocator@VHttpReqArg@TgBot@@@std@@@std@@AEAAAEAVHttpReqArg@TgBot@@AEAY07$$CBDAEAH@Z
	??$_Emplace_back_with_unused_capacity@AEAY07$$CBDAEAV?$basic_string@DU?$char_traits@D@std@@V?$allocator@D@2@@std@@@?$vector@VHttpReqArg@TgBot@@V?$allocator@VHttpReqArg@TgBot@@@std@@@std@@AEAAAEAVHttpReqArg@TgBot@@AEAY07$$CBDAEAV?$basic_string@DU?$char_traits@D@std@@V?$allocator@D@2@@1@@Z
	??$_Emplace_back_with_unused_capacity@AEAY07$$CBDAEAV?$basic_string@DU?$char_traits@D@std@@V?$allocator@D@2@@std@@_NAEAV12@AEAV12@@?$vector@VHttpReqArg@TgBot@@V?$allocator@VHttpReqArg@TgBot@@@std@@@std@@AEAAAEAVHttpReqArg@TgBot@@AEAY07$$CBDAEAV?$basic_string@DU?$char_traits@D@std@@V?$allocator@D@2@@1@$$QEA_N11@Z
	??$_Emplace_back_with_unused_capacity@AEAY07$$CBDAEAV?$variant@_JV?$basic_string@DU?$char_traits@D@std@@V?$allocator@D@2@@std@@@boost@@@?$vector@VHttpReqArg@TgBot@@V?$allocator@VHttpReqArg@TgBot@@@std@@@std@@AEAAAEAVHttpReqArg@TgBot@@AEAY07$$CBDAEAV?$variant@_JV?$basic_string@DU?$char_traits@D@std@@V?$allocator@D@2@@std@@@boost@@@Z
	??$_Emplace_back_with_unused_capacity@AEAY07$$CBDAEA_J@?$vector@VHttpReqArg@TgBot@@V?$allocator@VHttpReqArg@TgBot@@@std@@@std@@AEAAAEAVHttpReqArg@TgBot@@AEAY07$$CBDAEA_J@Z
	??$_Emplace_back_with_unused_capacity@AEAY07$$CBDAEBH@?$vector@VHttpReqArg@TgBot@@V?$allocator@VHttpReqArg@TgBot@@@std@@@std@@AEAAAEAVHttpReqArg@TgBot@@AEAY07$$CBDAEBH@Z
	??$_Emplace_back_with_unused_capacity@AEAY07$$CBDAEBV?$basic_string@DU?$char_traits@D@std@@V?$allocator@D@2@@std@@@?$vector@VHttpReqArg@TgBot@@V?$allocator@VHttpReqArg@TgBot@@@std@@@std@@AEAAAEAVHttpReqArg@TgBot@@AEAY07$$CBDAEBV?$basic_string@DU?$char_traits@D@std@@V?$allocator@D@2@@1@@Z
	??$_Emplace_back_with_unused_capacity@AEAY07$$CBDV?$basic_string@DU?$char_traits@D@std@@V?$allocator@D@2@@std@@@?$vector@VHttpReqArg@TgBot@@V?$allocator@VHttpReqArg@TgBot@@@std@@@std@@AEAAAEAVHttpReqArg@TgBot@@AEAY07$$CBD$$QEAV?$basic_string@DU?$char_traits@D@std@@V?$allocator@D@2@@1@@Z
	??$_Emplace_back_with_unused_capacity@AEAY08$$CBDAEAH@?$vector@VHttpReqArg@TgBot@@V?$allocator@VHttpReqArg@TgBot@@@std@@@std@@AEAAAEAVHttpReqArg@TgBot@@AEAY08$$CBDAEAH@Z
	??$_Emplace_back_with_unused_capacity@AEAY08$$CBDAEAM@?$vector@VHttpReqArg@TgBot@@V?$allocator@VHttpReqArg@TgBot@@@std@@@std@@AEAAAEAVHttpReqArg@TgBot@@AEAY08$$CBDAEAM@Z
	??$_Emplace_back_with_unused_capacity@AEAY08$$CBDAEAV?$basic_string@DU?$char_traits@D@std@@V?$allocator@D@2@@std@@@?$vector@VHttpReqArg@TgBot@@V?$allocator@VHttpReqArg@TgBot@@@std@@@std@@AEAAAEAVHttpReqArg@TgBot@@AEAY08$$CBDAEAV?$basic_string@DU?$char_traits@D@std@@V?$allocator@D@2@@1@@Z
	??$_Emplace_back_with_unused_capacity@AEAY08$$CBDAEAV?$basic_string@DU?$char_traits@D@std@@V?$allocator@D@2@@std@@_NAEAV12@AEAV12@@?$vector@VHttpReqArg@TgBot@@V?$allocator@VHttpReqArg@TgBot@@@std@@@std@@AEAAAEAVHttpReqArg@TgBot@@AEAY08$$CBDAEAV?$basic_string@DU?$char_traits@D@std@@V?$allocator@D@2@@1@$$QEA_N11@Z
	??$_Emplace_back_with_unused_capacity@AEAY08$$CBDAEBV?$basic_string@DU?$char_traits@D@std@@V?$allocator@D@2@@std@@@?$vector@VHttpReqArg@TgBot@@V?$allocator@VHttpReqArg@TgBot@@@std@@@std@@AEAAAEAVHttpReqArg@TgBot@@AEAY08$$CBDAEBV?$basic_string@DU?$char_traits@D@std@@V?$allocator@D@2@@1@@Z
	??$_Emplace_back_with_unused_capacity@AEAY08$$CBDV?$basic_string@DU?$char_traits@D@std@@V?$allocator@D@2@@std@@@?$vector@VHttpReqArg@TgBot@@V?$allocator@VHttpReqArg@TgBot@@@std@@@std@@AEAAAEAVHttpReqArg@TgBot@@AEAY08$$CBD$$QEAV?$basic_string@DU?$char_traits@D@std@@V?$allocator@D@2@@1@@Z
	??$_Emplace_back_with_unused_capacity@AEAY09$$CBDAEAM@?$vector@VHttpReqArg@TgBot@@V?$allocator@VHttpReqArg@TgBot@@@std@@@std@@AEAAAEAVHttpReqArg@TgBot@@AEAY09$$CBDAEAM@Z
	??$_Emplace_back_with_unused_capacity@AEAY09$$CBDAEAV?$basic_string@DU?$char_traits@D@std@@V?$allocator@D@2@@std@@@?$vector@VHttpReqArg@TgBot@@V?$allocator@VHttpReqArg@TgBot@@@std@@@std@@AEAAAEAVHttpReqArg@TgBot@@AEAY09$$CBDAEAV?$basic_string@DU?$char_traits@D@std@@V?$allocator@D@2@@1@@Z
	??$_Emplace_back_with_unused_capacity@AEAY09$$CBDAEAV?$basic_string@DU?$char_traits@D@std@@V?$allocator@D@2@@std@@_NAEAV12@AEAV12@@?$vector@VHttpReqArg@TgBot@@V?$allocator@VHttpReqArg@TgBot@@@std@@@std@@AEAAAEAVHttpReqArg@TgBot@@AEAY09$$CBDAEAV?$basic_string@DU?$char_traits@D@std@@V?$allocator@D@2@@1@$$QEA_N11@Z
	??$_Emplace_back_with_unused_capacity@AEAY09$$CBDAEA_N@?$vector@VHttpReqArg@TgBot@@V?$allocator@VHttpReqArg@TgBot@@@std@@@std@@AEAAAEAVHttpReqArg@TgBot@@AEAY09$$CBDAEA_N@Z
	??$_Emplace_back_with_unused_capacity@AEAY09$$CBDAEBV?$basic_string@DU?$char_traits@D@std@@V?$allocator@D@2@@std@@@?$vector@VHttpReqArg@TgBot@@V?$allocator@VHttpReqArg@TgBot@@@std@@@std@@AEAAAEAVHttpReqArg@TgBot@@AEAY09$$CBDAEBV?$basic_string@DU?$char_traits@D@std@@V?$allocator@D@2@@1@@Z
	??$_Emplace_back_with_unused_capacity@AEAY0BA@$$CBDAEAV?$basic_string@DU?$char_traits@D@std@@V?$allocator@D@2@@std@@@?$vector@VHttpReqArg@TgBot@@V?$allocator@VHttpReqArg@TgBot@@@std@@@std@@AEAAAEAVHttpReqArg@TgBot@@AEAY0BA@$$CBDAEAV?$basic_string@DU?$char_traits@D@std@@V?$allocator@D@2@@1@@Z
	??$_Emplace_back_with_unused_capacity@AEAY0BA@$$CBDAEA_N@?$vector@VHttpReqArg@TgBot@@V?$allocator@VHttpReqArg@TgBot@@@std@@@std@@AEAAAEAVHttpReqArg@TgBot@@AEAY0BA@$$CBDAEA_N@Z
	??$_Emplace_back_with_unused_capacity@AEAY0BA@$$CBDAEBH@?$vector@VHttpReqArg@TgBot@@V?$allocator@VHttpReqArg@TgBot@@@std@@@std@@AEAAAEAVHttpReqArg@TgBot@@AEAY0BA@$$CBDAEBH@Z
	??$_Emplace_back_with_unused_capacity@AEAY0BA@$$CBDAEBV?$basic_string@DU?$char_traits@D@std@@V?$allocator@D@2@@std@@@?$vector@VHttpReqArg@TgBot@@V?$allocator@VHttpReqArg@TgBot@@@std@@@std@@AEAAAEAVHttpReqArg@TgBot@@AEAY0BA@$$CBDAEBV?$basic_string@DU?$char_traits@D@std@@V?$allocator@D@2@@1@@Z
	??$_Emplace_back_with_unused_capacity@AEAY0BB@$$CBDAEA_N@?$vector@VHttpReqArg@TgBot@@V?$allocator@VHttpReqArg@TgBot@@@std@@@std@@AEAAAEAVHttpReqArg@TgBot@@AEAY0BB@$$CBDAEA_N@Z
	??$_Emplace_back_with_unused_capacity@AEAY0BB@$$CBDAEBV?$basic_string@DU?$char_traits@D@std@@V?$allocator@D@2@@std@@@?$vector@VHttpReqArg@TgBot@@V?$allocator@VHttpReqArg@TgBot@@@std@@@std@@AEAAAEAVHttpReqArg@TgBot@@AEAY0BB@$$CBDAEBV?$basic_string@DU?$char_traits@D@std@@V?$allocator@D@2@@1@@Z
	??$_Emplace_back_with_unused_capacity@AEAY0BB@$$CBDV?$basic_string@DU?$char_traits@D@std@@V?$allocator@D@2@@std@@@?$vector@VHttpReqArg@TgBot@@V?$allocator@VHttpReqArg@TgBot@@@std@@@std@@AEAAAEAVHttpReqArg@TgBot@@AEAY0BB@$$CBD$$QEAV?$basic_string@DU?$char_traits@D@std@@V?$allocator@D@2@@1@@Z
	??$_Emplace_back_with_unused_capacity@AEAY0BC@$$CBDAEAH@?$vector@VHttpReqArg@TgBot@@V?$allocator@VHttpReqArg@TgBot@@@std@@@std@@AEAAAEAVHttpReqArg@TgBot@@AEAY0BC@$$CBDAEAH@Z
	??$_Emplace_back_with_unused_capacity@AEAY0BC@$$CBDAEA_N@?$vector@VHttpReqArg@TgBot@@V?$allocator@VHttpReqArg@TgBot@@@std@@@std@@AEAAAEAVHttpReqArg@TgBot@@AEAY0BC@$$CBDAEA_N@Z
	??$_Emplace_back_with_unused_capacity@AEAY0BC@$$CBDAEBV?$basic_string@DU?$char_traits@D@std@@V?$allocator@D@2@@std@@@?$vector@VHttpReqArg@TgBot@@V?$allocator@VHttpReqArg@TgBot@@@std@@@std@@AEAAAEAVHttpReqArg@TgBot@@AEAY0BC@$$CBDAEBV?$basic_string@DU?$char_traits@D@std@@V?$allocator@D@2@@1@@Z
	??$_Emplace_back_with_unused_capacity@AEAY0BD@$$CBDAEA_N@?$vector@VHttpReqArg@TgBot@@V?$allocator@VHttpReqArg@TgBot@@@std@@@std@@AEAAAEAVHttpReqArg@TgBot@@AEAY0BD@$$CBDAEA_N@Z
	??$_Emplace_back_with_unused_capacity@AEAY0BE@$$CBDAEAH@?$vector@VHttpReqArg@TgBot@@V?$allocator@VHttpReqArg@TgBot@@@std@@@std@@AEAAAEAVHttpReqArg@TgBot@@AEAY0BE@$$CBDAEAH@Z
	??$_Emplace_back_with_unused_capacity@AEAY0BE@$$CBDAEAM@?$vector@VHttpReqArg@TgBot@@V?$allocator@VHttpReqArg@TgBot@@@std@@@std@@AEAAAEAVHttpReqArg@TgBot@@AEAY0BE@$$CBDAEAM@Z
	??$_Emplace_back_with_unused_capacity@AEAY0BE@$$CBDAEA_J@?$vector@VHttpReqArg@TgBot@@V?$allocator@VHttpReqArg@TgBot@@@std@@@std@@AEAAAEAVHttpReqArg@TgBot@@AEAY0BE@$$CBDAEA_J@Z
	??$_Emplace_back_with_unused_capacity@AEAY0BE@$$CBDAEA_N@?$vector@VHttpReqArg@TgBot@@V?$allocator@VHttpReqArg@TgBot@@@std@@@std@@AEAAAEAVHttpReqArg@TgBot@@AEAY0BE@$$CBDAEA_N@Z
	??$_Emplace_back_with_unused_capacity@AEAY0BE@$$CBDAEBV?$basic_string@DU?$char_traits@D@std@@V?$allocator@D@2@@std@@@?$vector@VHttpReqArg@TgBot@@V?$allocator@VHttpReqArg@TgBot@@@std@@@std@@AEAAAEAVHttpReqArg@TgBot@@AEAY0BE@$$CBDAEBV?$basic_string@DU?$char_traits@D@std@@V?$allocator@D@2@@1@@Z
	??$_Emplace_back_with_unused_capacity@AEAY0BF@$$CBDAEAV?$basic_string@DU?$char_traits@D@std@@V?$allocator@D@2@@std@@@?$vector@VHttpReqArg@TgBot@@V?$allocator@VHttpReqArg@TgBot@@@std@@@std@@AEAAAEAVHttpReqArg@TgBot@@AEAY0BF@$$CBDAEAV?$basic_string@DU?$char_traits@D@std@@V?$allocator@D@2@@1@@Z
	??$_Emplace_back_with_unused_capacity@AEAY0BF@$$CBDAEA_N@?$vector@VHttpReqArg@TgBot@@V?$allocator@VHttpReqArg@TgBot@@@std@@@std@@AEAAAEAVHttpReqArg@TgBot@@AEAY0BF@$$CBDAEA_N@Z
	??$_Emplace_back_with_unused_capacity@AEAY0BF@$$CBDAEBV?$basic_string@DU?$char_traits@D@std@@V?$allocator@D@2@@std@@@?$vector@VHttpReqArg@TgBot@@V?$allocator@VHttpReqArg@TgBot@@@std@@@std@@AEAAAEAVHttpReqArg@TgBot@@AEAY0BF@$$CBDAEBV?$basic_string@DU?$char_traits@D@std@@V?$allocator@D@2@@1@@Z
	??$_Emplace_back_with_unused_capacity@AEAY0BF@$$CBDV?$basic_string@DU?$char_traits@D@std@@V?$allocator@D@2@@std@@@?$vector@VHttpReqArg@TgBot@@V?$allocator@VHttpReqArg@TgBot@@@std@@@std@@AEAAAEAVHttpReqArg@TgBot@@AEAY0BF@$$CBD$$QEAV?$basic_string@DU?$char_traits@D@std@@V?$allocator@D@2@@1@@Z
	??$_Emplace_back_with_unused_capacity@AEAY0BG@$$CBDAEA_N@?$vector@VHttpReqArg@TgBot@@V?$allocator@VHttpReqArg@TgBot@@@std@@@std@@AEAAAEAVHttpReqArg@TgBot@@AEAY0BG@$$CBDAEA_N@Z
	??$_Emplace_back_with_unused_capacity@AEAY0BG@$$CBDAEBV?$basic_string@DU?$char_traits@D@std@@V?$allocator@D@2@@std@@@?$vector@VHttpReqArg@TgBot@@V?$allocator@VHttpReqArg@TgBot@@@std@@@std@@AEAAAEAVHttpReqArg@TgBot@@AEAY0BG@$$CBDAEBV?$basic_string@DU?$char_traits@D@std@@V?$allocator@D@2@@1@@Z
	??$_Emplace_back_with_unused_capacity@AEAY0BG@$$CBDV?$basic_string@DU?$char_traits@D@std@@V?$allocator@D@2@@std@@@?$vector@VHttpReqArg@TgBot@@V?$allocator@VHttpReqArg@TgBot@@@std@@@std@@AEAAAEAVHttpReqArg@TgBot@@AEAY0BG@$$CBD$$QEAV?$basic_string@DU?$char_traits@D@std@@V?$allocator@D@2@@1@@Z
	??$_Emplace_back_with_unused_capacity@AEAY0BH@$$CBDAEAH@?$vector@VHttpReqArg@TgBot@@V?$allocator@VHttpReqArg@TgBot@@@std@@@std@@AEAAAEAVHttpReqArg@TgBot@@AEAY0BH@$$CBDAEAH@Z
	??$_Emplace_back_with_unused_capacity@AEAY0BH@$$CBDAEA_N@?$vector@VHttpReqArg@TgBot@@V?$allocator@VHttpReqArg@TgBot@@@std@@@std@@AEAAAEAVHttpReqArg@TgBot@@AEAY0BH@$$CBDAEA_N@Z
	??$_Emplace_back_with_unused_capacity@AEAY0BH@$$CBDAEBH@?$vector@VHttpReqArg@TgBot@@V?$allocator@VHttpReqArg@TgBot@@@std@@@std@@AEAAAEAVHttpReqArg@TgBot@@AEAY0BH@$$CBDAEBH@Z
	??$_Emplace_back_with_unused_capacity@AEAY0BH@$$CBDAEBV?$basic_string@DU?$char_traits@D@std@@V?$allocator@D@2@@std@@@?$vector@VHttpReqArg@TgBot@@V?$allocator@VHttpReqArg@TgBot@@@std@@@std@@AEAAAEAVHttpReqArg@TgBot@@AEAY0BH@$$CBDAEBV?$basic_string@DU?$char_traits@D@std@@V?$allocator@D@2@@1@@Z
	??$_Emplace_back_with_unused_capacity@AEAY0BI@$$CBDAEA_N@?$vector@VHttpReqArg@TgBot@@V?$allocator@VHttpReqArg@TgBot@@@std@@@std@@AEAAAEAVHttpReqArg@TgBot@@AEAY0BI@$$CBDAEA_N@Z
	??$_Emplace_back_with_unused_capacity@AEAY0BJ@$$CBDAEA_N@?$vector@VHttpReqArg@TgBot@@V?$allocator@VHttpReqArg@TgBot@@@std@@@std@@AEAAAEAVHttpReqArg@TgBot@@AEAY0BJ@$$CBDAEA_N@Z
	??$_Emplace_back_with_unused_capacity@AEAY0BM@$$CBDAEA_N@?$vector@VHttpReqArg@TgBot@@V?$allocator@VHttpReqArg@TgBot@@@std@@@std@@AEAAAEAVHttpReqArg@TgBot@@AEAY0BM@$$CBDAEA_N@Z
	??$_Emplace_back_with_unused_capacity@AEAY0BO@$$CBDAEA_N@?$vector@VHttpReqArg@TgBot@@V?$allocator@VHttpReqArg@TgBot@@@std@@@std@@AEAAAEAVHttpReqArg@TgBot@@AEAY0BO@$$CBDAEA_N@Z
	??$_Emplace_back_with_unused_capacity@AEAY0BP@$$CBDAEA_N@?$vector@VHttpReqArg@TgBot@@V?$allocator@VHttpReqArg@TgBot@@@std@@@std@@AEAAAEAVHttpReqArg@TgBot@@AEAY0BP@$$CBDAEA_N@Z
	??$_Emplace_back_with_unused_capacity@AEAY0CB@$$CBDAEA_N@?$vector@VHttpReqArg@TgBot@@V?$allocator@VHttpReqArg@TgBot@@@std@@@std@@AEAAAEAVHttpReqArg@TgBot@@AEAY0CB@$$CBDAEA_N@Z
	??$_Emplace_back_with_unused_capacity@AEAY0L@$$CBDAEAH@?$vector@VHttpReqArg@TgBot@@V?$allocator@VHttpReqArg@TgBot@@@std@@@std@@AEAAAEAVHttpReqArg@TgBot@@AEAY0L@$$CBDAEAH@Z
	??$_Emplace_back_with_unused_capacity@AEAY0L@$$CBDAEAV?$basic_string@DU?$char_traits@D@std@@V?$allocator@D@2@@std@@@?$vector@VHttpReqArg@TgBot@@V?$allocator@VHttpReqArg@TgBot@@@std@@@std@@AEAAAEAVHttpReqArg@TgBot@@AEAY0L@$$CBDAEAV?$basic_string@DU?$char_traits@D@std@@V?$allocator@D@2@@1@@Z
	??$_Emplace_back_with_unused_capacity@AEAY0L@$$CBDAEAV?$basic_string@DU?$char_traits@D@std@@V?$allocator@D@2@@std@@_NAEAV12@AEAV12@@?$vector@VHttpReqArg@TgBot@@V?$allocator@VHttpReqArg@TgBot@@@std@@@std@@AEAAAEAVHttpReqArg@TgBot@@AEAY0L@$$CBDAEAV?$basic_string@DU?$char_traits@D@std@@V?$allocator@D@2@@1@$$QEA_N11@Z
	??$_Emplace_back_with_unused_capacity@AEAY0L@$$CBDAEA_J@?$vector@VHttpReqArg@TgBot@@V?$allocator@VHttpReqArg@TgBot@@@std@@@std@@AEAAAEAVHttpReqArg@TgBot@@AEAY0L@$$CBDAEA_J@Z
	??$_Emplace_back_with_unused_capacity@AEAY0L@$$CBDAEA_N@?$vector@VHttpReqArg@TgBot@@V?$allocator@VHttpReqArg@TgBot@@@std@@@std@@AEAAAEAVHttpReqArg@TgBot@@AEAY0L@$$CBDAEA_N@Z
	??$_Emplace_back_with_unused_capacity@AEAY0L@$$CBDAEBV?$basic_string@DU?$char_traits@D@std@@V?$allocator@D@2@@std@@@?$vector@VHttpReqArg@TgBot@@V?$allocator@VHttpReqArg@TgBot@@@std@@@std@@AEAAAEAVHttpReqArg@TgBot@@AEAY0L@$$CBDAEBV?$basic_string@DU?$char_traits@D@std@@V?$allocator@D@2@@1@@Z
	??$_Emplace_back_with_unused_capacity@AEAY0M@$$CBDAEAH@?$vector@VHttpReqArg@TgBot@@V?$allocator@VHttpReqArg@TgBot@@@std@@@std@@AEAAAEAVHttpReqArg@TgBot@@AEAY0M@$$CBDAEAH@Z
	??$_Emplace_back_with_unused_capacity@AEAY0M@$$CBDAEAV?$basic_string@DU?$char_traits@D@std@@V?$allocator@D@2@@std@@@?$vector@VHttpReqArg@TgBot@@V?$allocator@VHttpReqArg@TgBot@@@std@@@std@@AEAAAEAVHttpReqArg@TgBot@@AEAY0M@$$CBDAEAV?$basic_string@DU?$char_traits@D@std@@V?$allocator@D@2@@1@@Z
	??$_Emplace_back_with_unused_capacity@AEAY0M@$$CBDAEAV?$basic_string@DU?$char_traits@D@std@@V?$allocator@D@2@@std@@_NAEAV12@AEAV12@@?$vector@VHttpReqArg@TgBot@@V?$allocator@VHttpReqArg@TgBot@@@std@@@std@@AEAAAEAVHttpReqArg@TgBot@@AEAY0M@$$CBDAEAV?$basic_string@DU?$char_traits@D@std@@V?$allocator@D@2@@1@$$QEA_N11@Z
	??$_Emplace_back_with_unused_capacity@AEAY0M@$$CBDAEA_N@?$vector@VHttpReqArg@TgBot@@V?$allocator@VHttpReqArg@TgBot@@@std@@@std@@AEAAAEAVHttpReqArg@TgBot@@AEAY0M@$$CBDAEA_N@Z
	??$_Emplace_back_with_unused_capacity@AEAY0M@$$CBDAEBH@?$vector@VHttpReqArg@TgBot@@V?$allocator@VHttpReqArg@TgBot@@@std@@@std@@AEAAAEAVHttpReqArg@TgBot@@AEAY0M@$$CBDAEBH@Z
	??$_Emplace_back_with_unused_capacity@AEAY0M@$$CBDAEBV?$basic_string@DU?$char_traits@D@std@@V?$allocator@D@2@@std@@@?$vector@VHttpReqArg@TgBot@@V?$allocator@VHttpReqArg@TgBot@@@std@@@std@@AEAAAEAVHttpReqArg@TgBot@@AEAY0M@$$CBDAEBV?$basic_string@DU?$char_traits@D@std@@V?$allocator@D@2@@1@@Z
	??$_Emplace_back_with_unused_capacity@AEAY0M@$$CBDV?$basic_string@DU?$char_traits@D@std@@V?$allocator@D@2@@std@@@?$vector@VHttpReqArg@TgBot@@V?$allocator@VHttpReqArg@TgBot@@@std@@@std@@AEAAAEAVHttpReqArg@TgBot@@AEAY0M@$$CBD$$QEAV?$basic_string@DU?$char_traits@D@std@@V?$allocator@D@2@@1@@Z
	??$_Emplace_back_with_unused_capacity@AEAY0N@$$CBDAEAH@?$vector@VHttpReqArg@TgBot@@V?$allocator@VHttpReqArg@TgBot@@@std@@@std@@AEAAAEAVHttpReqArg@TgBot@@AEAY0N@$$CBDAEAH@Z
	??$_Emplace_back_with_unused_capacity@AEAY0N@$$CBDAEAV?$basic_string@DU?$char_traits@D@std@@V?$allocator@D@2@@std@@_NAEAV12@AEAV12@@?$vector@VHttpReqArg@TgBot@@V?$allocator@VHttpReqArg@TgBot@@@std@@@std@@AEAAAEAVHttpReqArg@TgBot@@AEAY0N@$$CBDAEAV?$basic_string@DU?$char_traits@D@std@@V?$allocator@D@2@@1@$$QEA_N11@Z
	??$_Emplace_back_with_unused_capacity@AEAY0N@$$CBDAEAV?$variant@_JV?$basic_string@DU?$char_traits@D@std@@V?$allocator@D@2@@std@@@boost@@@?$vector@VHttpReqArg@TgBot@@V?$allocator@VHttpReqArg@TgBot@@@std@@@std@@AEAAAEAVHttpReqArg@TgBot@@AEAY0N@$$CBDAEAV?$variant@_JV?$basic_string@DU?$char_traits@D@std@@V?$allocator@D@2@@std@@@boost@@@Z
	??$_Emplace_back_with_unused_capacity@AEAY0N@$$CBDAEA_N@?$vector@VHttpReqArg@TgBot@@V?$allocator@VHttpReqArg@TgBot@@@std@@@std@@AEAAAEAVHttpReqArg@TgBot@@AEAY0N@$$CBDAEA_N@Z
	??$_Emplace_back_with_unused_capacity@AEAY0N@$$CBDAEBV?$basic_string@DU?$char_traits@D@std@@V?$allocator@D@2@@std@@@?$vector@VHttpReqArg@TgBot@@V?$allocator@VHttpReqArg@TgBot@@@std@@@std@@AEAAAEAVHttpReqArg@TgBot@@AEAY0N@$$CBDAEBV?$basic_string@DU?$char_traits@D@std@@V?$allocator@D@2@@1@@Z
	??$_Emplace_back_with_unused_capacity@AEAY0N@$$CBDV?$basic_string@DU?$char_traits@D@std@@V?$allocator@D@2@@std@@@?$vector@VHttpReqArg@TgBot@@V?$allocator@VHttpReqArg@TgBot@@@std@@@std@@AEAAAEAVHttpReqArg@TgBot@@AEAY0N@$$CBD$$QEAV?$basic_string@DU?$char_traits@D@std@@V?$allocator@D@2@@1@@Z
	??$_Emplace_back_with_unused_capacity@AEAY0O@$$CBDAEBV?$basic_string@DU?$char_traits@D@std@@V?$allocator@D@2@@std@@@?$vector@VHttpReqArg@TgBot@@V?$allocator@VHttpReqArg@TgBot@@@std@@@std@@AEAAAEAVHttpReqArg@TgBot@@AEAY0O@$$CBDAEBV?$basic_string@DU?$char_traits@D@std@@V?$allocator@D@2@@1@@Z
	??$_Emplace_back_with_unused_capacity@AEAY0O@$$CBDV?$basic_string@DU?$char_traits@D@std@@V?$allocator@D@2@@std@@@?$vector@VHttpReqArg@TgBot@@V?$allocator@VHttpReqArg@TgBot@@@std@@@std@@AEAAAEAVHttpReqArg@TgBot@@AEAY0O@$$CBD$$QEAV?$basic_string@DU?$char_traits@D@std@@V?$allocator@D@2@@1@@Z
	??$_Emplace_back_with_unused_capacity@AEAY0P@$$CBDAEAH@?$vector@VHttpReqArg@TgBot@@V?$allocator@VHttpReqArg@TgBot@@@std@@@std@@AEAAAEAVHttpReqArg@TgBot@@AEAY0P@$$CBDAEAH@Z
	??$_Emplace_back_with_unused_capacity@AEAY0P@$$CBDAEA_J@?$vector@VHttpReqArg@TgBot@@V?$allocator@VHttpReqArg@TgBot@@@std@@@std@@AEAAAEAVHttpReqArg@TgBot@@AEAY0P@$$CBDAEA_J@Z
	??$_Emplace_back_with_unused_capacity@AEAY0P@$$CBDAEA_N@?$vector@VHttpReqArg@TgBot@@V?$allocator@VHttpReqArg@TgBot@@@std@@@std@@AEAAAEAVHttpReqArg@TgBot@@AEAY0P@$$CBDAEA_N@Z
	??$_Emplace_back_with_unused_capacity@AEAY0P@$$CBDAEBV?$basic_string@DU?$char_traits@D@std@@V?$allocator@D@2@@std@@@?$vector@VHttpReqArg@TgBot@@V?$allocator@VHttpReqArg@TgBot@@@std@@@std@@AEAAAEAVHttpReqArg@TgBot@@AEAY0P@$$CBDAEBV?$basic_string@DU?$char_traits@D@std@@V?$allocator@D@2@@1@@Z
	??$_Emplace_back_with_unused_capacity@AEBUlayer@?$standard_callbacks@V?$basic_ptree@V?$basic_string@DU?$char_traits@D@std@@V?$allocator@D@2@@std@@V12@U?$less@V?$basic_string@DU?$char_traits@D@std@@V?$allocator@D@2@@std@@@2@@property_tree@boost@@@detail@json_parser@property_tree@boost@@@?$vector@Ulayer@?$standard_callbacks@V?$basic_ptree@V?$basic_string@DU?$char_traits@D@std@@V?$allocator@D@2@@std@@V12@U?$less@V?$basic_string@DU?$char_traits@D@std@@V?$allocator@D@2@@std@@@2@@property_tree@boost@@@detail@json_parser@property_tree@boost@@V?$allocator@Ulayer@?$standard_callbacks@V?$basic_ptree@V?$basic_string@DU?$char_traits@D@std@@V?$allocator@D@2@@std@@V12@U?$less@V?$basic_string@DU?$char_traits@D@std@@V?$allocator@D@2@@std@@@2@@property_tree@boost@@@detail@json_parser@property_tree@boost@@@std@@@std@@AEAAAEAUlayer@?$standard_callbacks@V?$basic_ptree@V?$basic_string@DU?$char_traits@D@std@@V?$allocator@D@2@@std@@V12@U?$less@V?$basic_string@DU?$char_traits@D@std@@V?$allocator@D@2@@std@@@2@@property_tree@boost@@@detail@json_parser@property_tree@boost@@AEBU234567@@Z
	??$_Emplace_back_with_unused_capacity@AEBV?$basic_string@DU?$char_traits@D@std@@V?$allocator@D@2@@std@@@?$vector@V?$basic_string@DU?$char_traits@D@std@@V?$allocator@D@2@@std@@V?$allocator@V?$basic_string@DU?$char_traits@D@std@@V?$allocator@D@2@@std@@@2@@std@@AEAAAEAV?$basic_string@DU?$char_traits@D@std@@V?$allocator@D@2@@1@AEBV21@@Z
	??$_Emplace_back_with_unused_capacity@AEBV?$function@$$A6AXV?$shared_ptr@VCallbackQuery@TgBot@@@std@@@Z@std@@@?$vector@V?$function@$$A6AXV?$shared_ptr@VCallbackQuery@TgBot@@@std@@@Z@std@@V?$allocator@V?$function@$$A6AXV?$shared_ptr@VCallbackQuery@TgBot@@@std@@@Z@std@@@2@@std@@AEAAAEAV?$function@$$A6AXV?$shared_ptr@VCallbackQuery@TgBot@@@std@@@Z@1@AEBV21@@Z
	??$_Emplace_back_with_unused_capacity@AEBV?$function@$$A6AXV?$shared_ptr@VChatJoinRequest@TgBot@@@std@@@Z@std@@@?$vector@V?$function@$$A6AXV?$shared_ptr@VChatJoinRequest@TgBot@@@std@@@Z@std@@V?$allocator@V?$function@$$A6AXV?$shared_ptr@VChatJoinRequest@TgBot@@@std@@@Z@std@@@2@@std@@AEAAAEAV?$function@$$A6AXV?$shared_ptr@VChatJoinRequest@TgBot@@@std@@@Z@1@AEBV21@@Z
	??$_Emplace_back_with_unused_capacity@AEBV?$function@$$A6AXV?$shared_ptr@VChatMemberUpdated@TgBot@@@std@@@Z@std@@@?$vector@V?$function@$$A6AXV?$shared_ptr@VChatMemberUpdated@TgBot@@@std@@@Z@std@@V?$allocator@V?$function@$$A6AXV?$shared_ptr@VChatMemberUpdated@TgBot@@@std@@@Z@std@@@2@@std@@AEAAAEAV?$function@$$A6AXV?$shared_ptr@VChatMemberUpdated@TgBot@@@std@@@Z@1@AEBV21@@Z
	??$_Emplace_back_with_unused_capacity@AEBV?$function@$$A6AXV?$shared_ptr@VChosenInlineResult@TgBot@@@std@@@Z@std@@@?$vector@V?$function@$$A6AXV?$shared_ptr@VChosenInlineResult@TgBot@@@std@@@Z@std@@V?$allocator@V?$function@$$A6AXV?$shared_ptr@VChosenInlineResult@TgBot@@@std@@@Z@std@@@2@@std@@AEAAAEAV?$function@$$A6AXV?$shared_ptr@VChosenInlineResult@TgBot@@@std@@@Z@1@AEBV21@@Z
	??$_Emplace_back_with_unused_capacity@AEBV?$function@$$A6AXV?$shared_ptr@VInlineQuery@TgBot@@@std@@@Z@std@@@?$vector@V?$function@$$A6AXV?$shared_ptr@VInlineQuery@TgBot@@@std@@@Z@std@@V?$allocator@V?$function@$$A6AXV?$shared_ptr@VInlineQuery@TgBot@@@std@@@Z@std@@@2@@std@@AEAAAEAV?$function@$$A6AXV?$shared_ptr@VInlineQuery@TgBot@@@std@@@Z@1@AEBV21@@Z
	??$_Emplace_back_with_unused_capacity@AEBV?$function@$$A6AXV?$shared_ptr@VMessage@TgBot@@@std@@@Z@std@@@?$vector@V?$function@$$A6AXV?$shared_ptr@VMessage@TgBot@@@std@@@Z@std@@V?$allocator@V?$function@$$A6AXV?$shared_ptr@VMessage@TgBot@@@std@@@Z@std@@@2@@std@@AEAAAEAV?$function@$$A6AXV?$shared_ptr@VMessage@TgBot@@@std@@@Z@1@AEBV21@@Z
	??$_Emplace_back_with_unused_capacity@AEBV?$function@$$A6AXV?$shared_ptr@VPoll@TgBot@@@std@@@Z@std@@@?$vector@V?$function@$$A6AXV?$shared_ptr@VPoll@TgBot@@@std@@@Z@std@@V?$allocator@V?$function@$$A6AXV?$shared_ptr@VPoll@TgBot@@@std@@@Z@std@@@2@@std@@AEAAAEAV?$function@$$A6AXV?$shared_ptr@VPoll@TgBot@@@std@@@Z@1@AEBV21@@Z
	??$_Emplace_back_with_unused_capacity@AEBV?$function@$$A6AXV?$shared_ptr@VPollAnswer@TgBot@@@std@@@Z@std@@@?$vector@V?$function@$$A6AXV?$shared_ptr@VPollAnswer@TgBot@@@std@@@Z@std@@V?$allocator@V?$function@$$A6AXV?$shared_ptr@VPollAnswer@TgBot@@@std@@@Z@std@@@2@@std@@AEAAAEAV?$function@$$A6AXV?$shared_ptr@VPollAnswer@TgBot@@@std@@@Z@1@AEBV21@@Z
	??$_Emplace_back_with_unused_capacity@AEBV?$function@$$A6AXV?$shared_ptr@VPreCheckoutQuery@TgBot@@@std@@@Z@std@@@?$vector@V?$function@$$A6AXV?$shared_ptr@VPreCheckoutQuery@TgBot@@@std@@@Z@std@@V?$allocator@V?$function@$$A6AXV?$shared_ptr@VPreCheckoutQuery@TgBot@@@std@@@Z@std@@@2@@std@@AEAAAEAV?$function@$$A6AXV?$shared_ptr@VPreCheckoutQuery@TgBot@@@std@@@Z@1@AEBV21@@Z
	??$_Emplace_back_with_unused_capacity@AEBV?$function@$$A6AXV?$shared_ptr@VShippingQuery@TgBot@@@std@@@Z@std@@@?$vector@V?$function@$$A6AXV?$shared_ptr@VShippingQuery@TgBot@@@std@@@Z@std@@V?$allocator@V?$function@$$A6AXV?$shared_ptr@VShippingQuery@TgBot@@@std@@@Z@std@@@2@@std@@AEAAAEAV?$function@$$A6AXV?$shared_ptr@VShippingQuery@TgBot@@@std@@@Z@1@AEBV21@@Z
	??$_Emplace_back_with_unused_capacity@AEBV?$vector@V?$shared_ptr@VPhotoSize@TgBot@@@std@@V?$allocator@V?$shared_ptr@VPhotoSize@TgBot@@@std@@@2@@std@@@?$vector@V?$vector@V?$shared_ptr@VPhotoSize@TgBot@@@std@@V?$allocator@V?$shared_ptr@VPhotoSize@TgBot@@@std@@@2@@std@@V?$allocator@V?$vector@V?$shared_ptr@VPhotoSize@TgBot@@@std@@V?$allocator@V?$shared_ptr@VPhotoSize@TgBot@@@std@@@2@@std@@@2@@std@@AEAAAEAV?$vector@V?$shared_ptr@VPhotoSize@TgBot@@@std@@V?$allocator@V?$shared_ptr@VPhotoSize@TgBot@@@std@@@2@@1@AEBV21@@Z
	??$_Emplace_back_with_unused_capacity@H@?$vector@HV?$allocator@H@std@@@std@@AEAAAEAH$$QEAH@Z
	??$_Emplace_back_with_unused_capacity@V?$basic_resolver_entry@Vtcp@ip@asio@boost@@@ip@asio@boost@@@?$vector@V?$basic_resolver_entry@Vtcp@ip@asio@boost@@@ip@asio@boost@@V?$allocator@V?$basic_resolver_entry@Vtcp@ip@asio@boost@@@ip@asio@boost@@@std@@@std@@AEAAAEAV?$basic_resolver_entry@Vtcp@ip@asio@boost@@@ip@asio@boost@@$$QEAV2345@@Z
	??$_Emplace_back_with_unused_capacity@V?$basic_string@DU?$char_traits@D@std@@V?$allocator@D@2@@std@@@?$vector@V?$basic_string@DU?$char_traits@D@std@@V?$allocator@D@2@@std@@V?$allocator@V?$basic_string@DU?$char_traits@D@std@@V?$allocator@D@2@@std@@@2@@std@@AEAAAEAV?$basic_string@DU?$char_traits@D@std@@V?$allocator@D@2@@1@$$QEAV21@@Z
	??$_Emplace_back_with_unused_capacity@V?$shared_ptr@VBotCommand@TgBot@@@std@@@?$vector@V?$shared_ptr@VBotCommand@TgBot@@@std@@V?$allocator@V?$shared_ptr@VBotCommand@TgBot@@@std@@@2@@std@@AEAAAEAV?$shared_ptr@VBotCommand@TgBot@@@1@$$QEAV21@@Z
	??$_Emplace_back_with_unused_capacity@V?$shared_ptr@VChatMember@TgBot@@@std@@@?$vector@V?$shared_ptr@VChatMember@TgBot@@@std@@V?$allocator@V?$shared_ptr@VChatMember@TgBot@@@std@@@2@@std@@AEAAAEAV?$shared_ptr@VChatMember@TgBot@@@1@$$QEAV21@@Z
	??$_Emplace_back_with_unused_capacity@V?$shared_ptr@VEncryptedPassportElement@TgBot@@@std@@@?$vector@V?$shared_ptr@VEncryptedPassportElement@TgBot@@@std@@V?$allocator@V?$shared_ptr@VEncryptedPassportElement@TgBot@@@std@@@2@@std@@AEAAAEAV?$shared_ptr@VEncryptedPassportElement@TgBot@@@1@$$QEAV21@@Z
	??$_Emplace_back_with_unused_capacity@V?$shared_ptr@VGameHighScore@TgBot@@@std@@@?$vector@V?$shared_ptr@VGameHighScore@TgBot@@@std@@V?$allocator@V?$shared_ptr@VGameHighScore@TgBot@@@std@@@2@@std@@AEAAAEAV?$shared_ptr@VGameHighScore@TgBot@@@1@$$QEAV21@@Z
	??$_Emplace_back_with_unused_capacity@V?$shared_ptr@VInlineKeyboardButton@TgBot@@@std@@@?$vector@V?$shared_ptr@VInlineKeyboardButton@TgBot@@@std@@V?$allocator@V?$shared_ptr@VInlineKeyboardButton@TgBot@@@std@@@2@@std@@AEAAAEAV?$shared_ptr@VInlineKeyboardButton@TgBot@@@1@$$QEAV21@@Z
	??$_Emplace_back_with_unused_capacity@V?$shared_ptr@VKeyboardButton@TgBot@@@std@@@?$vector@V?$shared_ptr@VKeyboardButton@TgBot@@@std@@V?$allocator@V?$shared_ptr@VKeyboardButton@TgBot@@@std@@@2@@std@@AEAAAEAV?$shared_ptr@VKeyboardButton@TgBot@@@1@$$QEAV21@@Z
	??$_Emplace_back_with_unused_capacity@V?$shared_ptr@VLabeledPrice@TgBot@@@std@@@?$vector@V?$shared_ptr@VLabeledPrice@TgBot@@@std@@V?$allocator@V?$shared_ptr@VLabeledPrice@TgBot@@@std@@@2@@std@@AEAAAEAV?$shared_ptr@VLabeledPrice@TgBot@@@1@$$QEAV21@@Z
	??$_Emplace_back_with_unused_capacity@V?$shared_ptr@VMessage@TgBot@@@std@@@?$vector@V?$shared_ptr@VMessage@TgBot@@@std@@V?$allocator@V?$shared_ptr@VMessage@TgBot@@@std@@@2@@std@@AEAAAEAV?$shared_ptr@VMessage@TgBot@@@1@$$QEAV21@@Z
	??$_Emplace_back_with_unused_capacity@V?$shared_ptr@VMessageEntity@TgBot@@@std@@@?$vector@V?$shared_ptr@VMessageEntity@TgBot@@@std@@V?$allocator@V?$shared_ptr@VMessageEntity@TgBot@@@std@@@2@@std@@AEAAAEAV?$shared_ptr@VMessageEntity@TgBot@@@1@$$QEAV21@@Z
	??$_Emplace_back_with_unused_capacity@V?$shared_ptr@VPassportFile@TgBot@@@std@@@?$vector@V?$shared_ptr@VPassportFile@TgBot@@@std@@V?$allocator@V?$shared_ptr@VPassportFile@TgBot@@@std@@@2@@std@@AEAAAEAV?$shared_ptr@VPassportFile@TgBot@@@1@$$QEAV21@@Z
	??$_Emplace_back_with_unused_capacity@V?$shared_ptr@VPhotoSize@TgBot@@@std@@@?$vector@V?$shared_ptr@VPhotoSize@TgBot@@@std@@V?$allocator@V?$shared_ptr@VPhotoSize@TgBot@@@std@@@2@@std@@AEAAAEAV?$shared_ptr@VPhotoSize@TgBot@@@1@$$QEAV21@@Z
	??$_Emplace_back_with_unused_capacity@V?$shared_ptr@VPollOption@TgBot@@@std@@@?$vector@V?$shared_ptr@VPollOption@TgBot@@@std@@V?$allocator@V?$shared_ptr@VPollOption@TgBot@@@std@@@2@@std@@AEAAAEAV?$shared_ptr@VPollOption@TgBot@@@1@$$QEAV21@@Z
	??$_Emplace_back_with_unused_capacity@V?$shared_ptr@VSticker@TgBot@@@std@@@?$vector@V?$shared_ptr@VSticker@TgBot@@@std@@V?$allocator@V?$shared_ptr@VSticker@TgBot@@@std@@@2@@std@@AEAAAEAV?$shared_ptr@VSticker@TgBot@@@1@$$QEAV21@@Z
	??$_Emplace_back_with_unused_capacity@V?$shared_ptr@VUpdate@TgBot@@@std@@@?$vector@V?$shared_ptr@VUpdate@TgBot@@@std@@V?$allocator@V?$shared_ptr@VUpdate@TgBot@@@std@@@2@@std@@AEAAAEAV?$shared_ptr@VUpdate@TgBot@@@1@$$QEAV21@@Z
	??$_Emplace_back_with_unused_capacity@V?$shared_ptr@VUser@TgBot@@@std@@@?$vector@V?$shared_ptr@VUser@TgBot@@@std@@V?$allocator@V?$shared_ptr@VUser@TgBot@@@std@@@2@@std@@AEAAAEAV?$shared_ptr@VUser@TgBot@@@1@$$QEAV21@@Z
	??$_Emplace_back_with_unused_capacity@V?$vector@V?$shared_ptr@VInlineKeyboardButton@TgBot@@@std@@V?$allocator@V?$shared_ptr@VInlineKeyboardButton@TgBot@@@std@@@2@@std@@@?$vector@V?$vector@V?$shared_ptr@VInlineKeyboardButton@TgBot@@@std@@V?$allocator@V?$shared_ptr@VInlineKeyboardButton@TgBot@@@std@@@2@@std@@V?$allocator@V?$vector@V?$shared_ptr@VInlineKeyboardButton@TgBot@@@std@@V?$allocator@V?$shared_ptr@VInlineKeyboardButton@TgBot@@@std@@@2@@std@@@2@@std@@AEAAAEAV?$vector@V?$shared_ptr@VInlineKeyboardButton@TgBot@@@std@@V?$allocator@V?$shared_ptr@VInlineKeyboardButton@TgBot@@@std@@@2@@1@$$QEAV21@@Z
	??$_Emplace_back_with_unused_capacity@V?$vector@V?$shared_ptr@VKeyboardButton@TgBot@@@std@@V?$allocator@V?$shared_ptr@VKeyboardButton@TgBot@@@std@@@2@@std@@@?$vector@V?$vector@V?$shared_ptr@VKeyboardButton@TgBot@@@std@@V?$allocator@V?$shared_ptr@VKeyboardButton@TgBot@@@std@@@2@@std@@V?$allocator@V?$vector@V?$shared_ptr@VKeyboardButton@TgBot@@@std@@V?$allocator@V?$shared_ptr@VKeyboardButton@TgBot@@@std@@@2@@std@@@2@@std@@AEAAAEAV?$vector@V?$shared_ptr@VKeyboardButton@TgBot@@@std@@V?$allocator@V?$shared_ptr@VKeyboardButton@TgBot@@@std@@@2@@1@$$QEAV21@@Z
	??$_Emplace_one_at_back@AEAY02$$CBDAEA_N@?$vector@VHttpReqArg@TgBot@@V?$allocator@VHttpReqArg@TgBot@@@std@@@std@@AEAAAEAVHttpReqArg@TgBot@@AEAY02$$CBDAEA_N@Z
	??$_Emplace_one_at_back@AEAY03$$CBDAEBV?$basic_string@DU?$char_traits@D@std@@V?$allocator@D@2@@std@@@?$vector@VHttpReqArg@TgBot@@V?$allocator@VHttpReqArg@TgBot@@@std@@@std@@AEAAAEAVHttpReqArg@TgBot@@AEAY03$$CBDAEBV?$basic_string@DU?$char_traits@D@std@@V?$allocator@D@2@@1@@Z
	??$_Emplace_one_at_back@AEAY04$$CBDAEAV?$basic_string@DU?$char_traits@D@std@@V?$allocator@D@2@@std@@@?$vector@VHttpReqArg@TgBot@@V?$allocator@VHttpReqArg@TgBot@@@std@@@std@@AEAAAEAVHttpReqArg@TgBot@@AEAY04$$CBDAEAV?$basic_string@DU?$char_traits@D@std@@V?$allocator@D@2@@1@@Z
	??$_Emplace_one_at_back@AEAY04$$CBDAEBV?$basic_string@DU?$char_traits@D@std@@V?$allocator@D@2@@std@@@?$vector@VHttpReqArg@TgBot@@V?$allocator@VHttpReqArg@TgBot@@@std@@@std@@AEAAAEAVHttpReqArg@TgBot@@AEAY04$$CBDAEBV?$basic_string@DU?$char_traits@D@std@@V?$allocator@D@2@@1@@Z
	??$_Emplace_one_at_back@AEAY05$$CBDAEAH@?$vector@VHttpReqArg@TgBot@@V?$allocator@VHttpReqArg@TgBot@@@std@@@std@@AEAAAEAVHttpReqArg@TgBot@@AEAY05$$CBDAEAH@Z
	??$_Emplace_one_at_back@AEAY05$$CBDAEAV?$basic_string@DU?$char_traits@D@std@@V?$allocator@D@2@@std@@@?$vector@VHttpReqArg@TgBot@@V?$allocator@VHttpReqArg@TgBot@@@std@@@std@@AEAAAEAVHttpReqArg@TgBot@@AEAY05$$CBDAEAV?$basic_string@DU?$char_traits@D@std@@V?$allocator@D@2@@1@@Z
	??$_Emplace_one_at_back@AEAY05$$CBDAEAV?$basic_string@DU?$char_traits@D@std@@V?$allocator@D@2@@std@@_NAEAV12@AEAV12@@?$vector@VHttpReqArg@TgBot@@V?$allocator@VHttpReqArg@TgBot@@@std@@@std@@AEAAAEAVHttpReqArg@TgBot@@AEAY05$$CBDAEAV?$basic_string@DU?$char_traits@D@std@@V?$allocator@D@2@@1@$$QEA_N11@Z
	??$_Emplace_one_at_back@AEAY05$$CBDAEA_N@?$vector@VHttpReqArg@TgBot@@V?$allocator@VHttpReqArg@TgBot@@@std@@@std@@AEAAAEAVHttpReqArg@TgBot@@AEAY05$$CBDAEA_N@Z
	??$_Emplace_one_at_back@AEAY05$$CBDAEBH@?$vector@VHttpReqArg@TgBot@@V?$allocator@VHttpReqArg@TgBot@@@std@@@std@@AEAAAEAVHttpReqArg@TgBot@@AEAY05$$CBDAEBH@Z
	??$_Emplace_one_at_back@AEAY05$$CBDAEBV?$basic_string@DU?$char_traits@D@std@@V?$allocator@D@2@@std@@@?$vector@VHttpReqArg@TgBot@@V?$allocator@VHttpReqArg@TgBot@@@std@@@std@@AEAAAEAVHttpReqArg@TgBot@@AEAY05$$CBDAEBV?$basic_string@DU?$char_traits@D@std@@V?$allocator@D@2@@1@@Z
	??$_Emplace_one_at_back@AEAY05$$CBDV?$basic_string@DU?$char_traits@D@std@@V?$allocator@D@2@@std@@@?$vector@VHttpReqArg@TgBot@@V?$allocator@VHttpReqArg@TgBot@@@std@@@std@@AEAAAEAVHttpReqArg@TgBot@@AEAY05$$CBD$$QEAV?$basic_string@DU?$char_traits@D@std@@V?$allocator@D@2@@1@@Z
	??$_Emplace_one_at_back@AEAY06$$CBDAEAH@?$vector@VHttpReqArg@TgBot@@V?$allocator@VHttpReqArg@TgBot@@@std@@@std@@AEAAAEAVHttpReqArg@TgBot@@AEAY06$$CBDAEAH@Z
	??$_Emplace_one_at_back@AEAY06$$CBDAEBV?$basic_string@DU?$char_traits@D@std@@V?$allocator@D@2@@std@@@?$vector@VHttpReqArg@TgBot@@V?$allocator@VHttpReqArg@TgBot@@@std@@@std@@AEAAAEAVHttpReqArg@TgBot@@AEAY06$$CBDAEBV?$basic_string@DU?$char_traits@D@std@@V?$allocator@D@2@@1@@Z
	??$_Emplace_one_at_back@AEAY06$$CBDV?$basic_string@DU?$char_traits@D@std@@V?$allocator@D@2@@std@@@?$vector@VHttpReqArg@TgBot@@V?$allocator@VHttpReqArg@TgBot@@@std@@@std@@AEAAAEAVHttpReqArg@TgBot@@AEAY06$$CBD$$QEAV?$basic_string@DU?$char_traits@D@std@@V?$allocator@D@2@@1@@Z
	??$_Emplace_one_at_back@AEAY07$$CBDAEAH@?$vector@VHttpReqArg@TgBot@@V?$allocator@VHttpReqArg@TgBot@@@std@@@std@@AEAAAEAVHttpReqArg@TgBot@@AEAY07$$CBDAEAH@Z
	??$_Emplace_one_at_back@AEAY07$$CBDAEAV?$basic_string@DU?$char_traits@D@std@@V?$allocator@D@2@@std@@@?$vector@VHttpReqArg@TgBot@@V?$allocator@VHttpReqArg@TgBot@@@std@@@std@@AEAAAEAVHttpReqArg@TgBot@@AEAY07$$CBDAEAV?$basic_string@DU?$char_traits@D@std@@V?$allocator@D@2@@1@@Z
	??$_Emplace_one_at_back@AEAY07$$CBDAEAV?$basic_string@DU?$char_traits@D@std@@V?$allocator@D@2@@std@@_NAEAV12@AEAV12@@?$vector@VHttpReqArg@TgBot@@V?$allocator@VHttpReqArg@TgBot@@@std@@@std@@AEAAAEAVHttpReqArg@TgBot@@AEAY07$$CBDAEAV?$basic_string@DU?$char_traits@D@std@@V?$allocator@D@2@@1@$$QEA_N11@Z
	??$_Emplace_one_at_back@AEAY07$$CBDAEAV?$variant@_JV?$basic_string@DU?$char_traits@D@std@@V?$allocator@D@2@@std@@@boost@@@?$vector@VHttpReqArg@TgBot@@V?$allocator@VHttpReqArg@TgBot@@@std@@@std@@AEAAAEAVHttpReqArg@TgBot@@AEAY07$$CBDAEAV?$variant@_JV?$basic_string@DU?$char_traits@D@std@@V?$allocator@D@2@@std@@@boost@@@Z
	??$_Emplace_one_at_back@AEAY07$$CBDAEA_J@?$vector@VHttpReqArg@TgBot@@V?$allocator@VHttpReqArg@TgBot@@@std@@@std@@AEAAAEAVHttpReqArg@TgBot@@AEAY07$$CBDAEA_J@Z
	??$_Emplace_one_at_back@AEAY07$$CBDAEBH@?$vector@VHttpReqArg@TgBot@@V?$allocator@VHttpReqArg@TgBot@@@std@@@std@@AEAAAEAVHttpReqArg@TgBot@@AEAY07$$CBDAEBH@Z
	??$_Emplace_one_at_back@AEAY07$$CBDAEBV?$basic_string@DU?$char_traits@D@std@@V?$allocator@D@2@@std@@@?$vector@VHttpReqArg@TgBot@@V?$allocator@VHttpReqArg@TgBot@@@std@@@std@@AEAAAEAVHttpReqArg@TgBot@@AEAY07$$CBDAEBV?$basic_string@DU?$char_traits@D@std@@V?$allocator@D@2@@1@@Z
	??$_Emplace_one_at_back@AEAY07$$CBDV?$basic_string@DU?$char_traits@D@std@@V?$allocator@D@2@@std@@@?$vector@VHttpReqArg@TgBot@@V?$allocator@VHttpReqArg@TgBot@@@std@@@std@@AEAAAEAVHttpReqArg@TgBot@@AEAY07$$CBD$$QEAV?$basic_string@DU?$char_traits@D@std@@V?$allocator@D@2@@1@@Z
	??$_Emplace_one_at_back@AEAY08$$CBDAEAH@?$vector@VHttpReqArg@TgBot@@V?$allocator@VHttpReqArg@TgBot@@@std@@@std@@AEAAAEAVHttpReqArg@TgBot@@AEAY08$$CBDAEAH@Z
	??$_Emplace_one_at_back@AEAY08$$CBDAEAM@?$vector@VHttpReqArg@TgBot@@V?$allocator@VHttpReqArg@TgBot@@@std@@@std@@AEAAAEAVHttpReqArg@TgBot@@AEAY08$$CBDAEAM@Z
	??$_Emplace_one_at_back@AEAY08$$CBDAEAV?$basic_string@DU?$char_traits@D@std@@V?$allocator@D@2@@std@@@?$vector@VHttpReqArg@TgBot@@V?$allocator@VHttpReqArg@TgBot@@@std@@@std@@AEAAAEAVHttpReqArg@TgBot@@AEAY08$$CBDAEAV?$basic_string@DU?$char_traits@D@std@@V?$allocator@D@2@@1@@Z
	??$_Emplace_one_at_back@AEAY08$$CBDAEAV?$basic_string@DU?$char_traits@D@std@@V?$allocator@D@2@@std@@_NAEAV12@AEAV12@@?$vector@VHttpReqArg@TgBot@@V?$allocator@VHttpReqArg@TgBot@@@std@@@std@@AEAAAEAVHttpReqArg@TgBot@@AEAY08$$CBDAEAV?$basic_string@DU?$char_traits@D@std@@V?$allocator@D@2@@1@$$QEA_N11@Z
	??$_Emplace_one_at_back@AEAY08$$CBDAEBV?$basic_string@DU?$char_traits@D@std@@V?$allocator@D@2@@std@@@?$vector@VHttpReqArg@TgBot@@V?$allocator@VHttpReqArg@TgBot@@@std@@@std@@AEAAAEAVHttpReqArg@TgBot@@AEAY08$$CBDAEBV?$basic_string@DU?$char_traits@D@std@@V?$allocator@D@2@@1@@Z
	??$_Emplace_one_at_back@AEAY08$$CBDV?$basic_string@DU?$char_traits@D@std@@V?$allocator@D@2@@std@@@?$vector@VHttpReqArg@TgBot@@V?$allocator@VHttpReqArg@TgBot@@@std@@@std@@AEAAAEAVHttpReqArg@TgBot@@AEAY08$$CBD$$QEAV?$basic_string@DU?$char_traits@D@std@@V?$allocator@D@2@@1@@Z
	??$_Emplace_one_at_back@AEAY09$$CBDAEAM@?$vector@VHttpReqArg@TgBot@@V?$allocator@VHttpReqArg@TgBot@@@std@@@std@@AEAAAEAVHttpReqArg@TgBot@@AEAY09$$CBDAEAM@Z
	??$_Emplace_one_at_back@AEAY09$$CBDAEAV?$basic_string@DU?$char_traits@D@std@@V?$allocator@D@2@@std@@@?$vector@VHttpReqArg@TgBot@@V?$allocator@VHttpReqArg@TgBot@@@std@@@std@@AEAAAEAVHttpReqArg@TgBot@@AEAY09$$CBDAEAV?$basic_string@DU?$char_traits@D@std@@V?$allocator@D@2@@1@@Z
	??$_Emplace_one_at_back@AEAY09$$CBDAEAV?$basic_string@DU?$char_traits@D@std@@V?$allocator@D@2@@std@@_NAEAV12@AEAV12@@?$vector@VHttpReqArg@TgBot@@V?$allocator@VHttpReqArg@TgBot@@@std@@@std@@AEAAAEAVHttpReqArg@TgBot@@AEAY09$$CBDAEAV?$basic_string@DU?$char_traits@D@std@@V?$allocator@D@2@@1@$$QEA_N11@Z
	??$_Emplace_one_at_back@AEAY09$$CBDAEA_N@?$vector@VHttpReqArg@TgBot@@V?$allocator@VHttpReqArg@TgBot@@@std@@@std@@AEAAAEAVHttpReqArg@TgBot@@AEAY09$$CBDAEA_N@Z
	??$_Emplace_one_at_back@AEAY09$$CBDAEBV?$basic_string@DU?$char_traits@D@std@@V?$allocator@D@2@@std@@@?$vector@VHttpReqArg@TgBot@@V?$allocator@VHttpReqArg@TgBot@@@std@@@std@@AEAAAEAVHttpReqArg@TgBot@@AEAY09$$CBDAEBV?$basic_string@DU?$char_traits@D@std@@V?$allocator@D@2@@1@@Z
	??$_Emplace_one_at_back@AEAY0BA@$$CBDAEAV?$basic_string@DU?$char_traits@D@std@@V?$allocator@D@2@@std@@@?$vector@VHttpReqArg@TgBot@@V?$allocator@VHttpReqArg@TgBot@@@std@@@std@@AEAAAEAVHttpReqArg@TgBot@@AEAY0BA@$$CBDAEAV?$basic_string@DU?$char_traits@D@std@@V?$allocator@D@2@@1@@Z
	??$_Emplace_one_at_back@AEAY0BA@$$CBDAEA_N@?$vector@VHttpReqArg@TgBot@@V?$allocator@VHttpReqArg@TgBot@@@std@@@std@@AEAAAEAVHttpReqArg@TgBot@@AEAY0BA@$$CBDAEA_N@Z
	??$_Emplace_one_at_back@AEAY0BA@$$CBDAEBH@?$vector@VHttpReqArg@TgBot@@V?$allocator@VHttpReqArg@TgBot@@@std@@@std@@AEAAAEAVHttpReqArg@TgBot@@AEAY0BA@$$CBDAEBH@Z
	??$_Emplace_one_at_back@AEAY0BA@$$CBDAEBV?$basic_string@DU?$char_traits@D@std@@V?$allocator@D@2@@std@@@?$vector@VHttpReqArg@TgBot@@V?$allocator@VHttpReqArg@TgBot@@@std@@@std@@AEAAAEAVHttpReqArg@TgBot@@AEAY0BA@$$CBDAEBV?$basic_string@DU?$char_traits@D@std@@V?$allocator@D@2@@1@@Z
	??$_Emplace_one_at_back@AEAY0BB@$$CBDAEA_N@?$vector@VHttpReqArg@TgBot@@V?$allocator@VHttpReqArg@TgBot@@@std@@@std@@AEAAAEAVHttpReqArg@TgBot@@AEAY0BB@$$CBDAEA_N@Z
	??$_Emplace_one_at_back@AEAY0BB@$$CBDAEBV?$basic_string@DU?$char_traits@D@std@@V?$allocator@D@2@@std@@@?$vector@VHttpReqArg@TgBot@@V?$allocator@VHttpReqArg@TgBot@@@std@@@std@@AEAAAEAVHttpReqArg@TgBot@@AEAY0BB@$$CBDAEBV?$basic_string@DU?$char_traits@D@std@@V?$allocator@D@2@@1@@Z
	??$_Emplace_one_at_back@AEAY0BB@$$CBDV?$basic_string@DU?$char_traits@D@std@@V?$allocator@D@2@@std@@@?$vector@VHttpReqArg@TgBot@@V?$allocator@VHttpReqArg@TgBot@@@std@@@std@@AEAAAEAVHttpReqArg@TgBot@@AEAY0BB@$$CBD$$QEAV?$basic_string@DU?$char_traits@D@std@@V?$allocator@D@2@@1@@Z
	??$_Emplace_one_at_back@AEAY0BC@$$CBDAEAH@?$vector@VHttpReqArg@TgBot@@V?$allocator@VHttpReqArg@TgBot@@@std@@@std@@AEAAAEAVHttpReqArg@TgBot@@AEAY0BC@$$CBDAEAH@Z
	??$_Emplace_one_at_back@AEAY0BC@$$CBDAEA_N@?$vector@VHttpReqArg@TgBot@@V?$allocator@VHttpReqArg@TgBot@@@std@@@std@@AEAAAEAVHttpReqArg@TgBot@@AEAY0BC@$$CBDAEA_N@Z
	??$_Emplace_one_at_back@AEAY0BC@$$CBDAEBV?$basic_string@DU?$char_traits@D@std@@V?$allocator@D@2@@std@@@?$vector@VHttpReqArg@TgBot@@V?$allocator@VHttpReqArg@TgBot@@@std@@@std@@AEAAAEAVHttpReqArg@TgBot@@AEAY0BC@$$CBDAEBV?$basic_string@DU?$char_traits@D@std@@V?$allocator@D@2@@1@@Z
	??$_Emplace_one_at_back@AEAY0BD@$$CBDAEA_N@?$vector@VHttpReqArg@TgBot@@V?$allocator@VHttpReqArg@TgBot@@@std@@@std@@AEAAAEAVHttpReqArg@TgBot@@AEAY0BD@$$CBDAEA_N@Z
	??$_Emplace_one_at_back@AEAY0BE@$$CBDAEAH@?$vector@VHttpReqArg@TgBot@@V?$allocator@VHttpReqArg@TgBot@@@std@@@std@@AEAAAEAVHttpReqArg@TgBot@@AEAY0BE@$$CBDAEAH@Z
	??$_Emplace_one_at_back@AEAY0BE@$$CBDAEAM@?$vector@VHttpReqArg@TgBot@@V?$allocator@VHttpReqArg@TgBot@@@std@@@std@@AEAAAEAVHttpReqArg@TgBot@@AEAY0BE@$$CBDAEAM@Z
	??$_Emplace_one_at_back@AEAY0BE@$$CBDAEA_J@?$vector@VHttpReqArg@TgBot@@V?$allocator@VHttpReqArg@TgBot@@@std@@@std@@AEAAAEAVHttpReqArg@TgBot@@AEAY0BE@$$CBDAEA_J@Z
	??$_Emplace_one_at_back@AEAY0BE@$$CBDAEA_N@?$vector@VHttpReqArg@TgBot@@V?$allocator@VHttpReqArg@TgBot@@@std@@@std@@AEAAAEAVHttpReqArg@TgBot@@AEAY0BE@$$CBDAEA_N@Z
	??$_Emplace_one_at_back@AEAY0BE@$$CBDAEBV?$basic_string@DU?$char_traits@D@std@@V?$allocator@D@2@@std@@@?$vector@VHttpReqArg@TgBot@@V?$allocator@VHttpReqArg@TgBot@@@std@@@std@@AEAAAEAVHttpReqArg@TgBot@@AEAY0BE@$$CBDAEBV?$basic_string@DU?$char_traits@D@std@@V?$allocator@D@2@@1@@Z
	??$_Emplace_one_at_back@AEAY0BF@$$CBDAEAV?$basic_string@DU?$char_traits@D@std@@V?$allocator@D@2@@std@@@?$vector@VHttpReqArg@TgBot@@V?$allocator@VHttpReqArg@TgBot@@@std@@@std@@AEAAAEAVHttpReqArg@TgBot@@AEAY0BF@$$CBDAEAV?$basic_string@DU?$char_traits@D@std@@V?$allocator@D@2@@1@@Z
	??$_Emplace_one_at_back@AEAY0BF@$$CBDAEA_N@?$vector@VHttpReqArg@TgBot@@V?$allocator@VHttpReqArg@TgBot@@@std@@@std@@AEAAAEAVHttpReqArg@TgBot@@AEAY0BF@$$CBDAEA_N@Z
	??$_Emplace_one_at_back@AEAY0BF@$$CBDAEBV?$basic_string@DU?$char_traits@D@std@@V?$allocator@D@2@@std@@@?$vector@VHttpReqArg@TgBot@@V?$allocator@VHttpReqArg@TgBot@@@std@@@std@@AEAAAEAVHttpReqArg@TgBot@@AEAY0BF@$$CBDAEBV?$basic_string@DU?$char_traits@D@std@@V?$allocator@D@2@@1@@Z
	??$_Emplace_one_at_back@AEAY0BF@$$CBDV?$basic_string@DU?$char_traits@D@std@@V?$allocator@D@2@@std@@@?$vector@VHttpReqArg@TgBot@@V?$allocator@VHttpReqArg@TgBot@@@std@@@std@@AEAAAEAVHttpReqArg@TgBot@@AEAY0BF@$$CBD$$QEAV?$basic_string@DU?$char_traits@D@std@@V?$allocator@D@2@@1@@Z
	??$_Emplace_one_at_back@AEAY0BG@$$CBDAEA_N@?$vector@VHttpReqArg@TgBot@@V?$allocator@VHttpReqArg@TgBot@@@std@@@std@@AEAAAEAVHttpReqArg@TgBot@@AEAY0BG@$$CBDAEA_N@Z
	??$_Emplace_one_at_back@AEAY0BG@$$CBDAEBV?$basic_string@DU?$char_traits@D@std@@V?$allocator@D@2@@std@@@?$vector@VHttpReqArg@TgBot@@V?$allocator@VHttpReqArg@TgBot@@@std@@@std@@AEAAAEAVHttpReqArg@TgBot@@AEAY0BG@$$CBDAEBV?$basic_string@DU?$char_traits@D@std@@V?$allocator@D@2@@1@@Z
	??$_Emplace_one_at_back@AEAY0BG@$$CBDV?$basic_string@DU?$char_traits@D@std@@V?$allocator@D@2@@std@@@?$vector@VHttpReqArg@TgBot@@V?$allocator@VHttpReqArg@TgBot@@@std@@@std@@AEAAAEAVHttpReqArg@TgBot@@AEAY0BG@$$CBD$$QEAV?$basic_string@DU?$char_traits@D@std@@V?$allocator@D@2@@1@@Z
	??$_Emplace_one_at_back@AEAY0BH@$$CBDAEAH@?$vector@VHttpReqArg@TgBot@@V?$allocator@VHttpReqArg@TgBot@@@std@@@std@@AEAAAEAVHttpReqArg@TgBot@@AEAY0BH@$$CBDAEAH@Z
	??$_Emplace_one_at_back@AEAY0BH@$$CBDAEA_N@?$vector@VHttpReqArg@TgBot@@V?$allocator@VHttpReqArg@TgBot@@@std@@@std@@AEAAAEAVHttpReqArg@TgBot@@AEAY0BH@$$CBDAEA_N@Z
	??$_Emplace_one_at_back@AEAY0BH@$$CBDAEBH@?$vector@VHttpReqArg@TgBot@@V?$allocator@VHttpReqArg@TgBot@@@std@@@std@@AEAAAEAVHttpReqArg@TgBot@@AEAY0BH@$$CBDAEBH@Z
	??$_Emplace_one_at_back@AEAY0BH@$$CBDAEBV?$basic_string@DU?$char_traits@D@std@@V?$allocator@D@2@@std@@@?$vector@VHttpReqArg@TgBot@@V?$allocator@VHttpReqArg@TgBot@@@std@@@std@@AEAAAEAVHttpReqArg@TgBot@@AEAY0BH@$$CBDAEBV?$basic_string@DU?$char_traits@D@std@@V?$allocator@D@2@@1@@Z
	??$_Emplace_one_at_back@AEAY0BI@$$CBDAEA_N@?$vector@VHttpReqArg@TgBot@@V?$allocator@VHttpReqArg@TgBot@@@std@@@std@@AEAAAEAVHttpReqArg@TgBot@@AEAY0BI@$$CBDAEA_N@Z
	??$_Emplace_one_at_back@AEAY0BJ@$$CBDAEA_N@?$vector@VHttpReqArg@TgBot@@V?$allocator@VHttpReqArg@TgBot@@@std@@@std@@AEAAAEAVHttpReqArg@TgBot@@AEAY0BJ@$$CBDAEA_N@Z
	??$_Emplace_one_at_back@AEAY0BM@$$CBDAEA_N@?$vector@VHttpReqArg@TgBot@@V?$allocator@VHttpReqArg@TgBot@@@std@@@std@@AEAAAEAVHttpReqArg@TgBot@@AEAY0BM@$$CBDAEA_N@Z
	??$_Emplace_one_at_back@AEAY0BO@$$CBDAEA_N@?$vector@VHttpReqArg@TgBot@@V?$allocator@VHttpReqArg@TgBot@@@std@@@std@@AEAAAEAVHttpReqArg@TgBot@@AEAY0BO@$$CBDAEA_N@Z
	??$_Emplace_one_at_back@AEAY0BP@$$CBDAEA_N@?$vector@VHttpReqArg@TgBot@@V?$allocator@VHttpReqArg@TgBot@@@std@@@std@@AEAAAEAVHttpReqArg@TgBot@@AEAY0BP@$$CBDAEA_N@Z
	??$_Emplace_one_at_back@AEAY0CB@$$CBDAEA_N@?$vector@VHttpReqArg@TgBot@@V?$allocator@VHttpReqArg@TgBot@@@std@@@std@@AEAAAEAVHttpReqArg@TgBot@@AEAY0CB@$$CBDAEA_N@Z
	??$_Emplace_one_at_back@AEAY0L@$$CBDAEAH@?$vector@VHttpReqArg@TgBot@@V?$allocator@VHttpReqArg@TgBot@@@std@@@std@@AEAAAEAVHttpReqArg@TgBot@@AEAY0L@$$CBDAEAH@Z
	??$_Emplace_one_at_back@AEAY0L@$$CBDAEAV?$basic_string@DU?$char_traits@D@std@@V?$allocator@D@2@@std@@@?$vector@VHttpReqArg@TgBot@@V?$allocator@VHttpReqArg@TgBot@@@std@@@std@@AEAAAEAVHttpReqArg@TgBot@@AEAY0L@$$CBDAEAV?$basic_string@DU?$char_traits@D@std@@V?$allocator@D@2@@1@@Z
	??$_Emplace_one_at_back@AEAY0L@$$CBDAEAV?$basic_string@DU?$char_traits@D@std@@V?$allocator@D@2@@std@@_NAEAV12@AEAV12@@?$vector@VHttpReqArg@TgBot@@V?$allocator@VHttpReqArg@TgBot@@@std@@@std@@AEAAAEAVHttpReqArg@TgBot@@AEAY0L@$$CBDAEAV?$basic_string@DU?$char_traits@D@std@@V?$allocator@D@2@@1@$$QEA_N11@Z
	??$_Emplace_one_at_back@AEAY0L@$$CBDAEA_J@?$vector@VHttpReqArg@TgBot@@V?$allocator@VHttpReqArg@TgBot@@@std@@@std@@AEAAAEAVHttpReqArg@TgBot@@AEAY0L@$$CBDAEA_J@Z
	??$_Emplace_one_at_back@AEAY0L@$$CBDAEA_N@?$vector@VHttpReqArg@TgBot@@V?$allocator@VHttpReqArg@TgBot@@@std@@@std@@AEAAAEAVHttpReqArg@TgBot@@AEAY0L@$$CBDAEA_N@Z
	??$_Emplace_one_at_back@AEAY0L@$$CBDAEBV?$basic_string@DU?$char_traits@D@std@@V?$allocator@D@2@@std@@@?$vector@VHttpReqArg@TgBot@@V?$allocator@VHttpReqArg@TgBot@@@std@@@std@@AEAAAEAVHttpReqArg@TgBot@@AEAY0L@$$CBDAEBV?$basic_string@DU?$char_traits@D@std@@V?$allocator@D@2@@1@@Z
	??$_Emplace_one_at_back@AEAY0M@$$CBDAEAH@?$vector@VHttpReqArg@TgBot@@V?$allocator@VHttpReqArg@TgBot@@@std@@@std@@AEAAAEAVHttpReqArg@TgBot@@AEAY0M@$$CBDAEAH@Z
	??$_Emplace_one_at_back@AEAY0M@$$CBDAEAV?$basic_string@DU?$char_traits@D@std@@V?$allocator@D@2@@std@@@?$vector@VHttpReqArg@TgBot@@V?$allocator@VHttpReqArg@TgBot@@@std@@@std@@AEAAAEAVHttpReqArg@TgBot@@AEAY0M@$$CBDAEAV?$basic_string@DU?$char_traits@D@std@@V?$allocator@D@2@@1@@Z
	??$_Emplace_one_at_back@AEAY0M@$$CBDAEAV?$basic_string@DU?$char_traits@D@std@@V?$allocator@D@2@@std@@_NAEAV12@AEAV12@@?$vector@VHttpReqArg@TgBot@@V?$allocator@VHttpReqArg@TgBot@@@std@@@std@@AEAAAEAVHttpReqArg@TgBot@@AEAY0M@$$CBDAEAV?$basic_string@DU?$char_traits@D@std@@V?$allocator@D@2@@1@$$QEA_N11@Z
	??$_Emplace_one_at_back@AEAY0M@$$CBDAEA_N@?$vector@VHttpReqArg@TgBot@@V?$allocator@VHttpReqArg@TgBot@@@std@@@std@@AEAAAEAVHttpReqArg@TgBot@@AEAY0M@$$CBDAEA_N@Z
	??$_Emplace_one_at_back@AEAY0M@$$CBDAEBH@?$vector@VHttpReqArg@TgBot@@V?$allocator@VHttpReqArg@TgBot@@@std@@@std@@AEAAAEAVHttpReqArg@TgBot@@AEAY0M@$$CBDAEBH@Z
	??$_Emplace_one_at_back@AEAY0M@$$CBDAEBV?$basic_string@DU?$char_traits@D@std@@V?$allocator@D@2@@std@@@?$vector@VHttpReqArg@TgBot@@V?$allocator@VHttpReqArg@TgBot@@@std@@@std@@AEAAAEAVHttpReqArg@TgBot@@AEAY0M@$$CBDAEBV?$basic_string@DU?$char_traits@D@std@@V?$allocator@D@2@@1@@Z
	??$_Emplace_one_at_back@AEAY0M@$$CBDV?$basic_string@DU?$char_traits@D@std@@V?$allocator@D@2@@std@@@?$vector@VHttpReqArg@TgBot@@V?$allocator@VHttpReqArg@TgBot@@@std@@@std@@AEAAAEAVHttpReqArg@TgBot@@AEAY0M@$$CBD$$QEAV?$basic_string@DU?$char_traits@D@std@@V?$allocator@D@2@@1@@Z
	??$_Emplace_one_at_back@AEAY0N@$$CBDAEAH@?$vector@VHttpReqArg@TgBot@@V?$allocator@VHttpReqArg@TgBot@@@std@@@std@@AEAAAEAVHttpReqArg@TgBot@@AEAY0N@$$CBDAEAH@Z
	??$_Emplace_one_at_back@AEAY0N@$$CBDAEAV?$basic_string@DU?$char_traits@D@std@@V?$allocator@D@2@@std@@_NAEAV12@AEAV12@@?$vector@VHttpReqArg@TgBot@@V?$allocator@VHttpReqArg@TgBot@@@std@@@std@@AEAAAEAVHttpReqArg@TgBot@@AEAY0N@$$CBDAEAV?$basic_string@DU?$char_traits@D@std@@V?$allocator@D@2@@1@$$QEA_N11@Z
	??$_Emplace_one_at_back@AEAY0N@$$CBDAEAV?$variant@_JV?$basic_string@DU?$char_traits@D@std@@V?$allocator@D@2@@std@@@boost@@@?$vector@VHttpReqArg@TgBot@@V?$allocator@VHttpReqArg@TgBot@@@std@@@std@@AEAAAEAVHttpReqArg@TgBot@@AEAY0N@$$CBDAEAV?$variant@_JV?$basic_string@DU?$char_traits@D@std@@V?$allocator@D@2@@std@@@boost@@@Z
	??$_Emplace_one_at_back@AEAY0N@$$CBDAEA_N@?$vector@VHttpReqArg@TgBot@@V?$allocator@VHttpReqArg@TgBot@@@std@@@std@@AEAAAEAVHttpReqArg@TgBot@@AEAY0N@$$CBDAEA_N@Z
	??$_Emplace_one_at_back@AEAY0N@$$CBDAEBV?$basic_string@DU?$char_traits@D@std@@V?$allocator@D@2@@std@@@?$vector@VHttpReqArg@TgBot@@V?$allocator@VHttpReqArg@TgBot@@@std@@@std@@AEAAAEAVHttpReqArg@TgBot@@AEAY0N@$$CBDAEBV?$basic_string@DU?$char_traits@D@std@@V?$allocator@D@2@@1@@Z
	??$_Emplace_one_at_back@AEAY0N@$$CBDV?$basic_string@DU?$char_traits@D@std@@V?$allocator@D@2@@std@@@?$vector@VHttpReqArg@TgBot@@V?$allocator@VHttpReqArg@TgBot@@@std@@@std@@AEAAAEAVHttpReqArg@TgBot@@AEAY0N@$$CBD$$QEAV?$basic_string@DU?$char_traits@D@std@@V?$allocator@D@2@@1@@Z
	??$_Emplace_one_at_back@AEAY0O@$$CBDAEBV?$basic_string@DU?$char_traits@D@std@@V?$allocator@D@2@@std@@@?$vector@VHttpReqArg@TgBot@@V?$allocator@VHttpReqArg@TgBot@@@std@@@std@@AEAAAEAVHttpReqArg@TgBot@@AEAY0O@$$CBDAEBV?$basic_string@DU?$char_traits@D@std@@V?$allocator@D@2@@1@@Z
	??$_Emplace_one_at_back@AEAY0O@$$CBDV?$basic_string@DU?$char_traits@D@std@@V?$allocator@D@2@@std@@@?$vector@VHttpReqArg@TgBot@@V?$allocator@VHttpReqArg@TgBot@@@std@@@std@@AEAAAEAVHttpReqArg@TgBot@@AEAY0O@$$CBD$$QEAV?$basic_string@DU?$char_traits@D@std@@V?$allocator@D@2@@1@@Z
	??$_Emplace_one_at_back@AEAY0P@$$CBDAEAH@?$vector@VHttpReqArg@TgBot@@V?$allocator@VHttpReqArg@TgBot@@@std@@@std@@AEAAAEAVHttpReqArg@TgBot@@AEAY0P@$$CBDAEAH@Z
	??$_Emplace_one_at_back@AEAY0P@$$CBDAEA_J@?$vector@VHttpReqArg@TgBot@@V?$allocator@VHttpReqArg@TgBot@@@std@@@std@@AEAAAEAVHttpReqArg@TgBot@@AEAY0P@$$CBDAEA_J@Z
	??$_Emplace_one_at_back@AEAY0P@$$CBDAEA_N@?$vector@VHttpReqArg@TgBot@@V?$allocator@VHttpReqArg@TgBot@@@std@@@std@@AEAAAEAVHttpReqArg@TgBot@@AEAY0P@$$CBDAEA_N@Z
	??$_Emplace_one_at_back@AEAY0P@$$CBDAEBV?$basic_string@DU?$char_traits@D@std@@V?$allocator@D@2@@std@@@?$vector@VHttpReqArg@TgBot@@V?$allocator@VHttpReqArg@TgBot@@@std@@@std@@AEAAAEAVHttpReqArg@TgBot@@AEAY0P@$$CBDAEBV?$basic_string@DU?$char_traits@D@std@@V?$allocator@D@2@@1@@Z
	??$_Emplace_one_at_back@AEBUlayer@?$standard_callbacks@V?$basic_ptree@V?$basic_string@DU?$char_traits@D@std@@V?$allocator@D@2@@std@@V12@U?$less@V?$basic_string@DU?$char_traits@D@std@@V?$allocator@D@2@@std@@@2@@property_tree@boost@@@detail@json_parser@property_tree@boost@@@?$vector@Ulayer@?$standard_callbacks@V?$basic_ptree@V?$basic_string@DU?$char_traits@D@std@@V?$allocator@D@2@@std@@V12@U?$less@V?$basic_string@DU?$char_traits@D@std@@V?$allocator@D@2@@std@@@2@@property_tree@boost@@@detail@json_parser@property_tree@boost@@V?$allocator@Ulayer@?$standard_callbacks@V?$basic_ptree@V?$basic_string@DU?$char_traits@D@std@@V?$allocator@D@2@@std@@V12@U?$less@V?$basic_string@DU?$char_traits@D@std@@V?$allocator@D@2@@std@@@2@@property_tree@boost@@@detail@json_parser@property_tree@boost@@@std@@@std@@AEAAAEAUlayer@?$standard_callbacks@V?$basic_ptree@V?$basic_string@DU?$char_traits@D@std@@V?$allocator@D@2@@std@@V12@U?$less@V?$basic_string@DU?$char_traits@D@std@@V?$allocator@D@2@@std@@@2@@property_tree@boost@@@detail@json_parser@property_tree@boost@@AEBU234567@@Z
	??$_Emplace_one_at_back@AEBV?$basic_string@DU?$char_traits@D@std@@V?$allocator@D@2@@std@@@?$vector@V?$basic_string@DU?$char_traits@D@std@@V?$allocator@D@2@@std@@V?$allocator@V?$basic_string@DU?$char_traits@D@std@@V?$allocator@D@2@@std@@@2@@std@@AEAAAEAV?$basic_string@DU?$char_traits@D@std@@V?$allocator@D@2@@1@AEBV21@@Z
	??$_Emplace_one_at_back@AEBV?$function@$$A6AXV?$shared_ptr@VCallbackQuery@TgBot@@@std@@@Z@std@@@?$vector@V?$function@$$A6AXV?$shared_ptr@VCallbackQuery@TgBot@@@std@@@Z@std@@V?$allocator@V?$function@$$A6AXV?$shared_ptr@VCallbackQuery@TgBot@@@std@@@Z@std@@@2@@std@@AEAAAEAV?$function@$$A6AXV?$shared_ptr@VCallbackQuery@TgBot@@@std@@@Z@1@AEBV21@@Z
	??$_Emplace_one_at_back@AEBV?$function@$$A6AXV?$shared_ptr@VChatJoinRequest@TgBot@@@std@@@Z@std@@@?$vector@V?$function@$$A6AXV?$shared_ptr@VChatJoinRequest@TgBot@@@std@@@Z@std@@V?$allocator@V?$function@$$A6AXV?$shared_ptr@VChatJoinRequest@TgBot@@@std@@@Z@std@@@2@@std@@AEAAAEAV?$function@$$A6AXV?$shared_ptr@VChatJoinRequest@TgBot@@@std@@@Z@1@AEBV21@@Z
	??$_Emplace_one_at_back@AEBV?$function@$$A6AXV?$shared_ptr@VChatMemberUpdated@TgBot@@@std@@@Z@std@@@?$vector@V?$function@$$A6AXV?$shared_ptr@VChatMemberUpdated@TgBot@@@std@@@Z@std@@V?$allocator@V?$function@$$A6AXV?$shared_ptr@VChatMemberUpdated@TgBot@@@std@@@Z@std@@@2@@std@@AEAAAEAV?$function@$$A6AXV?$shared_ptr@VChatMemberUpdated@TgBot@@@std@@@Z@1@AEBV21@@Z
	??$_Emplace_one_at_back@AEBV?$function@$$A6AXV?$shared_ptr@VChosenInlineResult@TgBot@@@std@@@Z@std@@@?$vector@V?$function@$$A6AXV?$shared_ptr@VChosenInlineResult@TgBot@@@std@@@Z@std@@V?$allocator@V?$function@$$A6AXV?$shared_ptr@VChosenInlineResult@TgBot@@@std@@@Z@std@@@2@@std@@AEAAAEAV?$function@$$A6AXV?$shared_ptr@VChosenInlineResult@TgBot@@@std@@@Z@1@AEBV21@@Z
	??$_Emplace_one_at_back@AEBV?$function@$$A6AXV?$shared_ptr@VInlineQuery@TgBot@@@std@@@Z@std@@@?$vector@V?$function@$$A6AXV?$shared_ptr@VInlineQuery@TgBot@@@std@@@Z@std@@V?$allocator@V?$function@$$A6AXV?$shared_ptr@VInlineQuery@TgBot@@@std@@@Z@std@@@2@@std@@AEAAAEAV?$function@$$A6AXV?$shared_ptr@VInlineQuery@TgBot@@@std@@@Z@1@AEBV21@@Z
	??$_Emplace_one_at_back@AEBV?$function@$$A6AXV?$shared_ptr@VMessage@TgBot@@@std@@@Z@std@@@?$vector@V?$function@$$A6AXV?$shared_ptr@VMessage@TgBot@@@std@@@Z@std@@V?$allocator@V?$function@$$A6AXV?$shared_ptr@VMessage@TgBot@@@std@@@Z@std@@@2@@std@@AEAAAEAV?$function@$$A6AXV?$shared_ptr@VMessage@TgBot@@@std@@@Z@1@AEBV21@@Z
	??$_Emplace_one_at_back@AEBV?$function@$$A6AXV?$shared_ptr@VPoll@TgBot@@@std@@@Z@std@@@?$vector@V?$function@$$A6AXV?$shared_ptr@VPoll@TgBot@@@std@@@Z@std@@V?$allocator@V?$function@$$A6AXV?$shared_ptr@VPoll@TgBot@@@std@@@Z@std@@@2@@std@@AEAAAEAV?$function@$$A6AXV?$shared_ptr@VPoll@TgBot@@@std@@@Z@1@AEBV21@@Z
	??$_Emplace_one_at_back@AEBV?$function@$$A6AXV?$shared_ptr@VPollAnswer@TgBot@@@std@@@Z@std@@@?$vector@V?$function@$$A6AXV?$shared_ptr@VPollAnswer@TgBot@@@std@@@Z@std@@V?$allocator@V?$function@$$A6AXV?$shared_ptr@VPollAnswer@TgBot@@@std@@@Z@std@@@2@@std@@AEAAAEAV?$function@$$A6AXV?$shared_ptr@VPollAnswer@TgBot@@@std@@@Z@1@AEBV21@@Z
	??$_Emplace_one_at_back@AEBV?$function@$$A6AXV?$shared_ptr@VPreCheckoutQuery@TgBot@@@std@@@Z@std@@@?$vector@V?$function@$$A6AXV?$shared_ptr@VPreCheckoutQuery@TgBot@@@std@@@Z@std@@V?$allocator@V?$function@$$A6AXV?$shared_ptr@VPreCheckoutQuery@TgBot@@@std@@@Z@std@@@2@@std@@AEAAAEAV?$function@$$A6AXV?$shared_ptr@VPreCheckoutQuery@TgBot@@@std@@@Z@1@AEBV21@@Z
	??$_Emplace_one_at_back@AEBV?$function@$$A6AXV?$shared_ptr@VShippingQuery@TgBot@@@std@@@Z@std@@@?$vector@V?$function@$$A6AXV?$shared_ptr@VShippingQuery@TgBot@@@std@@@Z@std@@V?$allocator@V?$function@$$A6AXV?$shared_ptr@VShippingQuery@TgBot@@@std@@@Z@std@@@2@@std@@AEAAAEAV?$function@$$A6AXV?$shared_ptr@VShippingQuery@TgBot@@@std@@@Z@1@AEBV21@@Z
	??$_Emplace_one_at_back@AEBV?$vector@V?$shared_ptr@VPhotoSize@TgBot@@@std@@V?$allocator@V?$shared_ptr@VPhotoSize@TgBot@@@std@@@2@@std@@@?$vector@V?$vector@V?$shared_ptr@VPhotoSize@TgBot@@@std@@V?$allocator@V?$shared_ptr@VPhotoSize@TgBot@@@std@@@2@@std@@V?$allocator@V?$vector@V?$shared_ptr@VPhotoSize@TgBot@@@std@@V?$allocator@V?$shared_ptr@VPhotoSize@TgBot@@@std@@@2@@std@@@2@@std@@AEAAAEAV?$vector@V?$shared_ptr@VPhotoSize@TgBot@@@std@@V?$allocator@V?$shared_ptr@VPhotoSize@TgBot@@@std@@@2@@1@AEBV21@@Z
	??$_Emplace_one_at_back@H@?$vector@HV?$allocator@H@std@@@std@@AEAAAEAH$$QEAH@Z
	??$_Emplace_one_at_back@V?$basic_resolver_entry@Vtcp@ip@asio@boost@@@ip@asio@boost@@@?$vector@V?$basic_resolver_entry@Vtcp@ip@asio@boost@@@ip@asio@boost@@V?$allocator@V?$basic_resolver_entry@Vtcp@ip@asio@boost@@@ip@asio@boost@@@std@@@std@@AEAAAEAV?$basic_resolver_entry@Vtcp@ip@asio@boost@@@ip@asio@boost@@$$QEAV2345@@Z
	??$_Emplace_one_at_back@V?$basic_string@DU?$char_traits@D@std@@V?$allocator@D@2@@std@@@?$vector@V?$basic_string@DU?$char_traits@D@std@@V?$allocator@D@2@@std@@V?$allocator@V?$basic_string@DU?$char_traits@D@std@@V?$allocator@D@2@@std@@@2@@std@@AEAAAEAV?$basic_string@DU?$char_traits@D@std@@V?$allocator@D@2@@1@$$QEAV21@@Z
	??$_Emplace_one_at_back@V?$shared_ptr@VBotCommand@TgBot@@@std@@@?$vector@V?$shared_ptr@VBotCommand@TgBot@@@std@@V?$allocator@V?$shared_ptr@VBotCommand@TgBot@@@std@@@2@@std@@AEAAAEAV?$shared_ptr@VBotCommand@TgBot@@@1@$$QEAV21@@Z
	??$_Emplace_one_at_back@V?$shared_ptr@VChatMember@TgBot@@@std@@@?$vector@V?$shared_ptr@VChatMember@TgBot@@@std@@V?$allocator@V?$shared_ptr@VChatMember@TgBot@@@std@@@2@@std@@AEAAAEAV?$shared_ptr@VChatMember@TgBot@@@1@$$QEAV21@@Z
	??$_Emplace_one_at_back@V?$shared_ptr@VEncryptedPassportElement@TgBot@@@std@@@?$vector@V?$shared_ptr@VEncryptedPassportElement@TgBot@@@std@@V?$allocator@V?$shared_ptr@VEncryptedPassportElement@TgBot@@@std@@@2@@std@@AEAAAEAV?$shared_ptr@VEncryptedPassportElement@TgBot@@@1@$$QEAV21@@Z
	??$_Emplace_one_at_back@V?$shared_ptr@VGameHighScore@TgBot@@@std@@@?$vector@V?$shared_ptr@VGameHighScore@TgBot@@@std@@V?$allocator@V?$shared_ptr@VGameHighScore@TgBot@@@std@@@2@@std@@AEAAAEAV?$shared_ptr@VGameHighScore@TgBot@@@1@$$QEAV21@@Z
	??$_Emplace_one_at_back@V?$shared_ptr@VInlineKeyboardButton@TgBot@@@std@@@?$vector@V?$shared_ptr@VInlineKeyboardButton@TgBot@@@std@@V?$allocator@V?$shared_ptr@VInlineKeyboardButton@TgBot@@@std@@@2@@std@@AEAAAEAV?$shared_ptr@VInlineKeyboardButton@TgBot@@@1@$$QEAV21@@Z
	??$_Emplace_one_at_back@V?$shared_ptr@VKeyboardButton@TgBot@@@std@@@?$vector@V?$shared_ptr@VKeyboardButton@TgBot@@@std@@V?$allocator@V?$shared_ptr@VKeyboardButton@TgBot@@@std@@@2@@std@@AEAAAEAV?$shared_ptr@VKeyboardButton@TgBot@@@1@$$QEAV21@@Z
	??$_Emplace_one_at_back@V?$shared_ptr@VLabeledPrice@TgBot@@@std@@@?$vector@V?$shared_ptr@VLabeledPrice@TgBot@@@std@@V?$allocator@V?$shared_ptr@VLabeledPrice@TgBot@@@std@@@2@@std@@AEAAAEAV?$shared_ptr@VLabeledPrice@TgBot@@@1@$$QEAV21@@Z
	??$_Emplace_one_at_back@V?$shared_ptr@VMessage@TgBot@@@std@@@?$vector@V?$shared_ptr@VMessage@TgBot@@@std@@V?$allocator@V?$shared_ptr@VMessage@TgBot@@@std@@@2@@std@@AEAAAEAV?$shared_ptr@VMessage@TgBot@@@1@$$QEAV21@@Z
	??$_Emplace_one_at_back@V?$shared_ptr@VMessageEntity@TgBot@@@std@@@?$vector@V?$shared_ptr@VMessageEntity@TgBot@@@std@@V?$allocator@V?$shared_ptr@VMessageEntity@TgBot@@@std@@@2@@std@@AEAAAEAV?$shared_ptr@VMessageEntity@TgBot@@@1@$$QEAV21@@Z
	??$_Emplace_one_at_back@V?$shared_ptr@VPassportFile@TgBot@@@std@@@?$vector@V?$shared_ptr@VPassportFile@TgBot@@@std@@V?$allocator@V?$shared_ptr@VPassportFile@TgBot@@@std@@@2@@std@@AEAAAEAV?$shared_ptr@VPassportFile@TgBot@@@1@$$QEAV21@@Z
	??$_Emplace_one_at_back@V?$shared_ptr@VPhotoSize@TgBot@@@std@@@?$vector@V?$shared_ptr@VPhotoSize@TgBot@@@std@@V?$allocator@V?$shared_ptr@VPhotoSize@TgBot@@@std@@@2@@std@@AEAAAEAV?$shared_ptr@VPhotoSize@TgBot@@@1@$$QEAV21@@Z
	??$_Emplace_one_at_back@V?$shared_ptr@VPollOption@TgBot@@@std@@@?$vector@V?$shared_ptr@VPollOption@TgBot@@@std@@V?$allocator@V?$shared_ptr@VPollOption@TgBot@@@std@@@2@@std@@AEAAAEAV?$shared_ptr@VPollOption@TgBot@@@1@$$QEAV21@@Z
	??$_Emplace_one_at_back@V?$shared_ptr@VSticker@TgBot@@@std@@@?$vector@V?$shared_ptr@VSticker@TgBot@@@std@@V?$allocator@V?$shared_ptr@VSticker@TgBot@@@std@@@2@@std@@AEAAAEAV?$shared_ptr@VSticker@TgBot@@@1@$$QEAV21@@Z
	??$_Emplace_one_at_back@V?$shared_ptr@VUpdate@TgBot@@@std@@@?$vector@V?$shared_ptr@VUpdate@TgBot@@@std@@V?$allocator@V?$shared_ptr@VUpdate@TgBot@@@std@@@2@@std@@AEAAAEAV?$shared_ptr@VUpdate@TgBot@@@1@$$QEAV21@@Z
	??$_Emplace_one_at_back@V?$shared_ptr@VUser@TgBot@@@std@@@?$vector@V?$shared_ptr@VUser@TgBot@@@std@@V?$allocator@V?$shared_ptr@VUser@TgBot@@@std@@@2@@std@@AEAAAEAV?$shared_ptr@VUser@TgBot@@@1@$$QEAV21@@Z
	??$_Emplace_one_at_back@V?$vector@V?$shared_ptr@VInlineKeyboardButton@TgBot@@@std@@V?$allocator@V?$shared_ptr@VInlineKeyboardButton@TgBot@@@std@@@2@@std@@@?$vector@V?$vector@V?$shared_ptr@VInlineKeyboardButton@TgBot@@@std@@V?$allocator@V?$shared_ptr@VInlineKeyboardButton@TgBot@@@std@@@2@@std@@V?$allocator@V?$vector@V?$shared_ptr@VInlineKeyboardButton@TgBot@@@std@@V?$allocator@V?$shared_ptr@VInlineKeyboardButton@TgBot@@@std@@@2@@std@@@2@@std@@AEAAAEAV?$vector@V?$shared_ptr@VInlineKeyboardButton@TgBot@@@std@@V?$allocator@V?$shared_ptr@VInlineKeyboardButton@TgBot@@@std@@@2@@1@$$QEAV21@@Z
	??$_Emplace_one_at_back@V?$vector@V?$shared_ptr@VKeyboardButton@TgBot@@@std@@V?$allocator@V?$shared_ptr@VKeyboardButton@TgBot@@@std@@@2@@std@@@?$vector@V?$vector@V?$shared_ptr@VKeyboardButton@TgBot@@@std@@V?$allocator@V?$shared_ptr@VKeyboardButton@TgBot@@@std@@@2@@std@@V?$allocator@V?$vector@V?$shared_ptr@VKeyboardButton@TgBot@@@std@@V?$allocator@V?$shared_ptr@VKeyboardButton@TgBot@@@std@@@2@@std@@@2@@std@@AEAAAEAV?$vector@V?$shared_ptr@VKeyboardButton@TgBot@@@std@@V?$allocator@V?$shared_ptr@VKeyboardButton@TgBot@@@std@@@2@@1@$$QEAV21@@Z
	??$_Emplace_reallocate@AEAY02$$CBDAEA_N@?$vector@VHttpReqArg@TgBot@@V?$allocator@VHttpReqArg@TgBot@@@std@@@std@@AEAAPEAVHttpReqArg@TgBot@@QEAV23@AEAY02$$CBDAEA_N@Z
	??$_Emplace_reallocate@AEAY03$$CBDAEBV?$basic_string@DU?$char_traits@D@std@@V?$allocator@D@2@@std@@@?$vector@VHttpReqArg@TgBot@@V?$allocator@VHttpReqArg@TgBot@@@std@@@std@@AEAAPEAVHttpReqArg@TgBot@@QEAV23@AEAY03$$CBDAEBV?$basic_string@DU?$char_traits@D@std@@V?$allocator@D@2@@1@@Z
	??$_Emplace_reallocate@AEAY04$$CBDAEAV?$basic_string@DU?$char_traits@D@std@@V?$allocator@D@2@@std@@@?$vector@VHttpReqArg@TgBot@@V?$allocator@VHttpReqArg@TgBot@@@std@@@std@@AEAAPEAVHttpReqArg@TgBot@@QEAV23@AEAY04$$CBDAEAV?$basic_string@DU?$char_traits@D@std@@V?$allocator@D@2@@1@@Z
	??$_Emplace_reallocate@AEAY04$$CBDAEBV?$basic_string@DU?$char_traits@D@std@@V?$allocator@D@2@@std@@@?$vector@VHttpReqArg@TgBot@@V?$allocator@VHttpReqArg@TgBot@@@std@@@std@@AEAAPEAVHttpReqArg@TgBot@@QEAV23@AEAY04$$CBDAEBV?$basic_string@DU?$char_traits@D@std@@V?$allocator@D@2@@1@@Z
	??$_Emplace_reallocate@AEAY05$$CBDAEAH@?$vector@VHttpReqArg@TgBot@@V?$allocator@VHttpReqArg@TgBot@@@std@@@std@@AEAAPEAVHttpReqArg@TgBot@@QEAV23@AEAY05$$CBDAEAH@Z
	??$_Emplace_reallocate@AEAY05$$CBDAEAV?$basic_string@DU?$char_traits@D@std@@V?$allocator@D@2@@std@@@?$vector@VHttpReqArg@TgBot@@V?$allocator@VHttpReqArg@TgBot@@@std@@@std@@AEAAPEAVHttpReqArg@TgBot@@QEAV23@AEAY05$$CBDAEAV?$basic_string@DU?$char_traits@D@std@@V?$allocator@D@2@@1@@Z
	??$_Emplace_reallocate@AEAY05$$CBDAEAV?$basic_string@DU?$char_traits@D@std@@V?$allocator@D@2@@std@@_NAEAV12@AEAV12@@?$vector@VHttpReqArg@TgBot@@V?$allocator@VHttpReqArg@TgBot@@@std@@@std@@AEAAPEAVHttpReqArg@TgBot@@QEAV23@AEAY05$$CBDAEAV?$basic_string@DU?$char_traits@D@std@@V?$allocator@D@2@@1@$$QEA_N22@Z
	??$_Emplace_reallocate@AEAY05$$CBDAEA_N@?$vector@VHttpReqArg@TgBot@@V?$allocator@VHttpReqArg@TgBot@@@std@@@std@@AEAAPEAVHttpReqArg@TgBot@@QEAV23@AEAY05$$CBDAEA_N@Z
	??$_Emplace_reallocate@AEAY05$$CBDAEBH@?$vector@VHttpReqArg@TgBot@@V?$allocator@VHttpReqArg@TgBot@@@std@@@std@@AEAAPEAVHttpReqArg@TgBot@@QEAV23@AEAY05$$CBDAEBH@Z
	??$_Emplace_reallocate@AEAY05$$CBDAEBV?$basic_string@DU?$char_traits@D@std@@V?$allocator@D@2@@std@@@?$vector@VHttpReqArg@TgBot@@V?$allocator@VHttpReqArg@TgBot@@@std@@@std@@AEAAPEAVHttpReqArg@TgBot@@QEAV23@AEAY05$$CBDAEBV?$basic_string@DU?$char_traits@D@std@@V?$allocator@D@2@@1@@Z
	??$_Emplace_reallocate@AEAY05$$CBDV?$basic_string@DU?$char_traits@D@std@@V?$allocator@D@2@@std@@@?$vector@VHttpReqArg@TgBot@@V?$allocator@VHttpReqArg@TgBot@@@std@@@std@@AEAAPEAVHttpReqArg@TgBot@@QEAV23@AEAY05$$CBD$$QEAV?$basic_string@DU?$char_traits@D@std@@V?$allocator@D@2@@1@@Z
	??$_Emplace_reallocate@AEAY06$$CBDAEAH@?$vector@VHttpReqArg@TgBot@@V?$allocator@VHttpReqArg@TgBot@@@std@@@std@@AEAAPEAVHttpReqArg@TgBot@@QEAV23@AEAY06$$CBDAEAH@Z
	??$_Emplace_reallocate@AEAY06$$CBDAEBV?$basic_string@DU?$char_traits@D@std@@V?$allocator@D@2@@std@@@?$vector@VHttpReqArg@TgBot@@V?$allocator@VHttpReqArg@TgBot@@@std@@@std@@AEAAPEAVHttpReqArg@TgBot@@QEAV23@AEAY06$$CBDAEBV?$basic_string@DU?$char_traits@D@std@@V?$allocator@D@2@@1@@Z
	??$_Emplace_reallocate@AEAY06$$CBDV?$basic_string@DU?$char_traits@D@std@@V?$allocator@D@2@@std@@@?$vector@VHttpReqArg@TgBot@@V?$allocator@VHttpReqArg@TgBot@@@std@@@std@@AEAAPEAVHttpReqArg@TgBot@@QEAV23@AEAY06$$CBD$$QEAV?$basic_string@DU?$char_traits@D@std@@V?$allocator@D@2@@1@@Z
	??$_Emplace_reallocate@AEAY07$$CBDAEAH@?$vector@VHttpReqArg@TgBot@@V?$allocator@VHttpReqArg@TgBot@@@std@@@std@@AEAAPEAVHttpReqArg@TgBot@@QEAV23@AEAY07$$CBDAEAH@Z
	??$_Emplace_reallocate@AEAY07$$CBDAEAV?$basic_string@DU?$char_traits@D@std@@V?$allocator@D@2@@std@@@?$vector@VHttpReqArg@TgBot@@V?$allocator@VHttpReqArg@TgBot@@@std@@@std@@AEAAPEAVHttpReqArg@TgBot@@QEAV23@AEAY07$$CBDAEAV?$basic_string@DU?$char_traits@D@std@@V?$allocator@D@2@@1@@Z
	??$_Emplace_reallocate@AEAY07$$CBDAEAV?$basic_string@DU?$char_traits@D@std@@V?$allocator@D@2@@std@@_NAEAV12@AEAV12@@?$vector@VHttpReqArg@TgBot@@V?$allocator@VHttpReqArg@TgBot@@@std@@@std@@AEAAPEAVHttpReqArg@TgBot@@QEAV23@AEAY07$$CBDAEAV?$basic_string@DU?$char_traits@D@std@@V?$allocator@D@2@@1@$$QEA_N22@Z
	??$_Emplace_reallocate@AEAY07$$CBDAEAV?$variant@_JV?$basic_string@DU?$char_traits@D@std@@V?$allocator@D@2@@std@@@boost@@@?$vector@VHttpReqArg@TgBot@@V?$allocator@VHttpReqArg@TgBot@@@std@@@std@@AEAAPEAVHttpReqArg@TgBot@@QEAV23@AEAY07$$CBDAEAV?$variant@_JV?$basic_string@DU?$char_traits@D@std@@V?$allocator@D@2@@std@@@boost@@@Z
	??$_Emplace_reallocate@AEAY07$$CBDAEA_J@?$vector@VHttpReqArg@TgBot@@V?$allocator@VHttpReqArg@TgBot@@@std@@@std@@AEAAPEAVHttpReqArg@TgBot@@QEAV23@AEAY07$$CBDAEA_J@Z
	??$_Emplace_reallocate@AEAY07$$CBDAEBH@?$vector@VHttpReqArg@TgBot@@V?$allocator@VHttpReqArg@TgBot@@@std@@@std@@AEAAPEAVHttpReqArg@TgBot@@QEAV23@AEAY07$$CBDAEBH@Z
	??$_Emplace_reallocate@AEAY07$$CBDAEBV?$basic_string@DU?$char_traits@D@std@@V?$allocator@D@2@@std@@@?$vector@VHttpReqArg@TgBot@@V?$allocator@VHttpReqArg@TgBot@@@std@@@std@@AEAAPEAVHttpReqArg@TgBot@@QEAV23@AEAY07$$CBDAEBV?$basic_string@DU?$char_traits@D@std@@V?$allocator@D@2@@1@@Z
	??$_Emplace_reallocate@AEAY07$$CBDV?$basic_string@DU?$char_traits@D@std@@V?$allocator@D@2@@std@@@?$vector@VHttpReqArg@TgBot@@V?$allocator@VHttpReqArg@TgBot@@@std@@@std@@AEAAPEAVHttpReqArg@TgBot@@QEAV23@AEAY07$$CBD$$QEAV?$basic_string@DU?$char_traits@D@std@@V?$allocator@D@2@@1@@Z
	??$_Emplace_reallocate@AEAY08$$CBDAEAH@?$vector@VHttpReqArg@TgBot@@V?$allocator@VHttpReqArg@TgBot@@@std@@@std@@AEAAPEAVHttpReqArg@TgBot@@QEAV23@AEAY08$$CBDAEAH@Z
	??$_Emplace_reallocate@AEAY08$$CBDAEAM@?$vector@VHttpReqArg@TgBot@@V?$allocator@VHttpReqArg@TgBot@@@std@@@std@@AEAAPEAVHttpReqArg@TgBot@@QEAV23@AEAY08$$CBDAEAM@Z
	??$_Emplace_reallocate@AEAY08$$CBDAEAV?$basic_string@DU?$char_traits@D@std@@V?$allocator@D@2@@std@@@?$vector@VHttpReqArg@TgBot@@V?$allocator@VHttpReqArg@TgBot@@@std@@@std@@AEAAPEAVHttpReqArg@TgBot@@QEAV23@AEAY08$$CBDAEAV?$basic_string@DU?$char_traits@D@std@@V?$allocator@D@2@@1@@Z
	??$_Emplace_reallocate@AEAY08$$CBDAEAV?$basic_string@DU?$char_traits@D@std@@V?$allocator@D@2@@std@@_NAEAV12@AEAV12@@?$vector@VHttpReqArg@TgBot@@V?$allocator@VHttpReqArg@TgBot@@@std@@@std@@AEAAPEAVHttpReqArg@TgBot@@QEAV23@AEAY08$$CBDAEAV?$basic_string@DU?$char_traits@D@std@@V?$allocator@D@2@@1@$$QEA_N22@Z
	??$_Emplace_reallocate@AEAY08$$CBDAEBV?$basic_string@DU?$char_traits@D@std@@V?$allocator@D@2@@std@@@?$vector@VHttpReqArg@TgBot@@V?$allocator@VHttpReqArg@TgBot@@@std@@@std@@AEAAPEAVHttpReqArg@TgBot@@QEAV23@AEAY08$$CBDAEBV?$basic_string@DU?$char_traits@D@std@@V?$allocator@D@2@@1@@Z
	??$_Emplace_reallocate@AEAY08$$CBDV?$basic_string@DU?$char_traits@D@std@@V?$allocator@D@2@@std@@@?$vector@VHttpReqArg@TgBot@@V?$allocator@VHttpReqArg@TgBot@@@std@@@std@@AEAAPEAVHttpReqArg@TgBot@@QEAV23@AEAY08$$CBD$$QEAV?$basic_string@DU?$char_traits@D@std@@V?$allocator@D@2@@1@@Z
	??$_Emplace_reallocate@AEAY09$$CBDAEAM@?$vector@VHttpReqArg@TgBot@@V?$allocator@VHttpReqArg@TgBot@@@std@@@std@@AEAAPEAVHttpReqArg@TgBot@@QEAV23@AEAY09$$CBDAEAM@Z
	??$_Emplace_reallocate@AEAY09$$CBDAEAV?$basic_string@DU?$char_traits@D@std@@V?$allocator@D@2@@std@@@?$vector@VHttpReqArg@TgBot@@V?$allocator@VHttpReqArg@TgBot@@@std@@@std@@AEAAPEAVHttpReqArg@TgBot@@QEAV23@AEAY09$$CBDAEAV?$basic_string@DU?$char_traits@D@std@@V?$allocator@D@2@@1@@Z
	??$_Emplace_reallocate@AEAY09$$CBDAEAV?$basic_string@DU?$char_traits@D@std@@V?$allocator@D@2@@std@@_NAEAV12@AEAV12@@?$vector@VHttpReqArg@TgBot@@V?$allocator@VHttpReqArg@TgBot@@@std@@@std@@AEAAPEAVHttpReqArg@TgBot@@QEAV23@AEAY09$$CBDAEAV?$basic_string@DU?$char_traits@D@std@@V?$allocator@D@2@@1@$$QEA_N22@Z
	??$_Emplace_reallocate@AEAY09$$CBDAEA_N@?$vector@VHttpReqArg@TgBot@@V?$allocator@VHttpReqArg@TgBot@@@std@@@std@@AEAAPEAVHttpReqArg@TgBot@@QEAV23@AEAY09$$CBDAEA_N@Z
	??$_Emplace_reallocate@AEAY09$$CBDAEBV?$basic_string@DU?$char_traits@D@std@@V?$allocator@D@2@@std@@@?$vector@VHttpReqArg@TgBot@@V?$allocator@VHttpReqArg@TgBot@@@std@@@std@@AEAAPEAVHttpReqArg@TgBot@@QEAV23@AEAY09$$CBDAEBV?$basic_string@DU?$char_traits@D@std@@V?$allocator@D@2@@1@@Z
	??$_Emplace_reallocate@AEAY0BA@$$CBDAEAV?$basic_string@DU?$char_traits@D@std@@V?$allocator@D@2@@std@@@?$vector@VHttpReqArg@TgBot@@V?$allocator@VHttpReqArg@TgBot@@@std@@@std@@AEAAPEAVHttpReqArg@TgBot@@QEAV23@AEAY0BA@$$CBDAEAV?$basic_string@DU?$char_traits@D@std@@V?$allocator@D@2@@1@@Z
	??$_Emplace_reallocate@AEAY0BA@$$CBDAEA_N@?$vector@VHttpReqArg@TgBot@@V?$allocator@VHttpReqArg@TgBot@@@std@@@std@@AEAAPEAVHttpReqArg@TgBot@@QEAV23@AEAY0BA@$$CBDAEA_N@Z
	??$_Emplace_reallocate@AEAY0BA@$$CBDAEBH@?$vector@VHttpReqArg@TgBot@@V?$allocator@VHttpReqArg@TgBot@@@std@@@std@@AEAAPEAVHttpReqArg@TgBot@@QEAV23@AEAY0BA@$$CBDAEBH@Z
	??$_Emplace_reallocate@AEAY0BA@$$CBDAEBV?$basic_string@DU?$char_traits@D@std@@V?$allocator@D@2@@std@@@?$vector@VHttpReqArg@TgBot@@V?$allocator@VHttpReqArg@TgBot@@@std@@@std@@AEAAPEAVHttpReqArg@TgBot@@QEAV23@AEAY0BA@$$CBDAEBV?$basic_string@DU?$char_traits@D@std@@V?$allocator@D@2@@1@@Z
	??$_Emplace_reallocate@AEAY0BB@$$CBDAEA_N@?$vector@VHttpReqArg@TgBot@@V?$allocator@VHttpReqArg@TgBot@@@std@@@std@@AEAAPEAVHttpReqArg@TgBot@@QEAV23@AEAY0BB@$$CBDAEA_N@Z
	??$_Emplace_reallocate@AEAY0BB@$$CBDAEBV?$basic_string@DU?$char_traits@D@std@@V?$allocator@D@2@@std@@@?$vector@VHttpReqArg@TgBot@@V?$allocator@VHttpReqArg@TgBot@@@std@@@std@@AEAAPEAVHttpReqArg@TgBot@@QEAV23@AEAY0BB@$$CBDAEBV?$basic_string@DU?$char_traits@D@std@@V?$allocator@D@2@@1@@Z
	??$_Emplace_reallocate@AEAY0BB@$$CBDV?$basic_string@DU?$char_traits@D@std@@V?$allocator@D@2@@std@@@?$vector@VHttpReqArg@TgBot@@V?$allocator@VHttpReqArg@TgBot@@@std@@@std@@AEAAPEAVHttpReqArg@TgBot@@QEAV23@AEAY0BB@$$CBD$$QEAV?$basic_string@DU?$char_traits@D@std@@V?$allocator@D@2@@1@@Z
	??$_Emplace_reallocate@AEAY0BC@$$CBDAEAH@?$vector@VHttpReqArg@TgBot@@V?$allocator@VHttpReqArg@TgBot@@@std@@@std@@AEAAPEAVHttpReqArg@TgBot@@QEAV23@AEAY0BC@$$CBDAEAH@Z
	??$_Emplace_reallocate@AEAY0BC@$$CBDAEA_N@?$vector@VHttpReqArg@TgBot@@V?$allocator@VHttpReqArg@TgBot@@@std@@@std@@AEAAPEAVHttpReqArg@TgBot@@QEAV23@AEAY0BC@$$CBDAEA_N@Z
	??$_Emplace_reallocate@AEAY0BC@$$CBDAEBV?$basic_string@DU?$char_traits@D@std@@V?$allocator@D@2@@std@@@?$vector@VHttpReqArg@TgBot@@V?$allocator@VHttpReqArg@TgBot@@@std@@@std@@AEAAPEAVHttpReqArg@TgBot@@QEAV23@AEAY0BC@$$CBDAEBV?$basic_string@DU?$char_traits@D@std@@V?$allocator@D@2@@1@@Z
	??$_Emplace_reallocate@AEAY0BD@$$CBDAEA_N@?$vector@VHttpReqArg@TgBot@@V?$allocator@VHttpReqArg@TgBot@@@std@@@std@@AEAAPEAVHttpReqArg@TgBot@@QEAV23@AEAY0BD@$$CBDAEA_N@Z
	??$_Emplace_reallocate@AEAY0BE@$$CBDAEAH@?$vector@VHttpReqArg@TgBot@@V?$allocator@VHttpReqArg@TgBot@@@std@@@std@@AEAAPEAVHttpReqArg@TgBot@@QEAV23@AEAY0BE@$$CBDAEAH@Z
	??$_Emplace_reallocate@AEAY0BE@$$CBDAEAM@?$vector@VHttpReqArg@TgBot@@V?$allocator@VHttpReqArg@TgBot@@@std@@@std@@AEAAPEAVHttpReqArg@TgBot@@QEAV23@AEAY0BE@$$CBDAEAM@Z
	??$_Emplace_reallocate@AEAY0BE@$$CBDAEA_J@?$vector@VHttpReqArg@TgBot@@V?$allocator@VHttpReqArg@TgBot@@@std@@@std@@AEAAPEAVHttpReqArg@TgBot@@QEAV23@AEAY0BE@$$CBDAEA_J@Z
	??$_Emplace_reallocate@AEAY0BE@$$CBDAEA_N@?$vector@VHttpReqArg@TgBot@@V?$allocator@VHttpReqArg@TgBot@@@std@@@std@@AEAAPEAVHttpReqArg@TgBot@@QEAV23@AEAY0BE@$$CBDAEA_N@Z
	??$_Emplace_reallocate@AEAY0BE@$$CBDAEBV?$basic_string@DU?$char_traits@D@std@@V?$allocator@D@2@@std@@@?$vector@VHttpReqArg@TgBot@@V?$allocator@VHttpReqArg@TgBot@@@std@@@std@@AEAAPEAVHttpReqArg@TgBot@@QEAV23@AEAY0BE@$$CBDAEBV?$basic_string@DU?$char_traits@D@std@@V?$allocator@D@2@@1@@Z
	??$_Emplace_reallocate@AEAY0BF@$$CBDAEAV?$basic_string@DU?$char_traits@D@std@@V?$allocator@D@2@@std@@@?$vector@VHttpReqArg@TgBot@@V?$allocator@VHttpReqArg@TgBot@@@std@@@std@@AEAAPEAVHttpReqArg@TgBot@@QEAV23@AEAY0BF@$$CBDAEAV?$basic_string@DU?$char_traits@D@std@@V?$allocator@D@2@@1@@Z
	??$_Emplace_reallocate@AEAY0BF@$$CBDAEA_N@?$vector@VHttpReqArg@TgBot@@V?$allocator@VHttpReqArg@TgBot@@@std@@@std@@AEAAPEAVHttpReqArg@TgBot@@QEAV23@AEAY0BF@$$CBDAEA_N@Z
	??$_Emplace_reallocate@AEAY0BF@$$CBDAEBV?$basic_string@DU?$char_traits@D@std@@V?$allocator@D@2@@std@@@?$vector@VHttpReqArg@TgBot@@V?$allocator@VHttpReqArg@TgBot@@@std@@@std@@AEAAPEAVHttpReqArg@TgBot@@QEAV23@AEAY0BF@$$CBDAEBV?$basic_string@DU?$char_traits@D@std@@V?$allocator@D@2@@1@@Z
	??$_Emplace_reallocate@AEAY0BF@$$CBDV?$basic_string@DU?$char_traits@D@std@@V?$allocator@D@2@@std@@@?$vector@VHttpReqArg@TgBot@@V?$allocator@VHttpReqArg@TgBot@@@std@@@std@@AEAAPEAVHttpReqArg@TgBot@@QEAV23@AEAY0BF@$$CBD$$QEAV?$basic_string@DU?$char_traits@D@std@@V?$allocator@D@2@@1@@Z
	??$_Emplace_reallocate@AEAY0BG@$$CBDAEA_N@?$vector@VHttpReqArg@TgBot@@V?$allocator@VHttpReqArg@TgBot@@@std@@@std@@AEAAPEAVHttpReqArg@TgBot@@QEAV23@AEAY0BG@$$CBDAEA_N@Z
	??$_Emplace_reallocate@AEAY0BG@$$CBDAEBV?$basic_string@DU?$char_traits@D@std@@V?$allocator@D@2@@std@@@?$vector@VHttpReqArg@TgBot@@V?$allocator@VHttpReqArg@TgBot@@@std@@@std@@AEAAPEAVHttpReqArg@TgBot@@QEAV23@AEAY0BG@$$CBDAEBV?$basic_string@DU?$char_traits@D@std@@V?$allocator@D@2@@1@@Z
	??$_Emplace_reallocate@AEAY0BG@$$CBDV?$basic_string@DU?$char_traits@D@std@@V?$allocator@D@2@@std@@@?$vector@VHttpReqArg@TgBot@@V?$allocator@VHttpReqArg@TgBot@@@std@@@std@@AEAAPEAVHttpReqArg@TgBot@@QEAV23@AEAY0BG@$$CBD$$QEAV?$basic_string@DU?$char_traits@D@std@@V?$allocator@D@2@@1@@Z
	??$_Emplace_reallocate@AEAY0BH@$$CBDAEAH@?$vector@VHttpReqArg@TgBot@@V?$allocator@VHttpReqArg@TgBot@@@std@@@std@@AEAAPEAVHttpReqArg@TgBot@@QEAV23@AEAY0BH@$$CBDAEAH@Z
	??$_Emplace_reallocate@AEAY0BH@$$CBDAEA_N@?$vector@VHttpReqArg@TgBot@@V?$allocator@VHttpReqArg@TgBot@@@std@@@std@@AEAAPEAVHttpReqArg@TgBot@@QEAV23@AEAY0BH@$$CBDAEA_N@Z
	??$_Emplace_reallocate@AEAY0BH@$$CBDAEBH@?$vector@VHttpReqArg@TgBot@@V?$allocator@VHttpReqArg@TgBot@@@std@@@std@@AEAAPEAVHttpReqArg@TgBot@@QEAV23@AEAY0BH@$$CBDAEBH@Z
	??$_Emplace_reallocate@AEAY0BH@$$CBDAEBV?$basic_string@DU?$char_traits@D@std@@V?$allocator@D@2@@std@@@?$vector@VHttpReqArg@TgBot@@V?$allocator@VHttpReqArg@TgBot@@@std@@@std@@AEAAPEAVHttpReqArg@TgBot@@QEAV23@AEAY0BH@$$CBDAEBV?$basic_string@DU?$char_traits@D@std@@V?$allocator@D@2@@1@@Z
	??$_Emplace_reallocate@AEAY0BI@$$CBDAEA_N@?$vector@VHttpReqArg@TgBot@@V?$allocator@VHttpReqArg@TgBot@@@std@@@std@@AEAAPEAVHttpReqArg@TgBot@@QEAV23@AEAY0BI@$$CBDAEA_N@Z
	??$_Emplace_reallocate@AEAY0BJ@$$CBDAEA_N@?$vector@VHttpReqArg@TgBot@@V?$allocator@VHttpReqArg@TgBot@@@std@@@std@@AEAAPEAVHttpReqArg@TgBot@@QEAV23@AEAY0BJ@$$CBDAEA_N@Z
	??$_Emplace_reallocate@AEAY0BM@$$CBDAEA_N@?$vector@VHttpReqArg@TgBot@@V?$allocator@VHttpReqArg@TgBot@@@std@@@std@@AEAAPEAVHttpReqArg@TgBot@@QEAV23@AEAY0BM@$$CBDAEA_N@Z
	??$_Emplace_reallocate@AEAY0BO@$$CBDAEA_N@?$vector@VHttpReqArg@TgBot@@V?$allocator@VHttpReqArg@TgBot@@@std@@@std@@AEAAPEAVHttpReqArg@TgBot@@QEAV23@AEAY0BO@$$CBDAEA_N@Z
	??$_Emplace_reallocate@AEAY0BP@$$CBDAEA_N@?$vector@VHttpReqArg@TgBot@@V?$allocator@VHttpReqArg@TgBot@@@std@@@std@@AEAAPEAVHttpReqArg@TgBot@@QEAV23@AEAY0BP@$$CBDAEA_N@Z
	??$_Emplace_reallocate@AEAY0CB@$$CBDAEA_N@?$vector@VHttpReqArg@TgBot@@V?$allocator@VHttpReqArg@TgBot@@@std@@@std@@AEAAPEAVHttpReqArg@TgBot@@QEAV23@AEAY0CB@$$CBDAEA_N@Z
	??$_Emplace_reallocate@AEAY0L@$$CBDAEAH@?$vector@VHttpReqArg@TgBot@@V?$allocator@VHttpReqArg@TgBot@@@std@@@std@@AEAAPEAVHttpReqArg@TgBot@@QEAV23@AEAY0L@$$CBDAEAH@Z
	??$_Emplace_reallocate@AEAY0L@$$CBDAEAV?$basic_string@DU?$char_traits@D@std@@V?$allocator@D@2@@std@@@?$vector@VHttpReqArg@TgBot@@V?$allocator@VHttpReqArg@TgBot@@@std@@@std@@AEAAPEAVHttpReqArg@TgBot@@QEAV23@AEAY0L@$$CBDAEAV?$basic_string@DU?$char_traits@D@std@@V?$allocator@D@2@@1@@Z
	??$_Emplace_reallocate@AEAY0L@$$CBDAEAV?$basic_string@DU?$char_traits@D@std@@V?$allocator@D@2@@std@@_NAEAV12@AEAV12@@?$vector@VHttpReqArg@TgBot@@V?$allocator@VHttpReqArg@TgBot@@@std@@@std@@AEAAPEAVHttpReqArg@TgBot@@QEAV23@AEAY0L@$$CBDAEAV?$basic_string@DU?$char_traits@D@std@@V?$allocator@D@2@@1@$$QEA_N22@Z
	??$_Emplace_reallocate@AEAY0L@$$CBDAEA_J@?$vector@VHttpReqArg@TgBot@@V?$allocator@VHttpReqArg@TgBot@@@std@@@std@@AEAAPEAVHttpReqArg@TgBot@@QEAV23@AEAY0L@$$CBDAEA_J@Z
	??$_Emplace_reallocate@AEAY0L@$$CBDAEA_N@?$vector@VHttpReqArg@TgBot@@V?$allocator@VHttpReqArg@TgBot@@@std@@@std@@AEAAPEAVHttpReqArg@TgBot@@QEAV23@AEAY0L@$$CBDAEA_N@Z
	??$_Emplace_reallocate@AEAY0L@$$CBDAEBV?$basic_string@DU?$char_traits@D@std@@V?$allocator@D@2@@std@@@?$vector@VHttpReqArg@TgBot@@V?$allocator@VHttpReqArg@TgBot@@@std@@@std@@AEAAPEAVHttpReqArg@TgBot@@QEAV23@AEAY0L@$$CBDAEBV?$basic_string@DU?$char_traits@D@std@@V?$allocator@D@2@@1@@Z
	??$_Emplace_reallocate@AEAY0M@$$CBDAEAH@?$vector@VHttpReqArg@TgBot@@V?$allocator@VHttpReqArg@TgBot@@@std@@@std@@AEAAPEAVHttpReqArg@TgBot@@QEAV23@AEAY0M@$$CBDAEAH@Z
	??$_Emplace_reallocate@AEAY0M@$$CBDAEAV?$basic_string@DU?$char_traits@D@std@@V?$allocator@D@2@@std@@@?$vector@VHttpReqArg@TgBot@@V?$allocator@VHttpReqArg@TgBot@@@std@@@std@@AEAAPEAVHttpReqArg@TgBot@@QEAV23@AEAY0M@$$CBDAEAV?$basic_string@DU?$char_traits@D@std@@V?$allocator@D@2@@1@@Z
	??$_Emplace_reallocate@AEAY0M@$$CBDAEAV?$basic_string@DU?$char_traits@D@std@@V?$allocator@D@2@@std@@_NAEAV12@AEAV12@@?$vector@VHttpReqArg@TgBot@@V?$allocator@VHttpReqArg@TgBot@@@std@@@std@@AEAAPEAVHttpReqArg@TgBot@@QEAV23@AEAY0M@$$CBDAEAV?$basic_string@DU?$char_traits@D@std@@V?$allocator@D@2@@1@$$QEA_N22@Z
	??$_Emplace_reallocate@AEAY0M@$$CBDAEA_N@?$vector@VHttpReqArg@TgBot@@V?$allocator@VHttpReqArg@TgBot@@@std@@@std@@AEAAPEAVHttpReqArg@TgBot@@QEAV23@AEAY0M@$$CBDAEA_N@Z
	??$_Emplace_reallocate@AEAY0M@$$CBDAEBH@?$vector@VHttpReqArg@TgBot@@V?$allocator@VHttpReqArg@TgBot@@@std@@@std@@AEAAPEAVHttpReqArg@TgBot@@QEAV23@AEAY0M@$$CBDAEBH@Z
	??$_Emplace_reallocate@AEAY0M@$$CBDAEBV?$basic_string@DU?$char_traits@D@std@@V?$allocator@D@2@@std@@@?$vector@VHttpReqArg@TgBot@@V?$allocator@VHttpReqArg@TgBot@@@std@@@std@@AEAAPEAVHttpReqArg@TgBot@@QEAV23@AEAY0M@$$CBDAEBV?$basic_string@DU?$char_traits@D@std@@V?$allocator@D@2@@1@@Z
	??$_Emplace_reallocate@AEAY0M@$$CBDV?$basic_string@DU?$char_traits@D@std@@V?$allocator@D@2@@std@@@?$vector@VHttpReqArg@TgBot@@V?$allocator@VHttpReqArg@TgBot@@@std@@@std@@AEAAPEAVHttpReqArg@TgBot@@QEAV23@AEAY0M@$$CBD$$QEAV?$basic_string@DU?$char_traits@D@std@@V?$allocator@D@2@@1@@Z
	??$_Emplace_reallocate@AEAY0N@$$CBDAEAH@?$vector@VHttpReqArg@TgBot@@V?$allocator@VHttpReqArg@TgBot@@@std@@@std@@AEAAPEAVHttpReqArg@TgBot@@QEAV23@AEAY0N@$$CBDAEAH@Z
	??$_Emplace_reallocate@AEAY0N@$$CBDAEAV?$basic_string@DU?$char_traits@D@std@@V?$allocator@D@2@@std@@_NAEAV12@AEAV12@@?$vector@VHttpReqArg@TgBot@@V?$allocator@VHttpReqArg@TgBot@@@std@@@std@@AEAAPEAVHttpReqArg@TgBot@@QEAV23@AEAY0N@$$CBDAEAV?$basic_string@DU?$char_traits@D@std@@V?$allocator@D@2@@1@$$QEA_N22@Z
	??$_Emplace_reallocate@AEAY0N@$$CBDAEAV?$variant@_JV?$basic_string@DU?$char_traits@D@std@@V?$allocator@D@2@@std@@@boost@@@?$vector@VHttpReqArg@TgBot@@V?$allocator@VHttpReqArg@TgBot@@@std@@@std@@AEAAPEAVHttpReqArg@TgBot@@QEAV23@AEAY0N@$$CBDAEAV?$variant@_JV?$basic_string@DU?$char_traits@D@std@@V?$allocator@D@2@@std@@@boost@@@Z
	??$_Emplace_reallocate@AEAY0N@$$CBDAEA_N@?$vector@VHttpReqArg@TgBot@@V?$allocator@VHttpReqArg@TgBot@@@std@@@std@@AEAAPEAVHttpReqArg@TgBot@@QEAV23@AEAY0N@$$CBDAEA_N@Z
	??$_Emplace_reallocate@AEAY0N@$$CBDAEBV?$basic_string@DU?$char_traits@D@std@@V?$allocator@D@2@@std@@@?$vector@VHttpReqArg@TgBot@@V?$allocator@VHttpReqArg@TgBot@@@std@@@std@@AEAAPEAVHttpReqArg@TgBot@@QEAV23@AEAY0N@$$CBDAEBV?$basic_string@DU?$char_traits@D@std@@V?$allocator@D@2@@1@@Z
	??$_Emplace_reallocate@AEAY0N@$$CBDV?$basic_string@DU?$char_traits@D@std@@V?$allocator@D@2@@std@@@?$vector@VHttpReqArg@TgBot@@V?$allocator@VHttpReqArg@TgBot@@@std@@@std@@AEAAPEAVHttpReqArg@TgBot@@QEAV23@AEAY0N@$$CBD$$QEAV?$basic_string@DU?$char_traits@D@std@@V?$allocator@D@2@@1@@Z
	??$_Emplace_reallocate@AEAY0O@$$CBDAEBV?$basic_string@DU?$char_traits@D@std@@V?$allocator@D@2@@std@@@?$vector@VHttpReqArg@TgBot@@V?$allocator@VHttpReqArg@TgBot@@@std@@@std@@AEAAPEAVHttpReqArg@TgBot@@QEAV23@AEAY0O@$$CBDAEBV?$basic_string@DU?$char_traits@D@std@@V?$allocator@D@2@@1@@Z
	??$_Emplace_reallocate@AEAY0O@$$CBDV?$basic_string@DU?$char_traits@D@std@@V?$allocator@D@2@@std@@@?$vector@VHttpReqArg@TgBot@@V?$allocator@VHttpReqArg@TgBot@@@std@@@std@@AEAAPEAVHttpReqArg@TgBot@@QEAV23@AEAY0O@$$CBD$$QEAV?$basic_string@DU?$char_traits@D@std@@V?$allocator@D@2@@1@@Z
	??$_Emplace_reallocate@AEAY0P@$$CBDAEAH@?$vector@VHttpReqArg@TgBot@@V?$allocator@VHttpReqArg@TgBot@@@std@@@std@@AEAAPEAVHttpReqArg@TgBot@@QEAV23@AEAY0P@$$CBDAEAH@Z
	??$_Emplace_reallocate@AEAY0P@$$CBDAEA_J@?$vector@VHttpReqArg@TgBot@@V?$allocator@VHttpReqArg@TgBot@@@std@@@std@@AEAAPEAVHttpReqArg@TgBot@@QEAV23@AEAY0P@$$CBDAEA_J@Z
	??$_Emplace_reallocate@AEAY0P@$$CBDAEA_N@?$vector@VHttpReqArg@TgBot@@V?$allocator@VHttpReqArg@TgBot@@@std@@@std@@AEAAPEAVHttpReqArg@TgBot@@QEAV23@AEAY0P@$$CBDAEA_N@Z
	??$_Emplace_reallocate@AEAY0P@$$CBDAEBV?$basic_string@DU?$char_traits@D@std@@V?$allocator@D@2@@std@@@?$vector@VHttpReqArg@TgBot@@V?$allocator@VHttpReqArg@TgBot@@@std@@@std@@AEAAPEAVHttpReqArg@TgBot@@QEAV23@AEAY0P@$$CBDAEBV?$basic_string@DU?$char_traits@D@std@@V?$allocator@D@2@@1@@Z
	??$_Emplace_reallocate@AEBUlayer@?$standard_callbacks@V?$basic_ptree@V?$basic_string@DU?$char_traits@D@std@@V?$allocator@D@2@@std@@V12@U?$less@V?$basic_string@DU?$char_traits@D@std@@V?$allocator@D@2@@std@@@2@@property_tree@boost@@@detail@json_parser@property_tree@boost@@@?$vector@Ulayer@?$standard_callbacks@V?$basic_ptree@V?$basic_string@DU?$char_traits@D@std@@V?$allocator@D@2@@std@@V12@U?$less@V?$basic_string@DU?$char_traits@D@std@@V?$allocator@D@2@@std@@@2@@property_tree@boost@@@detail@json_parser@property_tree@boost@@V?$allocator@Ulayer@?$standard_callbacks@V?$basic_ptree@V?$basic_string@DU?$char_traits@D@std@@V?$allocator@D@2@@std@@V12@U?$less@V?$basic_string@DU?$char_traits@D@std@@V?$allocator@D@2@@std@@@2@@property_tree@boost@@@detail@json_parser@property_tree@boost@@@std@@@std@@AEAAPEAUlayer@?$standard_callbacks@V?$basic_ptree@V?$basic_string@DU?$char_traits@D@std@@V?$allocator@D@2@@std@@V12@U?$less@V?$basic_string@DU?$char_traits@D@std@@V?$allocator@D@2@@std@@@2@@property_tree@boost@@@detail@json_parser@property_tree@boost@@QEAU234567@AEBU234567@@Z
	??$_Emplace_reallocate@AEBV?$basic_string@DU?$char_traits@D@std@@V?$allocator@D@2@@std@@@?$vector@V?$basic_string@DU?$char_traits@D@std@@V?$allocator@D@2@@std@@V?$allocator@V?$basic_string@DU?$char_traits@D@std@@V?$allocator@D@2@@std@@@2@@std@@AEAAPEAV?$basic_string@DU?$char_traits@D@std@@V?$allocator@D@2@@1@QEAV21@AEBV21@@Z
	??$_Emplace_reallocate@AEBV?$function@$$A6AXV?$shared_ptr@VCallbackQuery@TgBot@@@std@@@Z@std@@@?$vector@V?$function@$$A6AXV?$shared_ptr@VCallbackQuery@TgBot@@@std@@@Z@std@@V?$allocator@V?$function@$$A6AXV?$shared_ptr@VCallbackQuery@TgBot@@@std@@@Z@std@@@2@@std@@AEAAPEAV?$function@$$A6AXV?$shared_ptr@VCallbackQuery@TgBot@@@std@@@Z@1@QEAV21@AEBV21@@Z
	??$_Emplace_reallocate@AEBV?$function@$$A6AXV?$shared_ptr@VChatJoinRequest@TgBot@@@std@@@Z@std@@@?$vector@V?$function@$$A6AXV?$shared_ptr@VChatJoinRequest@TgBot@@@std@@@Z@std@@V?$allocator@V?$function@$$A6AXV?$shared_ptr@VChatJoinRequest@TgBot@@@std@@@Z@std@@@2@@std@@AEAAPEAV?$function@$$A6AXV?$shared_ptr@VChatJoinRequest@TgBot@@@std@@@Z@1@QEAV21@AEBV21@@Z
	??$_Emplace_reallocate@AEBV?$function@$$A6AXV?$shared_ptr@VChatMemberUpdated@TgBot@@@std@@@Z@std@@@?$vector@V?$function@$$A6AXV?$shared_ptr@VChatMemberUpdated@TgBot@@@std@@@Z@std@@V?$allocator@V?$function@$$A6AXV?$shared_ptr@VChatMemberUpdated@TgBot@@@std@@@Z@std@@@2@@std@@AEAAPEAV?$function@$$A6AXV?$shared_ptr@VChatMemberUpdated@TgBot@@@std@@@Z@1@QEAV21@AEBV21@@Z
	??$_Emplace_reallocate@AEBV?$function@$$A6AXV?$shared_ptr@VChosenInlineResult@TgBot@@@std@@@Z@std@@@?$vector@V?$function@$$A6AXV?$shared_ptr@VChosenInlineResult@TgBot@@@std@@@Z@std@@V?$allocator@V?$function@$$A6AXV?$shared_ptr@VChosenInlineResult@TgBot@@@std@@@Z@std@@@2@@std@@AEAAPEAV?$function@$$A6AXV?$shared_ptr@VChosenInlineResult@TgBot@@@std@@@Z@1@QEAV21@AEBV21@@Z
	??$_Emplace_reallocate@AEBV?$function@$$A6AXV?$shared_ptr@VInlineQuery@TgBot@@@std@@@Z@std@@@?$vector@V?$function@$$A6AXV?$shared_ptr@VInlineQuery@TgBot@@@std@@@Z@std@@V?$allocator@V?$function@$$A6AXV?$shared_ptr@VInlineQuery@TgBot@@@std@@@Z@std@@@2@@std@@AEAAPEAV?$function@$$A6AXV?$shared_ptr@VInlineQuery@TgBot@@@std@@@Z@1@QEAV21@AEBV21@@Z
	??$_Emplace_reallocate@AEBV?$function@$$A6AXV?$shared_ptr@VMessage@TgBot@@@std@@@Z@std@@@?$vector@V?$function@$$A6AXV?$shared_ptr@VMessage@TgBot@@@std@@@Z@std@@V?$allocator@V?$function@$$A6AXV?$shared_ptr@VMessage@TgBot@@@std@@@Z@std@@@2@@std@@AEAAPEAV?$function@$$A6AXV?$shared_ptr@VMessage@TgBot@@@std@@@Z@1@QEAV21@AEBV21@@Z
	??$_Emplace_reallocate@AEBV?$function@$$A6AXV?$shared_ptr@VPoll@TgBot@@@std@@@Z@std@@@?$vector@V?$function@$$A6AXV?$shared_ptr@VPoll@TgBot@@@std@@@Z@std@@V?$allocator@V?$function@$$A6AXV?$shared_ptr@VPoll@TgBot@@@std@@@Z@std@@@2@@std@@AEAAPEAV?$function@$$A6AXV?$shared_ptr@VPoll@TgBot@@@std@@@Z@1@QEAV21@AEBV21@@Z
	??$_Emplace_reallocate@AEBV?$function@$$A6AXV?$shared_ptr@VPollAnswer@TgBot@@@std@@@Z@std@@@?$vector@V?$function@$$A6AXV?$shared_ptr@VPollAnswer@TgBot@@@std@@@Z@std@@V?$allocator@V?$function@$$A6AXV?$shared_ptr@VPollAnswer@TgBot@@@std@@@Z@std@@@2@@std@@AEAAPEAV?$function@$$A6AXV?$shared_ptr@VPollAnswer@TgBot@@@std@@@Z@1@QEAV21@AEBV21@@Z
	??$_Emplace_reallocate@AEBV?$function@$$A6AXV?$shared_ptr@VPreCheckoutQuery@TgBot@@@std@@@Z@std@@@?$vector@V?$function@$$A6AXV?$shared_ptr@VPreCheckoutQuery@TgBot@@@std@@@Z@std@@V?$allocator@V?$function@$$A6AXV?$shared_ptr@VPreCheckoutQuery@TgBot@@@std@@@Z@std@@@2@@std@@AEAAPEAV?$function@$$A6AXV?$shared_ptr@VPreCheckoutQuery@TgBot@@@std@@@Z@1@QEAV21@AEBV21@@Z
	??$_Emplace_reallocate@AEBV?$function@$$A6AXV?$shared_ptr@VShippingQuery@TgBot@@@std@@@Z@std@@@?$vector@V?$function@$$A6AXV?$shared_ptr@VShippingQuery@TgBot@@@std@@@Z@std@@V?$allocator@V?$function@$$A6AXV?$shared_ptr@VShippingQuery@TgBot@@@std@@@Z@std@@@2@@std@@AEAAPEAV?$function@$$A6AXV?$shared_ptr@VShippingQuery@TgBot@@@std@@@Z@1@QEAV21@AEBV21@@Z
	??$_Emplace_reallocate@AEBV?$vector@V?$shared_ptr@VPhotoSize@TgBot@@@std@@V?$allocator@V?$shared_ptr@VPhotoSize@TgBot@@@std@@@2@@std@@@?$vector@V?$vector@V?$shared_ptr@VPhotoSize@TgBot@@@std@@V?$allocator@V?$shared_ptr@VPhotoSize@TgBot@@@std@@@2@@std@@V?$allocator@V?$vector@V?$shared_ptr@VPhotoSize@TgBot@@@std@@V?$allocator@V?$shared_ptr@VPhotoSize@TgBot@@@std@@@2@@std@@@2@@std@@AEAAPEAV?$vector@V?$shared_ptr@VPhotoSize@TgBot@@@std@@V?$allocator@V?$shared_ptr@VPhotoSize@TgBot@@@std@@@2@@1@QEAV21@AEBV21@@Z
	??$_Emplace_reallocate@H@?$vector@HV?$allocator@H@std@@@std@@AEAAPEAHQEAH$$QEAH@Z
	??$_Emplace_reallocate@V?$basic_resolver_entry@Vtcp@ip@asio@boost@@@ip@asio@boost@@@?$vector@V?$basic_resolver_entry@Vtcp@ip@asio@boost@@@ip@asio@boost@@V?$allocator@V?$basic_resolver_entry@Vtcp@ip@asio@boost@@@ip@asio@boost@@@std@@@std@@AEAAPEAV?$basic_resolver_entry@Vtcp@ip@asio@boost@@@ip@asio@boost@@QEAV2345@$$QEAV2345@@Z
	??$_Emplace_reallocate@V?$basic_string@DU?$char_traits@D@std@@V?$allocator@D@2@@std@@@?$vector@V?$basic_string@DU?$char_traits@D@std@@V?$allocator@D@2@@std@@V?$allocator@V?$basic_string@DU?$char_traits@D@std@@V?$allocator@D@2@@std@@@2@@std@@AEAAPEAV?$basic_string@DU?$char_traits@D@std@@V?$allocator@D@2@@1@QEAV21@$$QEAV21@@Z
	??$_Emplace_reallocate@V?$shared_ptr@VBotCommand@TgBot@@@std@@@?$vector@V?$shared_ptr@VBotCommand@TgBot@@@std@@V?$allocator@V?$shared_ptr@VBotCommand@TgBot@@@std@@@2@@std@@AEAAPEAV?$shared_ptr@VBotCommand@TgBot@@@1@QEAV21@$$QEAV21@@Z
	??$_Emplace_reallocate@V?$shared_ptr@VChatMember@TgBot@@@std@@@?$vector@V?$shared_ptr@VChatMember@TgBot@@@std@@V?$allocator@V?$shared_ptr@VChatMember@TgBot@@@std@@@2@@std@@AEAAPEAV?$shared_ptr@VChatMember@TgBot@@@1@QEAV21@$$QEAV21@@Z
	??$_Emplace_reallocate@V?$shared_ptr@VEncryptedPassportElement@TgBot@@@std@@@?$vector@V?$shared_ptr@VEncryptedPassportElement@TgBot@@@std@@V?$allocator@V?$shared_ptr@VEncryptedPassportElement@TgBot@@@std@@@2@@std@@AEAAPEAV?$shared_ptr@VEncryptedPassportElement@TgBot@@@1@QEAV21@$$QEAV21@@Z
	??$_Emplace_reallocate@V?$shared_ptr@VGameHighScore@TgBot@@@std@@@?$vector@V?$shared_ptr@VGameHighScore@TgBot@@@std@@V?$allocator@V?$shared_ptr@VGameHighScore@TgBot@@@std@@@2@@std@@AEAAPEAV?$shared_ptr@VGameHighScore@TgBot@@@1@QEAV21@$$QEAV21@@Z
	??$_Emplace_reallocate@V?$shared_ptr@VInlineKeyboardButton@TgBot@@@std@@@?$vector@V?$shared_ptr@VInlineKeyboardButton@TgBot@@@std@@V?$allocator@V?$shared_ptr@VInlineKeyboardButton@TgBot@@@std@@@2@@std@@AEAAPEAV?$shared_ptr@VInlineKeyboardButton@TgBot@@@1@QEAV21@$$QEAV21@@Z
	??$_Emplace_reallocate@V?$shared_ptr@VKeyboardButton@TgBot@@@std@@@?$vector@V?$shared_ptr@VKeyboardButton@TgBot@@@std@@V?$allocator@V?$shared_ptr@VKeyboardButton@TgBot@@@std@@@2@@std@@AEAAPEAV?$shared_ptr@VKeyboardButton@TgBot@@@1@QEAV21@$$QEAV21@@Z
	??$_Emplace_reallocate@V?$shared_ptr@VLabeledPrice@TgBot@@@std@@@?$vector@V?$shared_ptr@VLabeledPrice@TgBot@@@std@@V?$allocator@V?$shared_ptr@VLabeledPrice@TgBot@@@std@@@2@@std@@AEAAPEAV?$shared_ptr@VLabeledPrice@TgBot@@@1@QEAV21@$$QEAV21@@Z
	??$_Emplace_reallocate@V?$shared_ptr@VMessage@TgBot@@@std@@@?$vector@V?$shared_ptr@VMessage@TgBot@@@std@@V?$allocator@V?$shared_ptr@VMessage@TgBot@@@std@@@2@@std@@AEAAPEAV?$shared_ptr@VMessage@TgBot@@@1@QEAV21@$$QEAV21@@Z
	??$_Emplace_reallocate@V?$shared_ptr@VMessageEntity@TgBot@@@std@@@?$vector@V?$shared_ptr@VMessageEntity@TgBot@@@std@@V?$allocator@V?$shared_ptr@VMessageEntity@TgBot@@@std@@@2@@std@@AEAAPEAV?$shared_ptr@VMessageEntity@TgBot@@@1@QEAV21@$$QEAV21@@Z
	??$_Emplace_reallocate@V?$shared_ptr@VPassportFile@TgBot@@@std@@@?$vector@V?$shared_ptr@VPassportFile@TgBot@@@std@@V?$allocator@V?$shared_ptr@VPassportFile@TgBot@@@std@@@2@@std@@AEAAPEAV?$shared_ptr@VPassportFile@TgBot@@@1@QEAV21@$$QEAV21@@Z
	??$_Emplace_reallocate@V?$shared_ptr@VPhotoSize@TgBot@@@std@@@?$vector@V?$shared_ptr@VPhotoSize@TgBot@@@std@@V?$allocator@V?$shared_ptr@VPhotoSize@TgBot@@@std@@@2@@std@@AEAAPEAV?$shared_ptr@VPhotoSize@TgBot@@@1@QEAV21@$$QEAV21@@Z
	??$_Emplace_reallocate@V?$shared_ptr@VPollOption@TgBot@@@std@@@?$vector@V?$shared_ptr@VPollOption@TgBot@@@std@@V?$allocator@V?$shared_ptr@VPollOption@TgBot@@@std@@@2@@std@@AEAAPEAV?$shared_ptr@VPollOption@TgBot@@@1@QEAV21@$$QEAV21@@Z
	??$_Emplace_reallocate@V?$shared_ptr@VSticker@TgBot@@@std@@@?$vector@V?$shared_ptr@VSticker@TgBot@@@std@@V?$allocator@V?$shared_ptr@VSticker@TgBot@@@std@@@2@@std@@AEAAPEAV?$shared_ptr@VSticker@TgBot@@@1@QEAV21@$$QEAV21@@Z
	??$_Emplace_reallocate@V?$shared_ptr@VUpdate@TgBot@@@std@@@?$vector@V?$shared_ptr@VUpdate@TgBot@@@std@@V?$allocator@V?$shared_ptr@VUpdate@TgBot@@@std@@@2@@std@@AEAAPEAV?$shared_ptr@VUpdate@TgBot@@@1@QEAV21@$$QEAV21@@Z
	??$_Emplace_reallocate@V?$shared_ptr@VUser@TgBot@@@std@@@?$vector@V?$shared_ptr@VUser@TgBot@@@std@@V?$allocator@V?$shared_ptr@VUser@TgBot@@@std@@@2@@std@@AEAAPEAV?$shared_ptr@VUser@TgBot@@@1@QEAV21@$$QEAV21@@Z
	??$_Emplace_reallocate@V?$vector@V?$shared_ptr@VInlineKeyboardButton@TgBot@@@std@@V?$allocator@V?$shared_ptr@VInlineKeyboardButton@TgBot@@@std@@@2@@std@@@?$vector@V?$vector@V?$shared_ptr@VInlineKeyboardButton@TgBot@@@std@@V?$allocator@V?$shared_ptr@VInlineKeyboardButton@TgBot@@@std@@@2@@std@@V?$allocator@V?$vector@V?$shared_ptr@VInlineKeyboardButton@TgBot@@@std@@V?$allocator@V?$shared_ptr@VInlineKeyboardButton@TgBot@@@std@@@2@@std@@@2@@std@@AEAAPEAV?$vector@V?$shared_ptr@VInlineKeyboardButton@TgBot@@@std@@V?$allocator@V?$shared_ptr@VInlineKeyboardButton@TgBot@@@std@@@2@@1@QEAV21@$$QEAV21@@Z
	??$_Emplace_reallocate@V?$vector@V?$shared_ptr@VKeyboardButton@TgBot@@@std@@V?$allocator@V?$shared_ptr@VKeyboardButton@TgBot@@@std@@@2@@std@@@?$vector@V?$vector@V?$shared_ptr@VKeyboardButton@TgBot@@@std@@V?$allocator@V?$shared_ptr@VKeyboardButton@TgBot@@@std@@@2@@std@@V?$allocator@V?$vector@V?$shared_ptr@VKeyboardButton@TgBot@@@std@@V?$allocator@V?$shared_ptr@VKeyboardButton@TgBot@@@std@@@2@@std@@@2@@std@@AEAAPEAV?$vector@V?$shared_ptr@VKeyboardButton@TgBot@@@std@@V?$allocator@V?$shared_ptr@VKeyboardButton@TgBot@@@std@@@2@@1@QEAV21@$$QEAV21@@Z
	??$_Erase@V?$basic_string@DU?$char_traits@D@std@@V?$allocator@D@2@@std@@@?$_Hash@V?$_Umap_traits@V?$basic_string@DU?$char_traits@D@std@@V?$allocator@D@2@@std@@V?$function@$$A6AXV?$shared_ptr@VMessage@TgBot@@@std@@@Z@2@V?$_Uhash_compare@V?$basic_string@DU?$char_traits@D@std@@V?$allocator@D@2@@std@@U?$hash@V?$basic_string@DU?$char_traits@D@std@@V?$allocator@D@2@@std@@@2@U?$equal_to@V?$basic_string@DU?$char_traits@D@std@@V?$allocator@D@2@@std@@@2@@2@V?$allocator@U?$pair@$$CBV?$basic_string@DU?$char_traits@D@std@@V?$allocator@D@2@@std@@V?$function@$$A6AXV?$shared_ptr@VMessage@TgBot@@@std@@@Z@2@@std@@@2@$0A@@std@@@std@@AEAA_KAEBV?$basic_string@DU?$char_traits@D@std@@V?$allocator@D@2@@1@@Z
	??$_Eval@V?$mersenne_twister_engine@I$0CA@$0CHA@$0BIN@$0BP@$0JJAILANP@$0L@$0PPPPPPPP@$06$0JNCMFGIA@$0P@$0OPMGAAAA@$0BC@$0GMAHIJGF@@std@@@?$uniform_int@_K@std@@AEBA_KAEAV?$mersenne_twister_engine@I$0CA@$0CHA@$0BIN@$0BP@$0JJAILANP@$0L@$0PPPPPPPP@$06$0JNCMFGIA@$0P@$0OPMGAAAA@$0BC@$0GMAHIJGF@@1@_K1@Z
	??$_Fgetc@D@std@@YA_NAEADPEAU_iobuf@@@Z
	??$_Find@V?$basic_string@DU?$char_traits@D@std@@V?$allocator@D@2@@std@@@?$_Hash@V?$_Umap_traits@V?$basic_string@DU?$char_traits@D@std@@V?$allocator@D@2@@std@@V?$function@$$A6AXV?$shared_ptr@VMessage@TgBot@@@std@@@Z@2@V?$_Uhash_compare@V?$basic_string@DU?$char_traits@D@std@@V?$allocator@D@2@@std@@U?$hash@V?$basic_string@DU?$char_traits@D@std@@V?$allocator@D@2@@std@@@2@U?$equal_to@V?$basic_string@DU?$char_traits@D@std@@V?$allocator@D@2@@std@@@2@@2@V?$allocator@U?$pair@$$CBV?$basic_string@DU?$char_traits@D@std@@V?$allocator@D@2@@std@@V?$function@$$A6AXV?$shared_ptr@VMessage@TgBot@@@std@@@Z@2@@std@@@2@$0A@@std@@@std@@AEBAPEAU?$_List_node@U?$pair@$$CBV?$basic_string@DU?$char_traits@D@std@@V?$allocator@D@2@@std@@V?$function@$$A6AXV?$shared_ptr@VMessage@TgBot@@@std@@@Z@2@@std@@PEAX@1@AEBV?$basic_string@DU?$char_traits@D@std@@V?$allocator@D@2@@1@_K@Z
	??$_Find_last@V?$basic_string@DU?$char_traits@D@std@@V?$allocator@D@2@@std@@@?$_Hash@V?$_Umap_traits@V?$basic_string@DU?$char_traits@D@std@@V?$allocator@D@2@@std@@V12@V?$_Uhash_compare@V?$basic_string@DU?$char_traits@D@std@@V?$allocator@D@2@@std@@U?$hash@V?$basic_string@DU?$char_traits@D@std@@V?$allocator@D@2@@std@@@2@U?$equal_to@V?$basic_string@DU?$char_traits@D@std@@V?$allocator@D@2@@std@@@2@@2@V?$allocator@U?$pair@$$CBV?$basic_string@DU?$char_traits@D@std@@V?$allocator@D@2@@std@@V12@@std@@@2@$0A@@std@@@std@@IEBA?AU?$_Hash_find_last_result@PEAU?$_List_node@U?$pair@$$CBV?$basic_string@DU?$char_traits@D@std@@V?$allocator@D@2@@std@@V12@@std@@PEAX@std@@@1@AEBV?$basic_string@DU?$char_traits@D@std@@V?$allocator@D@2@@1@_K@Z
	??$_Find_last@V?$basic_string@DU?$char_traits@D@std@@V?$allocator@D@2@@std@@@?$_Hash@V?$_Umap_traits@V?$basic_string@DU?$char_traits@D@std@@V?$allocator@D@2@@std@@V?$function@$$A6AXV?$shared_ptr@VMessage@TgBot@@@std@@@Z@2@V?$_Uhash_compare@V?$basic_string@DU?$char_traits@D@std@@V?$allocator@D@2@@std@@U?$hash@V?$basic_string@DU?$char_traits@D@std@@V?$allocator@D@2@@std@@@2@U?$equal_to@V?$basic_string@DU?$char_traits@D@std@@V?$allocator@D@2@@std@@@2@@2@V?$allocator@U?$pair@$$CBV?$basic_string@DU?$char_traits@D@std@@V?$allocator@D@2@@std@@V?$function@$$A6AXV?$shared_ptr@VMessage@TgBot@@@std@@@Z@2@@std@@@2@$0A@@std@@@std@@IEBA?AU?$_Hash_find_last_result@PEAU?$_List_node@U?$pair@$$CBV?$basic_string@DU?$char_traits@D@std@@V?$allocator@D@2@@std@@V?$function@$$A6AXV?$shared_ptr@VMessage@TgBot@@@std@@@Z@2@@std@@PEAX@std@@@1@AEBV?$basic_string@DU?$char_traits@D@std@@V?$allocator@D@2@@1@_K@Z
	??$_Find_unchecked@PEADD@std@@YAPEADPEADQEADAEBD@Z
	??$_Find_vectorized@DD@std@@YAPEADQEAD0D@Z
	??$_Fputc@D@std@@YA_NDPEAU_iobuf@@@Z
	??$_Free_non_head@V?$allocator@U?$_List_node@U?$pair@$$CBV?$basic_string@DU?$char_traits@D@std@@V?$allocator@D@2@@std@@V12@@std@@PEAX@std@@@std@@@?$_List_node@U?$pair@$$CBV?$basic_string@DU?$char_traits@D@std@@V?$allocator@D@2@@std@@V12@@std@@PEAX@std@@SAXAEAV?$allocator@U?$_List_node@U?$pair@$$CBV?$basic_string@DU?$char_traits@D@std@@V?$allocator@D@2@@std@@V12@@std@@PEAX@std@@@1@PEAU01@@Z
	??$_Free_non_head@V?$allocator@U?$_List_node@U?$pair@$$CBV?$basic_string@DU?$char_traits@D@std@@V?$allocator@D@2@@std@@V?$function@$$A6AXV?$shared_ptr@VMessage@TgBot@@@std@@@Z@2@@std@@PEAX@std@@@std@@@?$_List_node@U?$pair@$$CBV?$basic_string@DU?$char_traits@D@std@@V?$allocator@D@2@@std@@V?$function@$$A6AXV?$shared_ptr@VMessage@TgBot@@@std@@@Z@2@@std@@PEAX@std@@SAXAEAV?$allocator@U?$_List_node@U?$pair@$$CBV?$basic_string@DU?$char_traits@D@std@@V?$allocator@D@2@@std@@V?$function@$$A6AXV?$shared_ptr@VMessage@TgBot@@@std@@@Z@2@@std@@PEAX@std@@@1@PEAU01@@Z
	??$_Freenode0@V?$allocator@U?$_List_node@U?$pair@$$CBV?$basic_string@DU?$char_traits@D@std@@V?$allocator@D@2@@std@@V12@@std@@PEAX@std@@@std@@@?$_List_node@U?$pair@$$CBV?$basic_string@DU?$char_traits@D@std@@V?$allocator@D@2@@std@@V12@@std@@PEAX@std@@SAXAEAV?$allocator@U?$_List_node@U?$pair@$$CBV?$basic_string@DU?$char_traits@D@std@@V?$allocator@D@2@@std@@V12@@std@@PEAX@std@@@1@PEAU01@@Z
	??$_Freenode0@V?$allocator@U?$_List_node@U?$pair@$$CBV?$basic_string@DU?$char_traits@D@std@@V?$allocator@D@2@@std@@V?$function@$$A6AXV?$shared_ptr@VMessage@TgBot@@@std@@@Z@2@@std@@PEAX@std@@@std@@@?$_List_node@U?$pair@$$CBV?$basic_string@DU?$char_traits@D@std@@V?$allocator@D@2@@std@@V?$function@$$A6AXV?$shared_ptr@VMessage@TgBot@@@std@@@Z@2@@std@@PEAX@std@@SAXAEAV?$allocator@U?$_List_node@U?$pair@$$CBV?$basic_string@DU?$char_traits@D@std@@V?$allocator@D@2@@std@@V?$function@$$A6AXV?$shared_ptr@VMessage@TgBot@@@std@@@Z@2@@std@@PEAX@std@@@1@PEAU01@@Z
	??$_Freenode@V?$allocator@U?$_List_node@U?$pair@$$CBV?$basic_string@DU?$char_traits@D@std@@V?$allocator@D@2@@std@@V12@@std@@PEAX@std@@@std@@@?$_List_node@U?$pair@$$CBV?$basic_string@DU?$char_traits@D@std@@V?$allocator@D@2@@std@@V12@@std@@PEAX@std@@SAXAEAV?$allocator@U?$_List_node@U?$pair@$$CBV?$basic_string@DU?$char_traits@D@std@@V?$allocator@D@2@@std@@V12@@std@@PEAX@std@@@1@PEAU01@@Z
	??$_Freenode@V?$allocator@U?$_List_node@U?$pair@$$CBV?$basic_string@DU?$char_traits@D@std@@V?$allocator@D@2@@std@@V?$function@$$A6AXV?$shared_ptr@VMessage@TgBot@@@std@@@Z@2@@std@@PEAX@std@@@std@@@?$_List_node@U?$pair@$$CBV?$basic_string@DU?$char_traits@D@std@@V?$allocator@D@2@@std@@V?$function@$$A6AXV?$shared_ptr@VMessage@TgBot@@@std@@@Z@2@@std@@PEAX@std@@SAXAEAV?$allocator@U?$_List_node@U?$pair@$$CBV?$basic_string@DU?$char_traits@D@std@@V?$allocator@D@2@@std@@V?$function@$$A6AXV?$shared_ptr@VMessage@TgBot@@@std@@@Z@2@@std@@PEAX@std@@@1@PEAU01@@Z
	??$_Get_index@$0A@@id@locale@std@@QEAA_KXZ
	??$_Get_size_of_n@$00@std@@YA_K_K@Z
	??$_Get_size_of_n@$01@std@@YA_K_K@Z
	??$_Get_size_of_n@$03@std@@YA_K_K@Z
	??$_Get_size_of_n@$07@std@@YA_K_K@Z
	??$_Get_size_of_n@$0BA@@std@@YA_K_K@Z
	??$_Get_size_of_n@$0CA@@std@@YA_K_K@Z
	??$_Get_size_of_n@$0CI@@std@@YA_K_K@Z
	??$_Get_size_of_n@$0EA@@std@@YA_K_K@Z
	??$_Get_size_of_n@$0GA@@std@@YA_K_K@Z
	??$_Get_size_of_n@$0HA@@std@@YA_K_K@Z
	??$_Get_size_of_n@$0HI@@std@@YA_K_K@Z
	??$_Get_size_of_n@$0IA@@std@@YA_K_K@Z
	??$_Get_size_of_n@$0KI@@std@@YA_K_K@Z
	??$_Get_unwrapped@AEAPEAD@std@@YA?A_TAEAPEAD@Z
	??$_Get_unwrapped@AEAPEBU?$copy_map_entry@U?$sequenced_index_node@U?$ordered_index_node@Unull_augment_policy@detail@multi_index@boost@@U?$index_node_base@U?$pair@$$CBV?$basic_string@DU?$char_traits@D@std@@V?$allocator@D@2@@std@@V?$basic_ptree@V?$basic_string@DU?$char_traits@D@std@@V?$allocator@D@2@@std@@V12@U?$less@V?$basic_string@DU?$char_traits@D@std@@V?$allocator@D@2@@std@@@2@@property_tree@boost@@@std@@V?$allocator@U?$pair@$$CBV?$basic_string@DU?$char_traits@D@std@@V?$allocator@D@2@@std@@V?$basic_ptree@V?$basic_string@DU?$char_traits@D@std@@V?$allocator@D@2@@std@@V12@U?$less@V?$basic_string@DU?$char_traits@D@std@@V?$allocator@D@2@@std@@@2@@property_tree@boost@@@std@@@2@@234@@detail@multi_index@boost@@@detail@multi_index@boost@@@detail@multi_index@boost@@@std@@YA?A_TAEAPEBU?$copy_map_entry@U?$sequenced_index_node@U?$ordered_index_node@Unull_augment_policy@detail@multi_index@boost@@U?$index_node_base@U?$pair@$$CBV?$basic_string@DU?$char_traits@D@std@@V?$allocator@D@2@@std@@V?$basic_ptree@V?$basic_string@DU?$char_traits@D@std@@V?$allocator@D@2@@std@@V12@U?$less@V?$basic_string@DU?$char_traits@D@std@@V?$allocator@D@2@@std@@@2@@property_tree@boost@@@std@@V?$allocator@U?$pair@$$CBV?$basic_string@DU?$char_traits@D@std@@V?$allocator@D@2@@std@@V?$basic_ptree@V?$basic_string@DU?$char_traits@D@std@@V?$allocator@D@2@@std@@V12@U?$less@V?$basic_string@DU?$char_traits@D@std@@V?$allocator@D@2@@std@@@2@@property_tree@boost@@@std@@@2@@234@@detail@multi_index@boost@@@detail@multi_index@boost@@@detail@multi_index@boost@@@Z
	??$_Get_unwrapped@AEAPEB_W@std@@YA?A_TAEAPEB_W@Z
	??$_Get_unwrapped@AEAV?$_String_const_iterator@V?$_String_val@U?$_Simple_types@D@std@@@std@@@std@@@std@@YA?A_TAEAV?$_String_const_iterator@V?$_String_val@U?$_Simple_types@D@std@@@std@@@0@@Z
	??$_Get_unwrapped@AEAV?$_String_iterator@V?$_String_val@U?$_Simple_types@D@std@@@std@@@std@@@std@@YA?A_TAEAV?$_String_iterator@V?$_String_val@U?$_Simple_types@D@std@@@std@@@0@@Z
	??$_Get_unwrapped@AEBQEAH@std@@YA?A_TAEBQEAH@Z
	??$_Get_unwrapped@AEBQEAU?$copy_map_entry@U?$sequenced_index_node@U?$ordered_index_node@Unull_augment_policy@detail@multi_index@boost@@U?$index_node_base@U?$pair@$$CBV?$basic_string@DU?$char_traits@D@std@@V?$allocator@D@2@@std@@V?$basic_ptree@V?$basic_string@DU?$char_traits@D@std@@V?$allocator@D@2@@std@@V12@U?$less@V?$basic_string@DU?$char_traits@D@std@@V?$allocator@D@2@@std@@@2@@property_tree@boost@@@std@@V?$allocator@U?$pair@$$CBV?$basic_string@DU?$char_traits@D@std@@V?$allocator@D@2@@std@@V?$basic_ptree@V?$basic_string@DU?$char_traits@D@std@@V?$allocator@D@2@@std@@V12@U?$less@V?$basic_string@DU?$char_traits@D@std@@V?$allocator@D@2@@std@@@2@@property_tree@boost@@@std@@@2@@234@@detail@multi_index@boost@@@detail@multi_index@boost@@@detail@multi_index@boost@@@std@@YA?A_TAEBQEAU?$copy_map_entry@U?$sequenced_index_node@U?$ordered_index_node@Unull_augment_policy@detail@multi_index@boost@@U?$index_node_base@U?$pair@$$CBV?$basic_string@DU?$char_traits@D@std@@V?$allocator@D@2@@std@@V?$basic_ptree@V?$basic_string@DU?$char_traits@D@std@@V?$allocator@D@2@@std@@V12@U?$less@V?$basic_string@DU?$char_traits@D@std@@V?$allocator@D@2@@std@@@2@@property_tree@boost@@@std@@V?$allocator@U?$pair@$$CBV?$basic_string@DU?$char_traits@D@std@@V?$allocator@D@2@@std@@V?$basic_ptree@V?$basic_string@DU?$char_traits@D@std@@V?$allocator@D@2@@std@@V12@U?$less@V?$basic_string@DU?$char_traits@D@std@@V?$allocator@D@2@@std@@@2@@property_tree@boost@@@std@@@2@@234@@detail@multi_index@boost@@@detail@multi_index@boost@@@detail@multi_index@boost@@@Z
	??$_Get_unwrapped@AEBQEAUlayer@?$standard_callbacks@V?$basic_ptree@V?$basic_string@DU?$char_traits@D@std@@V?$allocator@D@2@@std@@V12@U?$less@V?$basic_string@DU?$char_traits@D@std@@V?$allocator@D@2@@std@@@2@@property_tree@boost@@@detail@json_parser@property_tree@boost@@@std@@YA?A_TAEBQEAUlayer@?$standard_callbacks@V?$basic_ptree@V?$basic_string@DU?$char_traits@D@std@@V?$allocator@D@2@@std@@V12@U?$less@V?$basic_string@DU?$char_traits@D@std@@V?$allocator@D@2@@std@@@2@@property_tree@boost@@@detail@json_parser@property_tree@boost@@@Z
	??$_Get_unwrapped@AEBQEAV?$_List_unchecked_iterator@V?$_List_val@U?$_List_simple_types@U?$pair@$$CBV?$basic_string@DU?$char_traits@D@std@@V?$allocator@D@2@@std@@V12@@std@@@std@@@std@@@std@@@std@@YA?A_TAEBQEAV?$_List_unchecked_iterator@V?$_List_val@U?$_List_simple_types@U?$pair@$$CBV?$basic_string@DU?$char_traits@D@std@@V?$allocator@D@2@@std@@V12@@std@@@std@@@std@@@0@@Z
	??$_Get_unwrapped@AEBQEAV?$_List_unchecked_iterator@V?$_List_val@U?$_List_simple_types@U?$pair@$$CBV?$basic_string@DU?$char_traits@D@std@@V?$allocator@D@2@@std@@V?$function@$$A6AXV?$shared_ptr@VMessage@TgBot@@@std@@@Z@2@@std@@@std@@@std@@@std@@@std@@YA?A_TAEBQEAV?$_List_unchecked_iterator@V?$_List_val@U?$_List_simple_types@U?$pair@$$CBV?$basic_string@DU?$char_traits@D@std@@V?$allocator@D@2@@std@@V?$function@$$A6AXV?$shared_ptr@VMessage@TgBot@@@std@@@Z@2@@std@@@std@@@std@@@0@@Z
	??$_Get_unwrapped@AEBQEAV?$basic_resolver_entry@Vtcp@ip@asio@boost@@@ip@asio@boost@@@std@@YA?A_TAEBQEAV?$basic_resolver_entry@Vtcp@ip@asio@boost@@@ip@asio@boost@@@Z
	??$_Get_unwrapped@AEBQEAV?$basic_string@DU?$char_traits@D@std@@V?$allocator@D@2@@std@@@std@@YA?A_TAEBQEAV?$basic_string@DU?$char_traits@D@std@@V?$allocator@D@2@@0@@Z
	??$_Get_unwrapped@AEBQEAV?$function@$$A6AXV?$shared_ptr@VCallbackQuery@TgBot@@@std@@@Z@std@@@std@@YA?A_TAEBQEAV?$function@$$A6AXV?$shared_ptr@VCallbackQuery@TgBot@@@std@@@Z@0@@Z
	??$_Get_unwrapped@AEBQEAV?$function@$$A6AXV?$shared_ptr@VChatJoinRequest@TgBot@@@std@@@Z@std@@@std@@YA?A_TAEBQEAV?$function@$$A6AXV?$shared_ptr@VChatJoinRequest@TgBot@@@std@@@Z@0@@Z
	??$_Get_unwrapped@AEBQEAV?$function@$$A6AXV?$shared_ptr@VChatMemberUpdated@TgBot@@@std@@@Z@std@@@std@@YA?A_TAEBQEAV?$function@$$A6AXV?$shared_ptr@VChatMemberUpdated@TgBot@@@std@@@Z@0@@Z
	??$_Get_unwrapped@AEBQEAV?$function@$$A6AXV?$shared_ptr@VChosenInlineResult@TgBot@@@std@@@Z@std@@@std@@YA?A_TAEBQEAV?$function@$$A6AXV?$shared_ptr@VChosenInlineResult@TgBot@@@std@@@Z@0@@Z
	??$_Get_unwrapped@AEBQEAV?$function@$$A6AXV?$shared_ptr@VInlineQuery@TgBot@@@std@@@Z@std@@@std@@YA?A_TAEBQEAV?$function@$$A6AXV?$shared_ptr@VInlineQuery@TgBot@@@std@@@Z@0@@Z
	??$_Get_unwrapped@AEBQEAV?$function@$$A6AXV?$shared_ptr@VMessage@TgBot@@@std@@@Z@std@@@std@@YA?A_TAEBQEAV?$function@$$A6AXV?$shared_ptr@VMessage@TgBot@@@std@@@Z@0@@Z
	??$_Get_unwrapped@AEBQEAV?$function@$$A6AXV?$shared_ptr@VPoll@TgBot@@@std@@@Z@std@@@std@@YA?A_TAEBQEAV?$function@$$A6AXV?$shared_ptr@VPoll@TgBot@@@std@@@Z@0@@Z
	??$_Get_unwrapped@AEBQEAV?$function@$$A6AXV?$shared_ptr@VPollAnswer@TgBot@@@std@@@Z@std@@@std@@YA?A_TAEBQEAV?$function@$$A6AXV?$shared_ptr@VPollAnswer@TgBot@@@std@@@Z@0@@Z
	??$_Get_unwrapped@AEBQEAV?$function@$$A6AXV?$shared_ptr@VPreCheckoutQuery@TgBot@@@std@@@Z@std@@@std@@YA?A_TAEBQEAV?$function@$$A6AXV?$shared_ptr@VPreCheckoutQuery@TgBot@@@std@@@Z@0@@Z
	??$_Get_unwrapped@AEBQEAV?$function@$$A6AXV?$shared_ptr@VShippingQuery@TgBot@@@std@@@Z@std@@@std@@YA?A_TAEBQEAV?$function@$$A6AXV?$shared_ptr@VShippingQuery@TgBot@@@std@@@Z@0@@Z
	??$_Get_unwrapped@AEBQEAV?$shared_ptr@VBotCommand@TgBot@@@std@@@std@@YA?A_TAEBQEAV?$shared_ptr@VBotCommand@TgBot@@@0@@Z
	??$_Get_unwrapped@AEBQEAV?$shared_ptr@VChatMember@TgBot@@@std@@@std@@YA?A_TAEBQEAV?$shared_ptr@VChatMember@TgBot@@@0@@Z
	??$_Get_unwrapped@AEBQEAV?$shared_ptr@VEncryptedPassportElement@TgBot@@@std@@@std@@YA?A_TAEBQEAV?$shared_ptr@VEncryptedPassportElement@TgBot@@@0@@Z
	??$_Get_unwrapped@AEBQEAV?$shared_ptr@VGameHighScore@TgBot@@@std@@@std@@YA?A_TAEBQEAV?$shared_ptr@VGameHighScore@TgBot@@@0@@Z
	??$_Get_unwrapped@AEBQEAV?$shared_ptr@VInlineKeyboardButton@TgBot@@@std@@@std@@YA?A_TAEBQEAV?$shared_ptr@VInlineKeyboardButton@TgBot@@@0@@Z
	??$_Get_unwrapped@AEBQEAV?$shared_ptr@VKeyboardButton@TgBot@@@std@@@std@@YA?A_TAEBQEAV?$shared_ptr@VKeyboardButton@TgBot@@@0@@Z
	??$_Get_unwrapped@AEBQEAV?$shared_ptr@VLabeledPrice@TgBot@@@std@@@std@@YA?A_TAEBQEAV?$shared_ptr@VLabeledPrice@TgBot@@@0@@Z
	??$_Get_unwrapped@AEBQEAV?$shared_ptr@VMessage@TgBot@@@std@@@std@@YA?A_TAEBQEAV?$shared_ptr@VMessage@TgBot@@@0@@Z
	??$_Get_unwrapped@AEBQEAV?$shared_ptr@VMessageEntity@TgBot@@@std@@@std@@YA?A_TAEBQEAV?$shared_ptr@VMessageEntity@TgBot@@@0@@Z
	??$_Get_unwrapped@AEBQEAV?$shared_ptr@VPassportFile@TgBot@@@std@@@std@@YA?A_TAEBQEAV?$shared_ptr@VPassportFile@TgBot@@@0@@Z
	??$_Get_unwrapped@AEBQEAV?$shared_ptr@VPhotoSize@TgBot@@@std@@@std@@YA?A_TAEBQEAV?$shared_ptr@VPhotoSize@TgBot@@@0@@Z
	??$_Get_unwrapped@AEBQEAV?$shared_ptr@VPollOption@TgBot@@@std@@@std@@YA?A_TAEBQEAV?$shared_ptr@VPollOption@TgBot@@@0@@Z
	??$_Get_unwrapped@AEBQEAV?$shared_ptr@VSticker@TgBot@@@std@@@std@@YA?A_TAEBQEAV?$shared_ptr@VSticker@TgBot@@@0@@Z
	??$_Get_unwrapped@AEBQEAV?$shared_ptr@VUpdate@TgBot@@@std@@@std@@YA?A_TAEBQEAV?$shared_ptr@VUpdate@TgBot@@@0@@Z
	??$_Get_unwrapped@AEBQEAV?$shared_ptr@VUser@TgBot@@@std@@@std@@YA?A_TAEBQEAV?$shared_ptr@VUser@TgBot@@@0@@Z
	??$_Get_unwrapped@AEBQEAV?$vector@V?$shared_ptr@VInlineKeyboardButton@TgBot@@@std@@V?$allocator@V?$shared_ptr@VInlineKeyboardButton@TgBot@@@std@@@2@@std@@@std@@YA?A_TAEBQEAV?$vector@V?$shared_ptr@VInlineKeyboardButton@TgBot@@@std@@V?$allocator@V?$shared_ptr@VInlineKeyboardButton@TgBot@@@std@@@2@@0@@Z
	??$_Get_unwrapped@AEBQEAV?$vector@V?$shared_ptr@VKeyboardButton@TgBot@@@std@@V?$allocator@V?$shared_ptr@VKeyboardButton@TgBot@@@std@@@2@@std@@@std@@YA?A_TAEBQEAV?$vector@V?$shared_ptr@VKeyboardButton@TgBot@@@std@@V?$allocator@V?$shared_ptr@VKeyboardButton@TgBot@@@std@@@2@@0@@Z
	??$_Get_unwrapped@AEBQEAV?$vector@V?$shared_ptr@VPhotoSize@TgBot@@@std@@V?$allocator@V?$shared_ptr@VPhotoSize@TgBot@@@std@@@2@@std@@@std@@YA?A_TAEBQEAV?$vector@V?$shared_ptr@VPhotoSize@TgBot@@@std@@V?$allocator@V?$shared_ptr@VPhotoSize@TgBot@@@std@@@2@@0@@Z
	??$_Get_unwrapped@AEBQEAVHttpReqArg@TgBot@@@std@@YA?A_TAEBQEAVHttpReqArg@TgBot@@@Z
	??$_Get_unwrapped@AEBQEBD@std@@YA?A_TAEBQEBD@Z
	??$_Get_unwrapped@AEBQEBU?$copy_map_entry@U?$sequenced_index_node@U?$ordered_index_node@Unull_augment_policy@detail@multi_index@boost@@U?$index_node_base@U?$pair@$$CBV?$basic_string@DU?$char_traits@D@std@@V?$allocator@D@2@@std@@V?$basic_ptree@V?$basic_string@DU?$char_traits@D@std@@V?$allocator@D@2@@std@@V12@U?$less@V?$basic_string@DU?$char_traits@D@std@@V?$allocator@D@2@@std@@@2@@property_tree@boost@@@std@@V?$allocator@U?$pair@$$CBV?$basic_string@DU?$char_traits@D@std@@V?$allocator@D@2@@std@@V?$basic_ptree@V?$basic_string@DU?$char_traits@D@std@@V?$allocator@D@2@@std@@V12@U?$less@V?$basic_string@DU?$char_traits@D@std@@V?$allocator@D@2@@std@@@2@@property_tree@boost@@@std@@@2@@234@@detail@multi_index@boost@@@detail@multi_index@boost@@@detail@multi_index@boost@@@std@@YA?A_TAEBQEBU?$copy_map_entry@U?$sequenced_index_node@U?$ordered_index_node@Unull_augment_policy@detail@multi_index@boost@@U?$index_node_base@U?$pair@$$CBV?$basic_string@DU?$char_traits@D@std@@V?$allocator@D@2@@std@@V?$basic_ptree@V?$basic_string@DU?$char_traits@D@std@@V?$allocator@D@2@@std@@V12@U?$less@V?$basic_string@DU?$char_traits@D@std@@V?$allocator@D@2@@std@@@2@@property_tree@boost@@@std@@V?$allocator@U?$pair@$$CBV?$basic_string@DU?$char_traits@D@std@@V?$allocator@D@2@@std@@V?$basic_ptree@V?$basic_string@DU?$char_traits@D@std@@V?$allocator@D@2@@std@@V12@U?$less@V?$basic_string@DU?$char_traits@D@std@@V?$allocator@D@2@@std@@@2@@property_tree@boost@@@std@@@2@@234@@detail@multi_index@boost@@@detail@multi_index@boost@@@detail@multi_index@boost@@@Z
	??$_Get_unwrapped@AEBQEB_W@std@@YA?A_TAEBQEB_W@Z
	??$_Get_unwrapped@AEBV?$_String_iterator@V?$_String_val@U?$_Simple_types@D@std@@@std@@@std@@@std@@YA?A_TAEBV?$_String_iterator@V?$_String_val@U?$_Simple_types@D@std@@@std@@@0@@Z
	??$_Get_unwrapped@PEAV?$function@$$A6AXV?$shared_ptr@VCallbackQuery@TgBot@@@std@@@Z@std@@@std@@YA?A_T$$QEAPEAV?$function@$$A6AXV?$shared_ptr@VCallbackQuery@TgBot@@@std@@@Z@0@@Z
	??$_Get_unwrapped@PEAV?$function@$$A6AXV?$shared_ptr@VChatJoinRequest@TgBot@@@std@@@Z@std@@@std@@YA?A_T$$QEAPEAV?$function@$$A6AXV?$shared_ptr@VChatJoinRequest@TgBot@@@std@@@Z@0@@Z
	??$_Get_unwrapped@PEAV?$function@$$A6AXV?$shared_ptr@VChatMemberUpdated@TgBot@@@std@@@Z@std@@@std@@YA?A_T$$QEAPEAV?$function@$$A6AXV?$shared_ptr@VChatMemberUpdated@TgBot@@@std@@@Z@0@@Z
	??$_Get_unwrapped@PEAV?$function@$$A6AXV?$shared_ptr@VChosenInlineResult@TgBot@@@std@@@Z@std@@@std@@YA?A_T$$QEAPEAV?$function@$$A6AXV?$shared_ptr@VChosenInlineResult@TgBot@@@std@@@Z@0@@Z
	??$_Get_unwrapped@PEAV?$function@$$A6AXV?$shared_ptr@VInlineQuery@TgBot@@@std@@@Z@std@@@std@@YA?A_T$$QEAPEAV?$function@$$A6AXV?$shared_ptr@VInlineQuery@TgBot@@@std@@@Z@0@@Z
	??$_Get_unwrapped@PEAV?$function@$$A6AXV?$shared_ptr@VMessage@TgBot@@@std@@@Z@std@@@std@@YA?A_T$$QEAPEAV?$function@$$A6AXV?$shared_ptr@VMessage@TgBot@@@std@@@Z@0@@Z
	??$_Get_unwrapped@PEAV?$function@$$A6AXV?$shared_ptr@VPoll@TgBot@@@std@@@Z@std@@@std@@YA?A_T$$QEAPEAV?$function@$$A6AXV?$shared_ptr@VPoll@TgBot@@@std@@@Z@0@@Z
	??$_Get_unwrapped@PEAV?$function@$$A6AXV?$shared_ptr@VPollAnswer@TgBot@@@std@@@Z@std@@@std@@YA?A_T$$QEAPEAV?$function@$$A6AXV?$shared_ptr@VPollAnswer@TgBot@@@std@@@Z@0@@Z
	??$_Get_unwrapped@PEAV?$function@$$A6AXV?$shared_ptr@VPreCheckoutQuery@TgBot@@@std@@@Z@std@@@std@@YA?A_T$$QEAPEAV?$function@$$A6AXV?$shared_ptr@VPreCheckoutQuery@TgBot@@@std@@@Z@0@@Z
	??$_Get_unwrapped@PEAV?$function@$$A6AXV?$shared_ptr@VShippingQuery@TgBot@@@std@@@Z@std@@@std@@YA?A_T$$QEAPEAV?$function@$$A6AXV?$shared_ptr@VShippingQuery@TgBot@@@std@@@Z@0@@Z
	??$_Get_unwrapped@PEAV?$shared_ptr@VPhotoSize@TgBot@@@std@@@std@@YA?A_T$$QEAPEAV?$shared_ptr@VPhotoSize@TgBot@@@0@@Z
	??$_Get_unwrapped@PEAV?$shared_ptr@VUpdate@TgBot@@@std@@@std@@YA?A_T$$QEAPEAV?$shared_ptr@VUpdate@TgBot@@@0@@Z
	??$_Getvals@_W@?$time_get@DV?$istreambuf_iterator@DU?$char_traits@D@std@@@std@@@std@@IEAAX_WAEBV_Locinfo@1@@Z
	??$_Getvals@_W@?$time_get@_WV?$istreambuf_iterator@_WU?$char_traits@_W@std@@@std@@@std@@IEAAX_WAEBV_Locinfo@1@@Z
	??$_Guess_median_unchecked@PEAU?$copy_map_entry@U?$sequenced_index_node@U?$ordered_index_node@Unull_augment_policy@detail@multi_index@boost@@U?$index_node_base@U?$pair@$$CBV?$basic_string@DU?$char_traits@D@std@@V?$allocator@D@2@@std@@V?$basic_ptree@V?$basic_string@DU?$char_traits@D@std@@V?$allocator@D@2@@std@@V12@U?$less@V?$basic_string@DU?$char_traits@D@std@@V?$allocator@D@2@@std@@@2@@property_tree@boost@@@std@@V?$allocator@U?$pair@$$CBV?$basic_string@DU?$char_traits@D@std@@V?$allocator@D@2@@std@@V?$basic_ptree@V?$basic_string@DU?$char_traits@D@std@@V?$allocator@D@2@@std@@V12@U?$less@V?$basic_string@DU?$char_traits@D@std@@V?$allocator@D@2@@std@@@2@@property_tree@boost@@@std@@@2@@234@@detail@multi_index@boost@@@detail@multi_index@boost@@@detail@multi_index@boost@@U?$less@X@std@@@std@@YAXPEAU?$copy_map_entry@U?$sequenced_index_node@U?$ordered_index_node@Unull_augment_policy@detail@multi_index@boost@@U?$index_node_base@U?$pair@$$CBV?$basic_string@DU?$char_traits@D@std@@V?$allocator@D@2@@std@@V?$basic_ptree@V?$basic_string@DU?$char_traits@D@std@@V?$allocator@D@2@@std@@V12@U?$less@V?$basic_string@DU?$char_traits@D@std@@V?$allocator@D@2@@std@@@2@@property_tree@boost@@@std@@V?$allocator@U?$pair@$$CBV?$basic_string@DU?$char_traits@D@std@@V?$allocator@D@2@@std@@V?$basic_ptree@V?$basic_string@DU?$char_traits@D@std@@V?$allocator@D@2@@std@@V12@U?$less@V?$basic_string@DU?$char_traits@D@std@@V?$allocator@D@2@@std@@@2@@property_tree@boost@@@std@@@2@@234@@detail@multi_index@boost@@@detail@multi_index@boost@@@detail@multi_index@boost@@00U?$less@X@0@@Z
	??$_Hash_array_representation@D@std@@YA_KQEBD_K@Z
	??$_Immortalize_memcpy_image@V_Generic_error_category@std@@@std@@YAAEBV_Generic_error_category@0@XZ
	??$_Immortalize_memcpy_image@V_System_error_category@std@@@std@@YAAEBV_System_error_category@0@XZ
	??$_In_range@H_K@std@@YA_N_K@Z
	??$_Insert_range_unchecked@V?$_List_unchecked_const_iterator@V?$_List_val@U?$_List_simple_types@U?$pair@$$CBV?$basic_string@DU?$char_traits@D@std@@V?$allocator@D@2@@std@@V?$function@$$A6AXV?$shared_ptr@VMessage@TgBot@@@std@@@Z@2@@std@@@std@@@std@@U_Iterator_base0@2@@std@@V12@@?$_Hash@V?$_Umap_traits@V?$basic_string@DU?$char_traits@D@std@@V?$allocator@D@2@@std@@V?$function@$$A6AXV?$shared_ptr@VMessage@TgBot@@@std@@@Z@2@V?$_Uhash_compare@V?$basic_string@DU?$char_traits@D@std@@V?$allocator@D@2@@std@@U?$hash@V?$basic_string@DU?$char_traits@D@std@@V?$allocator@D@2@@std@@@2@U?$equal_to@V?$basic_string@DU?$char_traits@D@std@@V?$allocator@D@2@@std@@@2@@2@V?$allocator@U?$pair@$$CBV?$basic_string@DU?$char_traits@D@std@@V?$allocator@D@2@@std@@V?$function@$$A6AXV?$shared_ptr@VMessage@TgBot@@@std@@@Z@2@@std@@@2@$0A@@std@@@std@@IEAAXV?$_List_unchecked_const_iterator@V?$_List_val@U?$_List_simple_types@U?$pair@$$CBV?$basic_string@DU?$char_traits@D@std@@V?$allocator@D@2@@std@@V?$function@$$A6AXV?$shared_ptr@VMessage@TgBot@@@std@@@Z@2@@std@@@std@@@std@@U_Iterator_base0@2@@1@V21@@Z
	??$_Insert_string@DU?$char_traits@D@std@@_K@std@@YAAEAV?$basic_ostream@DU?$char_traits@D@std@@@0@AEAV10@QEBD_K@Z
	??$_Insertion_sort_unchecked@PEAU?$copy_map_entry@U?$sequenced_index_node@U?$ordered_index_node@Unull_augment_policy@detail@multi_index@boost@@U?$index_node_base@U?$pair@$$CBV?$basic_string@DU?$char_traits@D@std@@V?$allocator@D@2@@std@@V?$basic_ptree@V?$basic_string@DU?$char_traits@D@std@@V?$allocator@D@2@@std@@V12@U?$less@V?$basic_string@DU?$char_traits@D@std@@V?$allocator@D@2@@std@@@2@@property_tree@boost@@@std@@V?$allocator@U?$pair@$$CBV?$basic_string@DU?$char_traits@D@std@@V?$allocator@D@2@@std@@V?$basic_ptree@V?$basic_string@DU?$char_traits@D@std@@V?$allocator@D@2@@std@@V12@U?$less@V?$basic_string@DU?$char_traits@D@std@@V?$allocator@D@2@@std@@@2@@property_tree@boost@@@std@@@2@@234@@detail@multi_index@boost@@@detail@multi_index@boost@@@detail@multi_index@boost@@U?$less@X@std@@@std@@YAPEAU?$copy_map_entry@U?$sequenced_index_node@U?$ordered_index_node@Unull_augment_policy@detail@multi_index@boost@@U?$index_node_base@U?$pair@$$CBV?$basic_string@DU?$char_traits@D@std@@V?$allocator@D@2@@std@@V?$basic_ptree@V?$basic_string@DU?$char_traits@D@std@@V?$allocator@D@2@@std@@V12@U?$less@V?$basic_string@DU?$char_traits@D@std@@V?$allocator@D@2@@std@@@2@@property_tree@boost@@@std@@V?$allocator@U?$pair@$$CBV?$basic_string@DU?$char_traits@D@std@@V?$allocator@D@2@@std@@V?$basic_ptree@V?$basic_string@DU?$char_traits@D@std@@V?$allocator@D@2@@std@@V12@U?$less@V?$basic_string@DU?$char_traits@D@std@@V?$allocator@D@2@@std@@@2@@property_tree@boost@@@std@@@2@@234@@detail@multi_index@boost@@@detail@multi_index@boost@@@detail@multi_index@boost@@QEAU1234@0U?$less@X@0@@Z
	??$_Integral_to_string@DH@std@@YA?AV?$basic_string@DU?$char_traits@D@std@@V?$allocator@D@2@@0@H@Z
	??$_Integral_to_string@DJ@std@@YA?AV?$basic_string@DU?$char_traits@D@std@@V?$allocator@D@2@@0@J@Z
	??$_Integral_to_string@D_J@std@@YA?AV?$basic_string@DU?$char_traits@D@std@@V?$allocator@D@2@@0@_J@Z
	??$_Kfn@$$CBV?$basic_string@DU?$char_traits@D@std@@V?$allocator@D@2@@std@@V12@@?$_Umap_traits@V?$basic_string@DU?$char_traits@D@std@@V?$allocator@D@2@@std@@V12@V?$_Uhash_compare@V?$basic_string@DU?$char_traits@D@std@@V?$allocator@D@2@@std@@U?$hash@V?$basic_string@DU?$char_traits@D@std@@V?$allocator@D@2@@std@@@2@U?$equal_to@V?$basic_string@DU?$char_traits@D@std@@V?$allocator@D@2@@std@@@2@@2@V?$allocator@U?$pair@$$CBV?$basic_string@DU?$char_traits@D@std@@V?$allocator@D@2@@std@@V12@@std@@@2@$0A@@std@@SAAEBV?$basic_string@DU?$char_traits@D@std@@V?$allocator@D@2@@1@AEBU?$pair@$$CBV?$basic_string@DU?$char_traits@D@std@@V?$allocator@D@2@@std@@V12@@1@@Z
	??$_Kfn@$$CBV?$basic_string@DU?$char_traits@D@std@@V?$allocator@D@2@@std@@V?$function@$$A6AXV?$shared_ptr@VMessage@TgBot@@@std@@@Z@2@@?$_Umap_traits@V?$basic_string@DU?$char_traits@D@std@@V?$allocator@D@2@@std@@V?$function@$$A6AXV?$shared_ptr@VMessage@TgBot@@@std@@@Z@2@V?$_Uhash_compare@V?$basic_string@DU?$char_traits@D@std@@V?$allocator@D@2@@std@@U?$hash@V?$basic_string@DU?$char_traits@D@std@@V?$allocator@D@2@@std@@@2@U?$equal_to@V?$basic_string@DU?$char_traits@D@std@@V?$allocator@D@2@@std@@@2@@2@V?$allocator@U?$pair@$$CBV?$basic_string@DU?$char_traits@D@std@@V?$allocator@D@2@@std@@V?$function@$$A6AXV?$shared_ptr@VMessage@TgBot@@@std@@@Z@2@@std@@@2@$0A@@std@@SAAEBV?$basic_string@DU?$char_traits@D@std@@V?$allocator@D@2@@1@AEBU?$pair@$$CBV?$basic_string@DU?$char_traits@D@std@@V?$allocator@D@2@@std@@V?$function@$$A6AXV?$shared_ptr@VMessage@TgBot@@@std@@@Z@2@@1@@Z
	??$_Knuth_4_3_1_M@$01$01@_Base128@std@@SAXAEAY01$$CBI0AEAY03I@Z
	??$_Make_heap_unchecked@PEAU?$copy_map_entry@U?$sequenced_index_node@U?$ordered_index_node@Unull_augment_policy@detail@multi_index@boost@@U?$index_node_base@U?$pair@$$CBV?$basic_string@DU?$char_traits@D@std@@V?$allocator@D@2@@std@@V?$basic_ptree@V?$basic_string@DU?$char_traits@D@std@@V?$allocator@D@2@@std@@V12@U?$less@V?$basic_string@DU?$char_traits@D@std@@V?$allocator@D@2@@std@@@2@@property_tree@boost@@@std@@V?$allocator@U?$pair@$$CBV?$basic_string@DU?$char_traits@D@std@@V?$allocator@D@2@@std@@V?$basic_ptree@V?$basic_string@DU?$char_traits@D@std@@V?$allocator@D@2@@std@@V12@U?$less@V?$basic_string@DU?$char_traits@D@std@@V?$allocator@D@2@@std@@@2@@property_tree@boost@@@std@@@2@@234@@detail@multi_index@boost@@@detail@multi_index@boost@@@detail@multi_index@boost@@U?$less@X@std@@@std@@YAXPEAU?$copy_map_entry@U?$sequenced_index_node@U?$ordered_index_node@Unull_augment_policy@detail@multi_index@boost@@U?$index_node_base@U?$pair@$$CBV?$basic_string@DU?$char_traits@D@std@@V?$allocator@D@2@@std@@V?$basic_ptree@V?$basic_string@DU?$char_traits@D@std@@V?$allocator@D@2@@std@@V12@U?$less@V?$basic_string@DU?$char_traits@D@std@@V?$allocator@D@2@@std@@@2@@property_tree@boost@@@std@@V?$allocator@U?$pair@$$CBV?$basic_string@DU?$char_traits@D@std@@V?$allocator@D@2@@std@@V?$basic_ptree@V?$basic_string@DU?$char_traits@D@std@@V?$allocator@D@2@@std@@V12@U?$less@V?$basic_string@DU?$char_traits@D@std@@V?$allocator@D@2@@std@@@2@@property_tree@boost@@@std@@@2@@234@@detail@multi_index@boost@@@detail@multi_index@boost@@@detail@multi_index@boost@@0U?$less@X@0@@Z
	??$_Maklocchr@D@std@@YADDPEADAEBU_Cvtvec@@@Z
	??$_Maklocstr@D@std@@YAPEADPEBDPEADAEBU_Cvtvec@@@Z
	??$_Max_limit@_J@std@@YA_JXZ
	??$_Med3_unchecked@PEAU?$copy_map_entry@U?$sequenced_index_node@U?$ordered_index_node@Unull_augment_policy@detail@multi_index@boost@@U?$index_node_base@U?$pair@$$CBV?$basic_string@DU?$char_traits@D@std@@V?$allocator@D@2@@std@@V?$basic_ptree@V?$basic_string@DU?$char_traits@D@std@@V?$allocator@D@2@@std@@V12@U?$less@V?$basic_string@DU?$char_traits@D@std@@V?$allocator@D@2@@std@@@2@@property_tree@boost@@@std@@V?$allocator@U?$pair@$$CBV?$basic_string@DU?$char_traits@D@std@@V?$allocator@D@2@@std@@V?$basic_ptree@V?$basic_string@DU?$char_traits@D@std@@V?$allocator@D@2@@std@@V12@U?$less@V?$basic_string@DU?$char_traits@D@std@@V?$allocator@D@2@@std@@@2@@property_tree@boost@@@std@@@2@@234@@detail@multi_index@boost@@@detail@multi_index@boost@@@detail@multi_index@boost@@U?$less@X@std@@@std@@YAXPEAU?$copy_map_entry@U?$sequenced_index_node@U?$ordered_index_node@Unull_augment_policy@detail@multi_index@boost@@U?$index_node_base@U?$pair@$$CBV?$basic_string@DU?$char_traits@D@std@@V?$allocator@D@2@@std@@V?$basic_ptree@V?$basic_string@DU?$char_traits@D@std@@V?$allocator@D@2@@std@@V12@U?$less@V?$basic_string@DU?$char_traits@D@std@@V?$allocator@D@2@@std@@@2@@property_tree@boost@@@std@@V?$allocator@U?$pair@$$CBV?$basic_string@DU?$char_traits@D@std@@V?$allocator@D@2@@std@@V?$basic_ptree@V?$basic_string@DU?$char_traits@D@std@@V?$allocator@D@2@@std@@V12@U?$less@V?$basic_string@DU?$char_traits@D@std@@V?$allocator@D@2@@std@@@2@@property_tree@boost@@@std@@@2@@234@@detail@multi_index@boost@@@detail@multi_index@boost@@@detail@multi_index@boost@@00U?$less@X@0@@Z
	??$_Move_backward_unchecked@PEAU?$copy_map_entry@U?$sequenced_index_node@U?$ordered_index_node@Unull_augment_policy@detail@multi_index@boost@@U?$index_node_base@U?$pair@$$CBV?$basic_string@DU?$char_traits@D@std@@V?$allocator@D@2@@std@@V?$basic_ptree@V?$basic_string@DU?$char_traits@D@std@@V?$allocator@D@2@@std@@V12@U?$less@V?$basic_string@DU?$char_traits@D@std@@V?$allocator@D@2@@std@@@2@@property_tree@boost@@@std@@V?$allocator@U?$pair@$$CBV?$basic_string@DU?$char_traits@D@std@@V?$allocator@D@2@@std@@V?$basic_ptree@V?$basic_string@DU?$char_traits@D@std@@V?$allocator@D@2@@std@@V12@U?$less@V?$basic_string@DU?$char_traits@D@std@@V?$allocator@D@2@@std@@@2@@property_tree@boost@@@std@@@2@@234@@detail@multi_index@boost@@@detail@multi_index@boost@@@detail@multi_index@boost@@PEAU1234@@std@@YAPEAU?$copy_map_entry@U?$sequenced_index_node@U?$ordered_index_node@Unull_augment_policy@detail@multi_index@boost@@U?$index_node_base@U?$pair@$$CBV?$basic_string@DU?$char_traits@D@std@@V?$allocator@D@2@@std@@V?$basic_ptree@V?$basic_string@DU?$char_traits@D@std@@V?$allocator@D@2@@std@@V12@U?$less@V?$basic_string@DU?$char_traits@D@std@@V?$allocator@D@2@@std@@@2@@property_tree@boost@@@std@@V?$allocator@U?$pair@$$CBV?$basic_string@DU?$char_traits@D@std@@V?$allocator@D@2@@std@@V?$basic_ptree@V?$basic_string@DU?$char_traits@D@std@@V?$allocator@D@2@@std@@V12@U?$less@V?$basic_string@DU?$char_traits@D@std@@V?$allocator@D@2@@std@@@2@@property_tree@boost@@@std@@@2@@234@@detail@multi_index@boost@@@detail@multi_index@boost@@@detail@multi_index@boost@@PEAU1234@00@Z
	??$_Move_construct_from@V?$vector@V?$basic_resolver_entry@Vtcp@ip@asio@boost@@@ip@asio@boost@@V?$allocator@V?$basic_resolver_entry@Vtcp@ip@asio@boost@@@ip@asio@boost@@@std@@@std@@@?$_Ptr_base@V?$vector@V?$basic_resolver_entry@Vtcp@ip@asio@boost@@@ip@asio@boost@@V?$allocator@V?$basic_resolver_entry@Vtcp@ip@asio@boost@@@ip@asio@boost@@@std@@@std@@@std@@IEAAX$$QEAV01@@Z
	??$_Move_construct_from@V?$vector@V?$basic_string@DU?$char_traits@D@std@@V?$allocator@D@2@@std@@V?$allocator@V?$basic_string@DU?$char_traits@D@std@@V?$allocator@D@2@@std@@@2@@std@@@?$_Ptr_base@V?$vector@V?$basic_string@DU?$char_traits@D@std@@V?$allocator@D@2@@std@@V?$allocator@V?$basic_string@DU?$char_traits@D@std@@V?$allocator@D@2@@std@@@2@@std@@@std@@IEAAX$$QEAV01@@Z
	??$_Move_construct_from@VAnimation@TgBot@@@?$_Ptr_base@VAnimation@TgBot@@@std@@IEAAX$$QEAV01@@Z
	??$_Move_construct_from@VAudio@TgBot@@@?$_Ptr_base@VAudio@TgBot@@@std@@IEAAX$$QEAV01@@Z
	??$_Move_construct_from@VBotCommand@TgBot@@@?$_Ptr_base@VBotCommand@TgBot@@@std@@IEAAX$$QEAV01@@Z
	??$_Move_construct_from@VBotCommandScope@TgBot@@@?$_Ptr_base@VBotCommandScope@TgBot@@@std@@IEAAX$$QEAV01@@Z
	??$_Move_construct_from@VBotCommandScopeAllChatAdministrators@TgBot@@@?$_Ptr_base@VBotCommandScopeAllChatAdministrators@TgBot@@@std@@IEAAX$$QEAV01@@Z
	??$_Move_construct_from@VBotCommandScopeAllGroupChats@TgBot@@@?$_Ptr_base@VBotCommandScopeAllGroupChats@TgBot@@@std@@IEAAX$$QEAV01@@Z
	??$_Move_construct_from@VBotCommandScopeAllPrivateChats@TgBot@@@?$_Ptr_base@VBotCommandScopeAllPrivateChats@TgBot@@@std@@IEAAX$$QEAV01@@Z
	??$_Move_construct_from@VBotCommandScopeChat@TgBot@@@?$_Ptr_base@VBotCommandScopeChat@TgBot@@@std@@IEAAX$$QEAV01@@Z
	??$_Move_construct_from@VBotCommandScopeChatAdministrators@TgBot@@@?$_Ptr_base@VBotCommandScopeChatAdministrators@TgBot@@@std@@IEAAX$$QEAV01@@Z
	??$_Move_construct_from@VBotCommandScopeChatMember@TgBot@@@?$_Ptr_base@VBotCommandScopeChatMember@TgBot@@@std@@IEAAX$$QEAV01@@Z
	??$_Move_construct_from@VBotCommandScopeDefault@TgBot@@@?$_Ptr_base@VBotCommandScopeDefault@TgBot@@@std@@IEAAX$$QEAV01@@Z
	??$_Move_construct_from@VCallbackGame@TgBot@@@?$_Ptr_base@VCallbackGame@TgBot@@@std@@IEAAX$$QEAV01@@Z
	??$_Move_construct_from@VCallbackQuery@TgBot@@@?$_Ptr_base@VCallbackQuery@TgBot@@@std@@IEAAX$$QEAV01@@Z
	??$_Move_construct_from@VChat@TgBot@@@?$_Ptr_base@VChat@TgBot@@@std@@IEAAX$$QEAV01@@Z
	??$_Move_construct_from@VChatAdministratorRights@TgBot@@@?$_Ptr_base@VChatAdministratorRights@TgBot@@@std@@IEAAX$$QEAV01@@Z
	??$_Move_construct_from@VChatInviteLink@TgBot@@@?$_Ptr_base@VChatInviteLink@TgBot@@@std@@IEAAX$$QEAV01@@Z
	??$_Move_construct_from@VChatJoinRequest@TgBot@@@?$_Ptr_base@VChatJoinRequest@TgBot@@@std@@IEAAX$$QEAV01@@Z
	??$_Move_construct_from@VChatLocation@TgBot@@@?$_Ptr_base@VChatLocation@TgBot@@@std@@IEAAX$$QEAV01@@Z
	??$_Move_construct_from@VChatMember@TgBot@@@?$_Ptr_base@VChatMember@TgBot@@@std@@IEAAX$$QEAV01@@Z
	??$_Move_construct_from@VChatMemberAdministrator@TgBot@@@?$_Ptr_base@VChatMemberAdministrator@TgBot@@@std@@IEAAX$$QEAV01@@Z
	??$_Move_construct_from@VChatMemberBanned@TgBot@@@?$_Ptr_base@VChatMemberBanned@TgBot@@@std@@IEAAX$$QEAV01@@Z
	??$_Move_construct_from@VChatMemberLeft@TgBot@@@?$_Ptr_base@VChatMemberLeft@TgBot@@@std@@IEAAX$$QEAV01@@Z
	??$_Move_construct_from@VChatMemberMember@TgBot@@@?$_Ptr_base@VChatMemberMember@TgBot@@@std@@IEAAX$$QEAV01@@Z
	??$_Move_construct_from@VChatMemberOwner@TgBot@@@?$_Ptr_base@VChatMemberOwner@TgBot@@@std@@IEAAX$$QEAV01@@Z
	??$_Move_construct_from@VChatMemberRestricted@TgBot@@@?$_Ptr_base@VChatMemberRestricted@TgBot@@@std@@IEAAX$$QEAV01@@Z
	??$_Move_construct_from@VChatMemberUpdated@TgBot@@@?$_Ptr_base@VChatMemberUpdated@TgBot@@@std@@IEAAX$$QEAV01@@Z
	??$_Move_construct_from@VChatPermissions@TgBot@@@?$_Ptr_base@VChatPermissions@TgBot@@@std@@IEAAX$$QEAV01@@Z
	??$_Move_construct_from@VChatPhoto@TgBot@@@?$_Ptr_base@VChatPhoto@TgBot@@@std@@IEAAX$$QEAV01@@Z
	??$_Move_construct_from@VChatShared@TgBot@@@?$_Ptr_base@VChatShared@TgBot@@@std@@IEAAX$$QEAV01@@Z
	??$_Move_construct_from@VChosenInlineResult@TgBot@@@?$_Ptr_base@VChosenInlineResult@TgBot@@@std@@IEAAX$$QEAV01@@Z
	??$_Move_construct_from@VContact@TgBot@@@?$_Ptr_base@VContact@TgBot@@@std@@IEAAX$$QEAV01@@Z
	??$_Move_construct_from@VDice@TgBot@@@?$_Ptr_base@VDice@TgBot@@@std@@IEAAX$$QEAV01@@Z
	??$_Move_construct_from@VDocument@TgBot@@@?$_Ptr_base@VDocument@TgBot@@@std@@IEAAX$$QEAV01@@Z
	??$_Move_construct_from@VEncryptedCredentials@TgBot@@@?$_Ptr_base@VEncryptedCredentials@TgBot@@@std@@IEAAX$$QEAV01@@Z
	??$_Move_construct_from@VEncryptedPassportElement@TgBot@@@?$_Ptr_base@VEncryptedPassportElement@TgBot@@@std@@IEAAX$$QEAV01@@Z
	??$_Move_construct_from@VFile@TgBot@@@?$_Ptr_base@VFile@TgBot@@@std@@IEAAX$$QEAV01@@Z
	??$_Move_construct_from@VForceReply@TgBot@@@?$_Ptr_base@VForceReply@TgBot@@@std@@IEAAX$$QEAV01@@Z
	??$_Move_construct_from@VForumTopic@TgBot@@@?$_Ptr_base@VForumTopic@TgBot@@@std@@IEAAX$$QEAV01@@Z
	??$_Move_construct_from@VForumTopicClosed@TgBot@@@?$_Ptr_base@VForumTopicClosed@TgBot@@@std@@IEAAX$$QEAV01@@Z
	??$_Move_construct_from@VForumTopicCreated@TgBot@@@?$_Ptr_base@VForumTopicCreated@TgBot@@@std@@IEAAX$$QEAV01@@Z
	??$_Move_construct_from@VForumTopicEdited@TgBot@@@?$_Ptr_base@VForumTopicEdited@TgBot@@@std@@IEAAX$$QEAV01@@Z
	??$_Move_construct_from@VForumTopicReopened@TgBot@@@?$_Ptr_base@VForumTopicReopened@TgBot@@@std@@IEAAX$$QEAV01@@Z
	??$_Move_construct_from@VGame@TgBot@@@?$_Ptr_base@VGame@TgBot@@@std@@IEAAX$$QEAV01@@Z
	??$_Move_construct_from@VGameHighScore@TgBot@@@?$_Ptr_base@VGameHighScore@TgBot@@@std@@IEAAX$$QEAV01@@Z
	??$_Move_construct_from@VGeneralForumTopicHidden@TgBot@@@?$_Ptr_base@VGeneralForumTopicHidden@TgBot@@@std@@IEAAX$$QEAV01@@Z
	??$_Move_construct_from@VGeneralForumTopicUnhidden@TgBot@@@?$_Ptr_base@VGeneralForumTopicUnhidden@TgBot@@@std@@IEAAX$$QEAV01@@Z
	??$_Move_construct_from@VGenericReply@TgBot@@@?$_Ptr_base@VGenericReply@TgBot@@@std@@IEAAX$$QEAV01@@Z
	??$_Move_construct_from@VInlineKeyboardButton@TgBot@@@?$_Ptr_base@VInlineKeyboardButton@TgBot@@@std@@IEAAX$$QEAV01@@Z
	??$_Move_construct_from@VInlineKeyboardMarkup@TgBot@@@?$_Ptr_base@VInlineKeyboardMarkup@TgBot@@@std@@IEAAX$$QEAV01@@Z
	??$_Move_construct_from@VInlineQuery@TgBot@@@?$_Ptr_base@VInlineQuery@TgBot@@@std@@IEAAX$$QEAV01@@Z
	??$_Move_construct_from@VInlineQueryResult@TgBot@@@?$_Ptr_base@VInlineQueryResult@TgBot@@@std@@IEAAX$$QEAV01@@Z
	??$_Move_construct_from@VInlineQueryResultArticle@TgBot@@@?$_Ptr_base@VInlineQueryResultArticle@TgBot@@@std@@IEAAX$$QEAV01@@Z
	??$_Move_construct_from@VInlineQueryResultAudio@TgBot@@@?$_Ptr_base@VInlineQueryResultAudio@TgBot@@@std@@IEAAX$$QEAV01@@Z
	??$_Move_construct_from@VInlineQueryResultCachedAudio@TgBot@@@?$_Ptr_base@VInlineQueryResultCachedAudio@TgBot@@@std@@IEAAX$$QEAV01@@Z
	??$_Move_construct_from@VInlineQueryResultCachedDocument@TgBot@@@?$_Ptr_base@VInlineQueryResultCachedDocument@TgBot@@@std@@IEAAX$$QEAV01@@Z
	??$_Move_construct_from@VInlineQueryResultCachedGif@TgBot@@@?$_Ptr_base@VInlineQueryResultCachedGif@TgBot@@@std@@IEAAX$$QEAV01@@Z
	??$_Move_construct_from@VInlineQueryResultCachedMpeg4Gif@TgBot@@@?$_Ptr_base@VInlineQueryResultCachedMpeg4Gif@TgBot@@@std@@IEAAX$$QEAV01@@Z
	??$_Move_construct_from@VInlineQueryResultCachedPhoto@TgBot@@@?$_Ptr_base@VInlineQueryResultCachedPhoto@TgBot@@@std@@IEAAX$$QEAV01@@Z
	??$_Move_construct_from@VInlineQueryResultCachedSticker@TgBot@@@?$_Ptr_base@VInlineQueryResultCachedSticker@TgBot@@@std@@IEAAX$$QEAV01@@Z
	??$_Move_construct_from@VInlineQueryResultCachedVideo@TgBot@@@?$_Ptr_base@VInlineQueryResultCachedVideo@TgBot@@@std@@IEAAX$$QEAV01@@Z
	??$_Move_construct_from@VInlineQueryResultCachedVoice@TgBot@@@?$_Ptr_base@VInlineQueryResultCachedVoice@TgBot@@@std@@IEAAX$$QEAV01@@Z
	??$_Move_construct_from@VInlineQueryResultContact@TgBot@@@?$_Ptr_base@VInlineQueryResultContact@TgBot@@@std@@IEAAX$$QEAV01@@Z
	??$_Move_construct_from@VInlineQueryResultDocument@TgBot@@@?$_Ptr_base@VInlineQueryResultDocument@TgBot@@@std@@IEAAX$$QEAV01@@Z
	??$_Move_construct_from@VInlineQueryResultGame@TgBot@@@?$_Ptr_base@VInlineQueryResultGame@TgBot@@@std@@IEAAX$$QEAV01@@Z
	??$_Move_construct_from@VInlineQueryResultGif@TgBot@@@?$_Ptr_base@VInlineQueryResultGif@TgBot@@@std@@IEAAX$$QEAV01@@Z
	??$_Move_construct_from@VInlineQueryResultLocation@TgBot@@@?$_Ptr_base@VInlineQueryResultLocation@TgBot@@@std@@IEAAX$$QEAV01@@Z
	??$_Move_construct_from@VInlineQueryResultMpeg4Gif@TgBot@@@?$_Ptr_base@VInlineQueryResultMpeg4Gif@TgBot@@@std@@IEAAX$$QEAV01@@Z
	??$_Move_construct_from@VInlineQueryResultPhoto@TgBot@@@?$_Ptr_base@VInlineQueryResultPhoto@TgBot@@@std@@IEAAX$$QEAV01@@Z
	??$_Move_construct_from@VInlineQueryResultVenue@TgBot@@@?$_Ptr_base@VInlineQueryResultVenue@TgBot@@@std@@IEAAX$$QEAV01@@Z
	??$_Move_construct_from@VInlineQueryResultVideo@TgBot@@@?$_Ptr_base@VInlineQueryResultVideo@TgBot@@@std@@IEAAX$$QEAV01@@Z
	??$_Move_construct_from@VInlineQueryResultVoice@TgBot@@@?$_Ptr_base@VInlineQueryResultVoice@TgBot@@@std@@IEAAX$$QEAV01@@Z
	??$_Move_construct_from@VInputContactMessageContent@TgBot@@@?$_Ptr_base@VInputContactMessageContent@TgBot@@@std@@IEAAX$$QEAV01@@Z
	??$_Move_construct_from@VInputFile@TgBot@@@?$_Ptr_base@VInputFile@TgBot@@@std@@IEAAX$$QEAV01@@Z
	??$_Move_construct_from@VInputInvoiceMessageContent@TgBot@@@?$_Ptr_base@VInputInvoiceMessageContent@TgBot@@@std@@IEAAX$$QEAV01@@Z
	??$_Move_construct_from@VInputLocationMessageContent@TgBot@@@?$_Ptr_base@VInputLocationMessageContent@TgBot@@@std@@IEAAX$$QEAV01@@Z
	??$_Move_construct_from@VInputMedia@TgBot@@@?$_Ptr_base@VInputMedia@TgBot@@@std@@IEAAX$$QEAV01@@Z
	??$_Move_construct_from@VInputMediaAnimation@TgBot@@@?$_Ptr_base@VInputMediaAnimation@TgBot@@@std@@IEAAX$$QEAV01@@Z
	??$_Move_construct_from@VInputMediaAudio@TgBot@@@?$_Ptr_base@VInputMediaAudio@TgBot@@@std@@IEAAX$$QEAV01@@Z
	??$_Move_construct_from@VInputMediaDocument@TgBot@@@?$_Ptr_base@VInputMediaDocument@TgBot@@@std@@IEAAX$$QEAV01@@Z
	??$_Move_construct_from@VInputMediaPhoto@TgBot@@@?$_Ptr_base@VInputMediaPhoto@TgBot@@@std@@IEAAX$$QEAV01@@Z
	??$_Move_construct_from@VInputMediaVideo@TgBot@@@?$_Ptr_base@VInputMediaVideo@TgBot@@@std@@IEAAX$$QEAV01@@Z
	??$_Move_construct_from@VInputMessageContent@TgBot@@@?$_Ptr_base@VInputMessageContent@TgBot@@@std@@IEAAX$$QEAV01@@Z
	??$_Move_construct_from@VInputTextMessageContent@TgBot@@@?$_Ptr_base@VInputTextMessageContent@TgBot@@@std@@IEAAX$$QEAV01@@Z
	??$_Move_construct_from@VInputVenueMessageContent@TgBot@@@?$_Ptr_base@VInputVenueMessageContent@TgBot@@@std@@IEAAX$$QEAV01@@Z
	??$_Move_construct_from@VInvoice@TgBot@@@?$_Ptr_base@VInvoice@TgBot@@@std@@IEAAX$$QEAV01@@Z
	??$_Move_construct_from@VKeyboardButton@TgBot@@@?$_Ptr_base@VKeyboardButton@TgBot@@@std@@IEAAX$$QEAV01@@Z
	??$_Move_construct_from@VKeyboardButtonPollType@TgBot@@@?$_Ptr_base@VKeyboardButtonPollType@TgBot@@@std@@IEAAX$$QEAV01@@Z
	??$_Move_construct_from@VKeyboardButtonRequestChat@TgBot@@@?$_Ptr_base@VKeyboardButtonRequestChat@TgBot@@@std@@IEAAX$$QEAV01@@Z
	??$_Move_construct_from@VKeyboardButtonRequestUser@TgBot@@@?$_Ptr_base@VKeyboardButtonRequestUser@TgBot@@@std@@IEAAX$$QEAV01@@Z
	??$_Move_construct_from@VLabeledPrice@TgBot@@@?$_Ptr_base@VLabeledPrice@TgBot@@@std@@IEAAX$$QEAV01@@Z
	??$_Move_construct_from@VLocation@TgBot@@@?$_Ptr_base@VLocation@TgBot@@@std@@IEAAX$$QEAV01@@Z
	??$_Move_construct_from@VLoginUrl@TgBot@@@?$_Ptr_base@VLoginUrl@TgBot@@@std@@IEAAX$$QEAV01@@Z
	??$_Move_construct_from@VMaskPosition@TgBot@@@?$_Ptr_base@VMaskPosition@TgBot@@@std@@IEAAX$$QEAV01@@Z
	??$_Move_construct_from@VMenuButton@TgBot@@@?$_Ptr_base@VMenuButton@TgBot@@@std@@IEAAX$$QEAV01@@Z
	??$_Move_construct_from@VMenuButtonCommands@TgBot@@@?$_Ptr_base@VMenuButtonCommands@TgBot@@@std@@IEAAX$$QEAV01@@Z
	??$_Move_construct_from@VMenuButtonDefault@TgBot@@@?$_Ptr_base@VMenuButtonDefault@TgBot@@@std@@IEAAX$$QEAV01@@Z
	??$_Move_construct_from@VMenuButtonWebApp@TgBot@@@?$_Ptr_base@VMenuButtonWebApp@TgBot@@@std@@IEAAX$$QEAV01@@Z
	??$_Move_construct_from@VMessage@TgBot@@@?$_Ptr_base@VMessage@TgBot@@@std@@IEAAX$$QEAV01@@Z
	??$_Move_construct_from@VMessageAutoDeleteTimerChanged@TgBot@@@?$_Ptr_base@VMessageAutoDeleteTimerChanged@TgBot@@@std@@IEAAX$$QEAV01@@Z
	??$_Move_construct_from@VMessageEntity@TgBot@@@?$_Ptr_base@VMessageEntity@TgBot@@@std@@IEAAX$$QEAV01@@Z
	??$_Move_construct_from@VMessageId@TgBot@@@?$_Ptr_base@VMessageId@TgBot@@@std@@IEAAX$$QEAV01@@Z
	??$_Move_construct_from@VOrderInfo@TgBot@@@?$_Ptr_base@VOrderInfo@TgBot@@@std@@IEAAX$$QEAV01@@Z
	??$_Move_construct_from@VPassportData@TgBot@@@?$_Ptr_base@VPassportData@TgBot@@@std@@IEAAX$$QEAV01@@Z
	??$_Move_construct_from@VPassportElementError@TgBot@@@?$_Ptr_base@VPassportElementError@TgBot@@@std@@IEAAX$$QEAV01@@Z
	??$_Move_construct_from@VPassportElementErrorDataField@TgBot@@@?$_Ptr_base@VPassportElementErrorDataField@TgBot@@@std@@IEAAX$$QEAV01@@Z
	??$_Move_construct_from@VPassportElementErrorFile@TgBot@@@?$_Ptr_base@VPassportElementErrorFile@TgBot@@@std@@IEAAX$$QEAV01@@Z
	??$_Move_construct_from@VPassportElementErrorFiles@TgBot@@@?$_Ptr_base@VPassportElementErrorFiles@TgBot@@@std@@IEAAX$$QEAV01@@Z
	??$_Move_construct_from@VPassportElementErrorFrontSide@TgBot@@@?$_Ptr_base@VPassportElementErrorFrontSide@TgBot@@@std@@IEAAX$$QEAV01@@Z
	??$_Move_construct_from@VPassportElementErrorReverseSide@TgBot@@@?$_Ptr_base@VPassportElementErrorReverseSide@TgBot@@@std@@IEAAX$$QEAV01@@Z
	??$_Move_construct_from@VPassportElementErrorSelfie@TgBot@@@?$_Ptr_base@VPassportElementErrorSelfie@TgBot@@@std@@IEAAX$$QEAV01@@Z
	??$_Move_construct_from@VPassportElementErrorTranslationFile@TgBot@@@?$_Ptr_base@VPassportElementErrorTranslationFile@TgBot@@@std@@IEAAX$$QEAV01@@Z
	??$_Move_construct_from@VPassportElementErrorTranslationFiles@TgBot@@@?$_Ptr_base@VPassportElementErrorTranslationFiles@TgBot@@@std@@IEAAX$$QEAV01@@Z
	??$_Move_construct_from@VPassportElementErrorUnspecified@TgBot@@@?$_Ptr_base@VPassportElementErrorUnspecified@TgBot@@@std@@IEAAX$$QEAV01@@Z
	??$_Move_construct_from@VPassportFile@TgBot@@@?$_Ptr_base@VPassportFile@TgBot@@@std@@IEAAX$$QEAV01@@Z
	??$_Move_construct_from@VPhotoSize@TgBot@@@?$_Ptr_base@VPhotoSize@TgBot@@@std@@IEAAX$$QEAV01@@Z
	??$_Move_construct_from@VPoll@TgBot@@@?$_Ptr_base@VPoll@TgBot@@@std@@IEAAX$$QEAV01@@Z
	??$_Move_construct_from@VPollAnswer@TgBot@@@?$_Ptr_base@VPollAnswer@TgBot@@@std@@IEAAX$$QEAV01@@Z
	??$_Move_construct_from@VPollOption@TgBot@@@?$_Ptr_base@VPollOption@TgBot@@@std@@IEAAX$$QEAV01@@Z
	??$_Move_construct_from@VPreCheckoutQuery@TgBot@@@?$_Ptr_base@VPreCheckoutQuery@TgBot@@@std@@IEAAX$$QEAV01@@Z
	??$_Move_construct_from@VProximityAlertTriggered@TgBot@@@?$_Ptr_base@VProximityAlertTriggered@TgBot@@@std@@IEAAX$$QEAV01@@Z
	??$_Move_construct_from@VReplyKeyboardMarkup@TgBot@@@?$_Ptr_base@VReplyKeyboardMarkup@TgBot@@@std@@IEAAX$$QEAV01@@Z
	??$_Move_construct_from@VReplyKeyboardRemove@TgBot@@@?$_Ptr_base@VReplyKeyboardRemove@TgBot@@@std@@IEAAX$$QEAV01@@Z
	??$_Move_construct_from@VResponseParameters@TgBot@@@?$_Ptr_base@VResponseParameters@TgBot@@@std@@IEAAX$$QEAV01@@Z
	??$_Move_construct_from@VSentWebAppMessage@TgBot@@@?$_Ptr_base@VSentWebAppMessage@TgBot@@@std@@IEAAX$$QEAV01@@Z
	??$_Move_construct_from@VShippingAddress@TgBot@@@?$_Ptr_base@VShippingAddress@TgBot@@@std@@IEAAX$$QEAV01@@Z
	??$_Move_construct_from@VShippingOption@TgBot@@@?$_Ptr_base@VShippingOption@TgBot@@@std@@IEAAX$$QEAV01@@Z
	??$_Move_construct_from@VShippingQuery@TgBot@@@?$_Ptr_base@VShippingQuery@TgBot@@@std@@IEAAX$$QEAV01@@Z
	??$_Move_construct_from@VSticker@TgBot@@@?$_Ptr_base@VSticker@TgBot@@@std@@IEAAX$$QEAV01@@Z
	??$_Move_construct_from@VStickerSet@TgBot@@@?$_Ptr_base@VStickerSet@TgBot@@@std@@IEAAX$$QEAV01@@Z
	??$_Move_construct_from@VSuccessfulPayment@TgBot@@@?$_Ptr_base@VSuccessfulPayment@TgBot@@@std@@IEAAX$$QEAV01@@Z
	??$_Move_construct_from@VUpdate@TgBot@@@?$_Ptr_base@VUpdate@TgBot@@@std@@IEAAX$$QEAV01@@Z
	??$_Move_construct_from@VUser@TgBot@@@?$_Ptr_base@VUser@TgBot@@@std@@IEAAX$$QEAV01@@Z
	??$_Move_construct_from@VUserProfilePhotos@TgBot@@@?$_Ptr_base@VUserProfilePhotos@TgBot@@@std@@IEAAX$$QEAV01@@Z
	??$_Move_construct_from@VUserShared@TgBot@@@?$_Ptr_base@VUserShared@TgBot@@@std@@IEAAX$$QEAV01@@Z
	??$_Move_construct_from@VVenue@TgBot@@@?$_Ptr_base@VVenue@TgBot@@@std@@IEAAX$$QEAV01@@Z
	??$_Move_construct_from@VVideo@TgBot@@@?$_Ptr_base@VVideo@TgBot@@@std@@IEAAX$$QEAV01@@Z
	??$_Move_construct_from@VVideoChatEnded@TgBot@@@?$_Ptr_base@VVideoChatEnded@TgBot@@@std@@IEAAX$$QEAV01@@Z
	??$_Move_construct_from@VVideoChatParticipantsInvited@TgBot@@@?$_Ptr_base@VVideoChatParticipantsInvited@TgBot@@@std@@IEAAX$$QEAV01@@Z
	??$_Move_construct_from@VVideoChatScheduled@TgBot@@@?$_Ptr_base@VVideoChatScheduled@TgBot@@@std@@IEAAX$$QEAV01@@Z
	??$_Move_construct_from@VVideoChatStarted@TgBot@@@?$_Ptr_base@VVideoChatStarted@TgBot@@@std@@IEAAX$$QEAV01@@Z
	??$_Move_construct_from@VVideoNote@TgBot@@@?$_Ptr_base@VVideoNote@TgBot@@@std@@IEAAX$$QEAV01@@Z
	??$_Move_construct_from@VVoice@TgBot@@@?$_Ptr_base@VVoice@TgBot@@@std@@IEAAX$$QEAV01@@Z
	??$_Move_construct_from@VWebAppData@TgBot@@@?$_Ptr_base@VWebAppData@TgBot@@@std@@IEAAX$$QEAV01@@Z
	??$_Move_construct_from@VWebAppInfo@TgBot@@@?$_Ptr_base@VWebAppInfo@TgBot@@@std@@IEAAX$$QEAV01@@Z
	??$_Move_construct_from@VWebhookInfo@TgBot@@@?$_Ptr_base@VWebhookInfo@TgBot@@@std@@IEAAX$$QEAV01@@Z
	??$_Move_construct_from@VWriteAccessAllowed@TgBot@@@?$_Ptr_base@VWriteAccessAllowed@TgBot@@@std@@IEAAX$$QEAV01@@Z
	??$_Next_iter@PEAU?$copy_map_entry@U?$sequenced_index_node@U?$ordered_index_node@Unull_augment_policy@detail@multi_index@boost@@U?$index_node_base@U?$pair@$$CBV?$basic_string@DU?$char_traits@D@std@@V?$allocator@D@2@@std@@V?$basic_ptree@V?$basic_string@DU?$char_traits@D@std@@V?$allocator@D@2@@std@@V12@U?$less@V?$basic_string@DU?$char_traits@D@std@@V?$allocator@D@2@@std@@@2@@property_tree@boost@@@std@@V?$allocator@U?$pair@$$CBV?$basic_string@DU?$char_traits@D@std@@V?$allocator@D@2@@std@@V?$basic_ptree@V?$basic_string@DU?$char_traits@D@std@@V?$allocator@D@2@@std@@V12@U?$less@V?$basic_string@DU?$char_traits@D@std@@V?$allocator@D@2@@std@@@2@@property_tree@boost@@@std@@@2@@234@@detail@multi_index@boost@@@detail@multi_index@boost@@@detail@multi_index@boost@@@std@@YAPEAU?$copy_map_entry@U?$sequenced_index_node@U?$ordered_index_node@Unull_augment_policy@detail@multi_index@boost@@U?$index_node_base@U?$pair@$$CBV?$basic_string@DU?$char_traits@D@std@@V?$allocator@D@2@@std@@V?$basic_ptree@V?$basic_string@DU?$char_traits@D@std@@V?$allocator@D@2@@std@@V12@U?$less@V?$basic_string@DU?$char_traits@D@std@@V?$allocator@D@2@@std@@@2@@property_tree@boost@@@std@@V?$allocator@U?$pair@$$CBV?$basic_string@DU?$char_traits@D@std@@V?$allocator@D@2@@std@@V?$basic_ptree@V?$basic_string@DU?$char_traits@D@std@@V?$allocator@D@2@@std@@V12@U?$less@V?$basic_string@DU?$char_traits@D@std@@V?$allocator@D@2@@std@@@2@@property_tree@boost@@@std@@@2@@234@@detail@multi_index@boost@@@detail@multi_index@boost@@@detail@multi_index@boost@@PEAU1234@@Z
	??$_Next_iter@PEBU?$copy_map_entry@U?$sequenced_index_node@U?$ordered_index_node@Unull_augment_policy@detail@multi_index@boost@@U?$index_node_base@U?$pair@$$CBV?$basic_string@DU?$char_traits@D@std@@V?$allocator@D@2@@std@@V?$basic_ptree@V?$basic_string@DU?$char_traits@D@std@@V?$allocator@D@2@@std@@V12@U?$less@V?$basic_string@DU?$char_traits@D@std@@V?$allocator@D@2@@std@@@2@@property_tree@boost@@@std@@V?$allocator@U?$pair@$$CBV?$basic_string@DU?$char_traits@D@std@@V?$allocator@D@2@@std@@V?$basic_ptree@V?$basic_string@DU?$char_traits@D@std@@V?$allocator@D@2@@std@@V12@U?$less@V?$basic_string@DU?$char_traits@D@std@@V?$allocator@D@2@@std@@@2@@property_tree@boost@@@std@@@2@@234@@detail@multi_index@boost@@@detail@multi_index@boost@@@detail@multi_index@boost@@@std@@YAPEBU?$copy_map_entry@U?$sequenced_index_node@U?$ordered_index_node@Unull_augment_policy@detail@multi_index@boost@@U?$index_node_base@U?$pair@$$CBV?$basic_string@DU?$char_traits@D@std@@V?$allocator@D@2@@std@@V?$basic_ptree@V?$basic_string@DU?$char_traits@D@std@@V?$allocator@D@2@@std@@V12@U?$less@V?$basic_string@DU?$char_traits@D@std@@V?$allocator@D@2@@std@@@2@@property_tree@boost@@@std@@V?$allocator@U?$pair@$$CBV?$basic_string@DU?$char_traits@D@std@@V?$allocator@D@2@@std@@V?$basic_ptree@V?$basic_string@DU?$char_traits@D@std@@V?$allocator@D@2@@std@@V12@U?$less@V?$basic_string@DU?$char_traits@D@std@@V?$allocator@D@2@@std@@@2@@property_tree@boost@@@std@@@2@@234@@detail@multi_index@boost@@@detail@multi_index@boost@@@detail@multi_index@boost@@PEBU1234@@Z
	??$_Partition_by_median_guess_unchecked@PEAU?$copy_map_entry@U?$sequenced_index_node@U?$ordered_index_node@Unull_augment_policy@detail@multi_index@boost@@U?$index_node_base@U?$pair@$$CBV?$basic_string@DU?$char_traits@D@std@@V?$allocator@D@2@@std@@V?$basic_ptree@V?$basic_string@DU?$char_traits@D@std@@V?$allocator@D@2@@std@@V12@U?$less@V?$basic_string@DU?$char_traits@D@std@@V?$allocator@D@2@@std@@@2@@property_tree@boost@@@std@@V?$allocator@U?$pair@$$CBV?$basic_string@DU?$char_traits@D@std@@V?$allocator@D@2@@std@@V?$basic_ptree@V?$basic_string@DU?$char_traits@D@std@@V?$allocator@D@2@@std@@V12@U?$less@V?$basic_string@DU?$char_traits@D@std@@V?$allocator@D@2@@std@@@2@@property_tree@boost@@@std@@@2@@234@@detail@multi_index@boost@@@detail@multi_index@boost@@@detail@multi_index@boost@@U?$less@X@std@@@std@@YA?AU?$pair@PEAU?$copy_map_entry@U?$sequenced_index_node@U?$ordered_index_node@Unull_augment_policy@detail@multi_index@boost@@U?$index_node_base@U?$pair@$$CBV?$basic_string@DU?$char_traits@D@std@@V?$allocator@D@2@@std@@V?$basic_ptree@V?$basic_string@DU?$char_traits@D@std@@V?$allocator@D@2@@std@@V12@U?$less@V?$basic_string@DU?$char_traits@D@std@@V?$allocator@D@2@@std@@@2@@property_tree@boost@@@std@@V?$allocator@U?$pair@$$CBV?$basic_string@DU?$char_traits@D@std@@V?$allocator@D@2@@std@@V?$basic_ptree@V?$basic_string@DU?$char_traits@D@std@@V?$allocator@D@2@@std@@V12@U?$less@V?$basic_string@DU?$char_traits@D@std@@V?$allocator@D@2@@std@@@2@@property_tree@boost@@@std@@@2@@234@@detail@multi_index@boost@@@detail@multi_index@boost@@@detail@multi_index@boost@@PEAU1234@@0@PEAU?$copy_map_entry@U?$sequenced_index_node@U?$ordered_index_node@Unull_augment_policy@detail@multi_index@boost@@U?$index_node_base@U?$pair@$$CBV?$basic_string@DU?$char_traits@D@std@@V?$allocator@D@2@@std@@V?$basic_ptree@V?$basic_string@DU?$char_traits@D@std@@V?$allocator@D@2@@std@@V12@U?$less@V?$basic_string@DU?$char_traits@D@std@@V?$allocator@D@2@@std@@@2@@property_tree@boost@@@std@@V?$allocator@U?$pair@$$CBV?$basic_string@DU?$char_traits@D@std@@V?$allocator@D@2@@std@@V?$basic_ptree@V?$basic_string@DU?$char_traits@D@std@@V?$allocator@D@2@@std@@V12@U?$less@V?$basic_string@DU?$char_traits@D@std@@V?$allocator@D@2@@std@@@2@@property_tree@boost@@@std@@@2@@234@@detail@multi_index@boost@@@detail@multi_index@boost@@@detail@multi_index@boost@@0U?$less@X@0@@Z
	??$_Pass_fn@U?$less@X@std@@@std@@YA?A_PAEAU?$less@X@0@@Z
	??$_Pocca@V?$allocator@D@std@@@std@@YAXAEAV?$allocator@D@0@AEBV10@@Z
	??$_Pocca@V?$allocator@U?$_List_node@U?$pair@$$CBV?$basic_string@DU?$char_traits@D@std@@V?$allocator@D@2@@std@@V?$function@$$A6AXV?$shared_ptr@VMessage@TgBot@@@std@@@Z@2@@std@@PEAX@std@@@std@@@std@@YAXAEAV?$allocator@U?$_List_node@U?$pair@$$CBV?$basic_string@DU?$char_traits@D@std@@V?$allocator@D@2@@std@@V?$function@$$A6AXV?$shared_ptr@VMessage@TgBot@@@std@@@Z@2@@std@@PEAX@std@@@0@AEBV10@@Z
	??$_Pocca@V?$allocator@V?$_List_unchecked_iterator@V?$_List_val@U?$_List_simple_types@U?$pair@$$CBV?$basic_string@DU?$char_traits@D@std@@V?$allocator@D@2@@std@@V?$function@$$A6AXV?$shared_ptr@VMessage@TgBot@@@std@@@Z@2@@std@@@std@@@std@@@std@@@std@@@std@@YAXAEAV?$allocator@V?$_List_unchecked_iterator@V?$_List_val@U?$_List_simple_types@U?$pair@$$CBV?$basic_string@DU?$char_traits@D@std@@V?$allocator@D@2@@std@@V?$function@$$A6AXV?$shared_ptr@VMessage@TgBot@@@std@@@Z@2@@std@@@std@@@std@@@std@@@0@AEBV10@@Z
	??$_Pocca@V?$allocator@V?$function@$$A6AXV?$shared_ptr@VCallbackQuery@TgBot@@@std@@@Z@std@@@std@@@std@@YAXAEAV?$allocator@V?$function@$$A6AXV?$shared_ptr@VCallbackQuery@TgBot@@@std@@@Z@std@@@0@AEBV10@@Z
	??$_Pocca@V?$allocator@V?$function@$$A6AXV?$shared_ptr@VChatJoinRequest@TgBot@@@std@@@Z@std@@@std@@@std@@YAXAEAV?$allocator@V?$function@$$A6AXV?$shared_ptr@VChatJoinRequest@TgBot@@@std@@@Z@std@@@0@AEBV10@@Z
	??$_Pocca@V?$allocator@V?$function@$$A6AXV?$shared_ptr@VChatMemberUpdated@TgBot@@@std@@@Z@std@@@std@@@std@@YAXAEAV?$allocator@V?$function@$$A6AXV?$shared_ptr@VChatMemberUpdated@TgBot@@@std@@@Z@std@@@0@AEBV10@@Z
	??$_Pocca@V?$allocator@V?$function@$$A6AXV?$shared_ptr@VChosenInlineResult@TgBot@@@std@@@Z@std@@@std@@@std@@YAXAEAV?$allocator@V?$function@$$A6AXV?$shared_ptr@VChosenInlineResult@TgBot@@@std@@@Z@std@@@0@AEBV10@@Z
	??$_Pocca@V?$allocator@V?$function@$$A6AXV?$shared_ptr@VInlineQuery@TgBot@@@std@@@Z@std@@@std@@@std@@YAXAEAV?$allocator@V?$function@$$A6AXV?$shared_ptr@VInlineQuery@TgBot@@@std@@@Z@std@@@0@AEBV10@@Z
	??$_Pocca@V?$allocator@V?$function@$$A6AXV?$shared_ptr@VMessage@TgBot@@@std@@@Z@std@@@std@@@std@@YAXAEAV?$allocator@V?$function@$$A6AXV?$shared_ptr@VMessage@TgBot@@@std@@@Z@std@@@0@AEBV10@@Z
	??$_Pocca@V?$allocator@V?$function@$$A6AXV?$shared_ptr@VPoll@TgBot@@@std@@@Z@std@@@std@@@std@@YAXAEAV?$allocator@V?$function@$$A6AXV?$shared_ptr@VPoll@TgBot@@@std@@@Z@std@@@0@AEBV10@@Z
	??$_Pocca@V?$allocator@V?$function@$$A6AXV?$shared_ptr@VPollAnswer@TgBot@@@std@@@Z@std@@@std@@@std@@YAXAEAV?$allocator@V?$function@$$A6AXV?$shared_ptr@VPollAnswer@TgBot@@@std@@@Z@std@@@0@AEBV10@@Z
	??$_Pocca@V?$allocator@V?$function@$$A6AXV?$shared_ptr@VPreCheckoutQuery@TgBot@@@std@@@Z@std@@@std@@@std@@YAXAEAV?$allocator@V?$function@$$A6AXV?$shared_ptr@VPreCheckoutQuery@TgBot@@@std@@@Z@std@@@0@AEBV10@@Z
	??$_Pocca@V?$allocator@V?$function@$$A6AXV?$shared_ptr@VShippingQuery@TgBot@@@std@@@Z@std@@@std@@@std@@YAXAEAV?$allocator@V?$function@$$A6AXV?$shared_ptr@VShippingQuery@TgBot@@@std@@@Z@std@@@0@AEBV10@@Z
	??$_Pocca@V?$allocator@V?$shared_ptr@VUpdate@TgBot@@@std@@@std@@@std@@YAXAEAV?$allocator@V?$shared_ptr@VUpdate@TgBot@@@std@@@0@AEBV10@@Z
	??$_Pocma@V?$allocator@D@std@@@std@@YAXAEAV?$allocator@D@0@0@Z
	??$_Pocma@V?$allocator@H@std@@@std@@YAXAEAV?$allocator@H@0@0@Z
	??$_Pocma@V?$allocator@U?$_List_node@U?$pair@$$CBV?$basic_string@DU?$char_traits@D@std@@V?$allocator@D@2@@std@@V?$function@$$A6AXV?$shared_ptr@VMessage@TgBot@@@std@@@Z@2@@std@@PEAX@std@@@std@@@std@@YAXAEAV?$allocator@U?$_List_node@U?$pair@$$CBV?$basic_string@DU?$char_traits@D@std@@V?$allocator@D@2@@std@@V?$function@$$A6AXV?$shared_ptr@VMessage@TgBot@@@std@@@Z@2@@std@@PEAX@std@@@0@0@Z
	??$_Pocma@V?$allocator@V?$_List_unchecked_iterator@V?$_List_val@U?$_List_simple_types@U?$pair@$$CBV?$basic_string@DU?$char_traits@D@std@@V?$allocator@D@2@@std@@V?$function@$$A6AXV?$shared_ptr@VMessage@TgBot@@@std@@@Z@2@@std@@@std@@@std@@@std@@@std@@@std@@YAXAEAV?$allocator@V?$_List_unchecked_iterator@V?$_List_val@U?$_List_simple_types@U?$pair@$$CBV?$basic_string@DU?$char_traits@D@std@@V?$allocator@D@2@@std@@V?$function@$$A6AXV?$shared_ptr@VMessage@TgBot@@@std@@@Z@2@@std@@@std@@@std@@@std@@@0@0@Z
	??$_Pocma@V?$allocator@V?$basic_string@DU?$char_traits@D@std@@V?$allocator@D@2@@std@@@std@@@std@@YAXAEAV?$allocator@V?$basic_string@DU?$char_traits@D@std@@V?$allocator@D@2@@std@@@0@0@Z
